SF:/Users/ocdbytes/Karnot/madara-orchestrator/crates/da-clients/da-client-interface/src/lib.rs
FN:17,_RNvXs3_CsQLhsInw6KB_19da_client_interfaceNtB5_12MockDaClientNtNtCsl82brYPINY5_4core3fmt5Debug3fmt
FN:17,_RNvXs4_CsQLhsInw6KB_19da_client_interfaceNtB5_12MockDaClientNtNtCsl82brYPINY5_4core7default7Default7default
FN:17,_RNvMNtNtCsQLhsInw6KB_19da_client_interface28___mock_MockDaClient_DaClient20___publish_state_diffNtB2_5Rfunc8call_mut
FN:17,_RNvXs_NtNtCsQLhsInw6KB_19da_client_interface28___mock_MockDaClient_DaClient20___publish_state_diffNtB4_5RfuncNtNtCsl82brYPINY5_4core7default7Default7default
FN:17,_RNvMs0_NtNtCsQLhsInw6KB_19da_client_interface28___mock_MockDaClient_DaClient20___publish_state_diffNtB5_7Matcher7matches
FN:17,_RNCNvMs0_NtNtCsQLhsInw6KB_19da_client_interface28___mock_MockDaClient_DaClient20___publish_state_diffNtB7_7Matcher7matches0Bb_
FN:17,_RNvXs1_NtNtCsQLhsInw6KB_19da_client_interface28___mock_MockDaClient_DaClient20___publish_state_diffNtB5_7MatcherNtNtCsl82brYPINY5_4core7default7Default7default
FN:17,_RNvXs2_NtNtCsQLhsInw6KB_19da_client_interface28___mock_MockDaClient_DaClient20___publish_state_diffNtB5_7MatcherNtNtCsl82brYPINY5_4core3fmt7Display3fmt
FN:17,_RNvXs3_NtNtCsQLhsInw6KB_19da_client_interface28___mock_MockDaClient_DaClient20___publish_state_diffNtB5_6CommonNtNtCsl82brYPINY5_4core7default7Default7default
FN:17,_RNvMs4_NtNtCsQLhsInw6KB_19da_client_interface28___mock_MockDaClient_DaClient20___publish_state_diffNtB5_6Common4call
FN:17,_RNvMs4_NtNtCsQLhsInw6KB_19da_client_interface28___mock_MockDaClient_DaClient20___publish_state_diffNtB5_6Common11in_sequence
FN:17,_RNvMs4_NtNtCsQLhsInw6KB_19da_client_interface28___mock_MockDaClient_DaClient20___publish_state_diffNtB5_6Common7is_done
FN:17,_RNvMs4_NtNtCsQLhsInw6KB_19da_client_interface28___mock_MockDaClient_DaClient20___publish_state_diffNtB5_6Common7matches
FN:17,_RNvMs4_NtNtCsQLhsInw6KB_19da_client_interface28___mock_MockDaClient_DaClient20___publish_state_diffNtB5_6Common5never
FN:17,_RNvMs4_NtNtCsQLhsInw6KB_19da_client_interface28___mock_MockDaClient_DaClient20___publish_state_diffNtB5_6Common16satisfy_sequence
FN:17,_RINvMs4_NtNtCsQLhsInw6KB_19da_client_interface28___mock_MockDaClient_DaClient20___publish_state_diffNtB6_6Common5timespEBa_
FN:17,_RINvMs4_NtNtCsQLhsInw6KB_19da_client_interface28___mock_MockDaClient_DaClient20___publish_state_diffNtB6_6Common4withppEBa_
FN:17,_RINvMs4_NtNtCsQLhsInw6KB_19da_client_interface28___mock_MockDaClient_DaClient20___publish_state_diffNtB6_6Common5withfpEBa_
FN:17,_RINvMs4_NtNtCsQLhsInw6KB_19da_client_interface28___mock_MockDaClient_DaClient20___publish_state_diffNtB6_6Common8withf_stpEBa_
FN:17,_RNvMs4_NtNtCsQLhsInw6KB_19da_client_interface28___mock_MockDaClient_DaClient20___publish_state_diffNtB5_6Common15verify_sequence
FN:17,_RNvXs5_NtNtCsQLhsInw6KB_19da_client_interface28___mock_MockDaClient_DaClient20___publish_state_diffNtB5_6CommonNtNtNtCsl82brYPINY5_4core3ops4drop4Drop4drop
FN:17,_RNvMs6_NtNtCsQLhsInw6KB_19da_client_interface28___mock_MockDaClient_DaClient20___publish_state_diffNtB5_11Expectation4call
FN:17,_RINvMs6_NtNtCsQLhsInw6KB_19da_client_interface28___mock_MockDaClient_DaClient20___publish_state_diffNtB6_11Expectation12return_constpEBa_
FN:17,_RNCINvMs6_NtNtCsQLhsInw6KB_19da_client_interface28___mock_MockDaClient_DaClient20___publish_state_diffNtB8_11Expectation12return_constpE0Bc_
FN:17,_RINvMs6_NtNtCsQLhsInw6KB_19da_client_interface28___mock_MockDaClient_DaClient20___publish_state_diffNtB6_11Expectation15return_const_stpEBa_
FN:17,_RNCINvMs6_NtNtCsQLhsInw6KB_19da_client_interface28___mock_MockDaClient_DaClient20___publish_state_diffNtB8_11Expectation15return_const_stpE0Bc_
FN:17,_RINvMs6_NtNtCsQLhsInw6KB_19da_client_interface28___mock_MockDaClient_DaClient20___publish_state_diffNtB6_11Expectation11return_oncepEBa_
FN:17,_RINvMs6_NtNtCsQLhsInw6KB_19da_client_interface28___mock_MockDaClient_DaClient20___publish_state_diffNtB6_11Expectation14return_once_stpEBa_
FN:17,_RINvMs6_NtNtCsQLhsInw6KB_19da_client_interface28___mock_MockDaClient_DaClient20___publish_state_diffNtB6_11Expectation9returningpEBa_
FN:17,_RINvMs6_NtNtCsQLhsInw6KB_19da_client_interface28___mock_MockDaClient_DaClient20___publish_state_diffNtB6_11Expectation12returning_stpEBa_
FN:17,_RNvMs6_NtNtCsQLhsInw6KB_19da_client_interface28___mock_MockDaClient_DaClient20___publish_state_diffNtB5_11Expectation11in_sequence
FN:17,_RNvMs6_NtNtCsQLhsInw6KB_19da_client_interface28___mock_MockDaClient_DaClient20___publish_state_diffNtB5_11Expectation7is_done
FN:17,_RNvMs6_NtNtCsQLhsInw6KB_19da_client_interface28___mock_MockDaClient_DaClient20___publish_state_diffNtB5_11Expectation7matches
FN:17,_RNvMs6_NtNtCsQLhsInw6KB_19da_client_interface28___mock_MockDaClient_DaClient20___publish_state_diffNtB5_11Expectation5never
FN:17,_RNvMs6_NtNtCsQLhsInw6KB_19da_client_interface28___mock_MockDaClient_DaClient20___publish_state_diffNtB5_11Expectation3new
FN:17,_RNvMs6_NtNtCsQLhsInw6KB_19da_client_interface28___mock_MockDaClient_DaClient20___publish_state_diffNtB5_11Expectation4once
FN:17,_RINvMs6_NtNtCsQLhsInw6KB_19da_client_interface28___mock_MockDaClient_DaClient20___publish_state_diffNtB6_11Expectation5timespEBa_
FN:17,_RINvMs6_NtNtCsQLhsInw6KB_19da_client_interface28___mock_MockDaClient_DaClient20___publish_state_diffNtB6_11Expectation4withppEBa_
FN:17,_RINvMs6_NtNtCsQLhsInw6KB_19da_client_interface28___mock_MockDaClient_DaClient20___publish_state_diffNtB6_11Expectation5withfpEBa_
FN:17,_RINvMs6_NtNtCsQLhsInw6KB_19da_client_interface28___mock_MockDaClient_DaClient20___publish_state_diffNtB6_11Expectation8withf_stpEBa_
FN:17,_RNvXs7_NtNtCsQLhsInw6KB_19da_client_interface28___mock_MockDaClient_DaClient20___publish_state_diffNtB5_11ExpectationNtNtCsl82brYPINY5_4core7default7Default7default
FN:17,_RNvMs8_NtNtCsQLhsInw6KB_19da_client_interface28___mock_MockDaClient_DaClient20___publish_state_diffNtB5_12Expectations10checkpoint
FN:17,_RNvMs8_NtNtCsQLhsInw6KB_19da_client_interface28___mock_MockDaClient_DaClient20___publish_state_diffNtB5_12Expectations6expect
FN:17,_RNvMs8_NtNtCsQLhsInw6KB_19da_client_interface28___mock_MockDaClient_DaClient20___publish_state_diffNtB5_12Expectations3new
FN:17,_RNvXs9_NtNtCsQLhsInw6KB_19da_client_interface28___mock_MockDaClient_DaClient20___publish_state_diffNtB5_12ExpectationsNtNtCsl82brYPINY5_4core7default7Default7default
FN:17,_RNvMsa_NtNtCsQLhsInw6KB_19da_client_interface28___mock_MockDaClient_DaClient20___publish_state_diffNtB5_12Expectations4call
FN:17,_RNCNvMsa_NtNtCsQLhsInw6KB_19da_client_interface28___mock_MockDaClient_DaClient20___publish_state_diffNtB7_12Expectations4call0Bb_
FN:17,_RNCNvMsa_NtNtCsQLhsInw6KB_19da_client_interface28___mock_MockDaClient_DaClient20___publish_state_diffNtB7_12Expectations4calls_0Bb_
FN:17,_RNvMNtNtCsQLhsInw6KB_19da_client_interface28___mock_MockDaClient_DaClient18___verify_inclusionNtB2_5Rfunc8call_mut
FN:17,_RNvXs_NtNtCsQLhsInw6KB_19da_client_interface28___mock_MockDaClient_DaClient18___verify_inclusionNtB4_5RfuncNtNtCsl82brYPINY5_4core7default7Default7default
FN:17,_RNvMs0_NtNtCsQLhsInw6KB_19da_client_interface28___mock_MockDaClient_DaClient18___verify_inclusionNtB5_7Matcher7matches
FN:17,_RNCNvMs0_NtNtCsQLhsInw6KB_19da_client_interface28___mock_MockDaClient_DaClient18___verify_inclusionNtB7_7Matcher7matches0Bb_
FN:17,_RNvXs1_NtNtCsQLhsInw6KB_19da_client_interface28___mock_MockDaClient_DaClient18___verify_inclusionNtB5_7MatcherNtNtCsl82brYPINY5_4core7default7Default7default
FN:17,_RNvXs2_NtNtCsQLhsInw6KB_19da_client_interface28___mock_MockDaClient_DaClient18___verify_inclusionNtB5_7MatcherNtNtCsl82brYPINY5_4core3fmt7Display3fmt
FN:17,_RNvXs3_NtNtCsQLhsInw6KB_19da_client_interface28___mock_MockDaClient_DaClient18___verify_inclusionNtB5_6CommonNtNtCsl82brYPINY5_4core7default7Default7default
FN:17,_RNvMs4_NtNtCsQLhsInw6KB_19da_client_interface28___mock_MockDaClient_DaClient18___verify_inclusionNtB5_6Common4call
FN:17,_RNvMs4_NtNtCsQLhsInw6KB_19da_client_interface28___mock_MockDaClient_DaClient18___verify_inclusionNtB5_6Common11in_sequence
FN:17,_RNvMs4_NtNtCsQLhsInw6KB_19da_client_interface28___mock_MockDaClient_DaClient18___verify_inclusionNtB5_6Common7is_done
FN:17,_RNvMs4_NtNtCsQLhsInw6KB_19da_client_interface28___mock_MockDaClient_DaClient18___verify_inclusionNtB5_6Common7matches
FN:17,_RNvMs4_NtNtCsQLhsInw6KB_19da_client_interface28___mock_MockDaClient_DaClient18___verify_inclusionNtB5_6Common5never
FN:17,_RNvMs4_NtNtCsQLhsInw6KB_19da_client_interface28___mock_MockDaClient_DaClient18___verify_inclusionNtB5_6Common16satisfy_sequence
FN:17,_RINvMs4_NtNtCsQLhsInw6KB_19da_client_interface28___mock_MockDaClient_DaClient18___verify_inclusionNtB6_6Common5timespEBa_
FN:17,_RINvMs4_NtNtCsQLhsInw6KB_19da_client_interface28___mock_MockDaClient_DaClient18___verify_inclusionNtB6_6Common4withpEBa_
FN:17,_RINvMs4_NtNtCsQLhsInw6KB_19da_client_interface28___mock_MockDaClient_DaClient18___verify_inclusionNtB6_6Common5withfpEBa_
FN:17,_RINvMs4_NtNtCsQLhsInw6KB_19da_client_interface28___mock_MockDaClient_DaClient18___verify_inclusionNtB6_6Common8withf_stpEBa_
FN:17,_RNvMs4_NtNtCsQLhsInw6KB_19da_client_interface28___mock_MockDaClient_DaClient18___verify_inclusionNtB5_6Common15verify_sequence
FN:17,_RNvXs5_NtNtCsQLhsInw6KB_19da_client_interface28___mock_MockDaClient_DaClient18___verify_inclusionNtB5_6CommonNtNtNtCsl82brYPINY5_4core3ops4drop4Drop4drop
FN:17,_RNvMs6_NtNtCsQLhsInw6KB_19da_client_interface28___mock_MockDaClient_DaClient18___verify_inclusionNtB5_11Expectation4call
FN:17,_RINvMs6_NtNtCsQLhsInw6KB_19da_client_interface28___mock_MockDaClient_DaClient18___verify_inclusionNtB6_11Expectation12return_constpEBa_
FN:17,_RNCINvMs6_NtNtCsQLhsInw6KB_19da_client_interface28___mock_MockDaClient_DaClient18___verify_inclusionNtB8_11Expectation12return_constpE0Bc_
FN:17,_RINvMs6_NtNtCsQLhsInw6KB_19da_client_interface28___mock_MockDaClient_DaClient18___verify_inclusionNtB6_11Expectation15return_const_stpEBa_
FN:17,_RNCINvMs6_NtNtCsQLhsInw6KB_19da_client_interface28___mock_MockDaClient_DaClient18___verify_inclusionNtB8_11Expectation15return_const_stpE0Bc_
FN:17,_RINvMs6_NtNtCsQLhsInw6KB_19da_client_interface28___mock_MockDaClient_DaClient18___verify_inclusionNtB6_11Expectation11return_oncepEBa_
FN:17,_RINvMs6_NtNtCsQLhsInw6KB_19da_client_interface28___mock_MockDaClient_DaClient18___verify_inclusionNtB6_11Expectation14return_once_stpEBa_
FN:17,_RINvMs6_NtNtCsQLhsInw6KB_19da_client_interface28___mock_MockDaClient_DaClient18___verify_inclusionNtB6_11Expectation9returningpEBa_
FN:17,_RINvMs6_NtNtCsQLhsInw6KB_19da_client_interface28___mock_MockDaClient_DaClient18___verify_inclusionNtB6_11Expectation12returning_stpEBa_
FN:17,_RNvMs6_NtNtCsQLhsInw6KB_19da_client_interface28___mock_MockDaClient_DaClient18___verify_inclusionNtB5_11Expectation11in_sequence
FN:17,_RNvMs6_NtNtCsQLhsInw6KB_19da_client_interface28___mock_MockDaClient_DaClient18___verify_inclusionNtB5_11Expectation7is_done
FN:17,_RNvMs6_NtNtCsQLhsInw6KB_19da_client_interface28___mock_MockDaClient_DaClient18___verify_inclusionNtB5_11Expectation7matches
FN:17,_RNvMs6_NtNtCsQLhsInw6KB_19da_client_interface28___mock_MockDaClient_DaClient18___verify_inclusionNtB5_11Expectation5never
FN:17,_RNvMs6_NtNtCsQLhsInw6KB_19da_client_interface28___mock_MockDaClient_DaClient18___verify_inclusionNtB5_11Expectation3new
FN:17,_RNvMs6_NtNtCsQLhsInw6KB_19da_client_interface28___mock_MockDaClient_DaClient18___verify_inclusionNtB5_11Expectation4once
FN:17,_RINvMs6_NtNtCsQLhsInw6KB_19da_client_interface28___mock_MockDaClient_DaClient18___verify_inclusionNtB6_11Expectation5timespEBa_
FN:17,_RINvMs6_NtNtCsQLhsInw6KB_19da_client_interface28___mock_MockDaClient_DaClient18___verify_inclusionNtB6_11Expectation4withpEBa_
FN:17,_RINvMs6_NtNtCsQLhsInw6KB_19da_client_interface28___mock_MockDaClient_DaClient18___verify_inclusionNtB6_11Expectation5withfpEBa_
FN:17,_RINvMs6_NtNtCsQLhsInw6KB_19da_client_interface28___mock_MockDaClient_DaClient18___verify_inclusionNtB6_11Expectation8withf_stpEBa_
FN:17,_RNvXs7_NtNtCsQLhsInw6KB_19da_client_interface28___mock_MockDaClient_DaClient18___verify_inclusionNtB5_11ExpectationNtNtCsl82brYPINY5_4core7default7Default7default
FN:17,_RNvMs8_NtNtCsQLhsInw6KB_19da_client_interface28___mock_MockDaClient_DaClient18___verify_inclusionNtB5_12Expectations10checkpoint
FN:17,_RNvMs8_NtNtCsQLhsInw6KB_19da_client_interface28___mock_MockDaClient_DaClient18___verify_inclusionNtB5_12Expectations6expect
FN:17,_RNvMs8_NtNtCsQLhsInw6KB_19da_client_interface28___mock_MockDaClient_DaClient18___verify_inclusionNtB5_12Expectations3new
FN:17,_RNvXs9_NtNtCsQLhsInw6KB_19da_client_interface28___mock_MockDaClient_DaClient18___verify_inclusionNtB5_12ExpectationsNtNtCsl82brYPINY5_4core7default7Default7default
FN:17,_RNvMsa_NtNtCsQLhsInw6KB_19da_client_interface28___mock_MockDaClient_DaClient18___verify_inclusionNtB5_12Expectations4call
FN:17,_RNCNvMsa_NtNtCsQLhsInw6KB_19da_client_interface28___mock_MockDaClient_DaClient18___verify_inclusionNtB7_12Expectations4call0Bb_
FN:17,_RNCNvMsa_NtNtCsQLhsInw6KB_19da_client_interface28___mock_MockDaClient_DaClient18___verify_inclusionNtB7_12Expectations4calls_0Bb_
FN:17,_RNvMNtNtCsQLhsInw6KB_19da_client_interface28___mock_MockDaClient_DaClient18___max_blob_per_txnNtB2_5Rfunc8call_mut
FN:17,_RNvXs_NtNtCsQLhsInw6KB_19da_client_interface28___mock_MockDaClient_DaClient18___max_blob_per_txnNtB4_5RfuncNtNtCsl82brYPINY5_4core7default7Default7default
FN:17,_RNvMs0_NtNtCsQLhsInw6KB_19da_client_interface28___mock_MockDaClient_DaClient18___max_blob_per_txnNtB5_7Matcher7matches
FN:17,_RNCNvMs0_NtNtCsQLhsInw6KB_19da_client_interface28___mock_MockDaClient_DaClient18___max_blob_per_txnNtB7_7Matcher7matches0Bb_
FN:17,_RNvXs1_NtNtCsQLhsInw6KB_19da_client_interface28___mock_MockDaClient_DaClient18___max_blob_per_txnNtB5_7MatcherNtNtCsl82brYPINY5_4core7default7Default7default
FN:17,_RNvXs2_NtNtCsQLhsInw6KB_19da_client_interface28___mock_MockDaClient_DaClient18___max_blob_per_txnNtB5_7MatcherNtNtCsl82brYPINY5_4core3fmt7Display3fmt
FN:17,_RNvXs3_NtNtCsQLhsInw6KB_19da_client_interface28___mock_MockDaClient_DaClient18___max_blob_per_txnNtB5_6CommonNtNtCsl82brYPINY5_4core7default7Default7default
FN:17,_RNvMs4_NtNtCsQLhsInw6KB_19da_client_interface28___mock_MockDaClient_DaClient18___max_blob_per_txnNtB5_6Common4call
FN:17,_RNvMs4_NtNtCsQLhsInw6KB_19da_client_interface28___mock_MockDaClient_DaClient18___max_blob_per_txnNtB5_6Common11in_sequence
FN:17,_RNvMs4_NtNtCsQLhsInw6KB_19da_client_interface28___mock_MockDaClient_DaClient18___max_blob_per_txnNtB5_6Common7is_done
FN:17,_RNvMs4_NtNtCsQLhsInw6KB_19da_client_interface28___mock_MockDaClient_DaClient18___max_blob_per_txnNtB5_6Common7matches
FN:17,_RNvMs4_NtNtCsQLhsInw6KB_19da_client_interface28___mock_MockDaClient_DaClient18___max_blob_per_txnNtB5_6Common5never
FN:17,_RNvMs4_NtNtCsQLhsInw6KB_19da_client_interface28___mock_MockDaClient_DaClient18___max_blob_per_txnNtB5_6Common16satisfy_sequence
FN:17,_RINvMs4_NtNtCsQLhsInw6KB_19da_client_interface28___mock_MockDaClient_DaClient18___max_blob_per_txnNtB6_6Common5timespEBa_
FN:17,_RNvMs4_NtNtCsQLhsInw6KB_19da_client_interface28___mock_MockDaClient_DaClient18___max_blob_per_txnNtB5_6Common4with
FN:17,_RINvMs4_NtNtCsQLhsInw6KB_19da_client_interface28___mock_MockDaClient_DaClient18___max_blob_per_txnNtB6_6Common5withfpEBa_
FN:17,_RINvMs4_NtNtCsQLhsInw6KB_19da_client_interface28___mock_MockDaClient_DaClient18___max_blob_per_txnNtB6_6Common8withf_stpEBa_
FN:17,_RNvMs4_NtNtCsQLhsInw6KB_19da_client_interface28___mock_MockDaClient_DaClient18___max_blob_per_txnNtB5_6Common15verify_sequence
FN:17,_RNvXs5_NtNtCsQLhsInw6KB_19da_client_interface28___mock_MockDaClient_DaClient18___max_blob_per_txnNtB5_6CommonNtNtNtCsl82brYPINY5_4core3ops4drop4Drop4drop
FN:17,_RNvMs6_NtNtCsQLhsInw6KB_19da_client_interface28___mock_MockDaClient_DaClient18___max_blob_per_txnNtB5_11Expectation4call
FN:17,_RINvMs6_NtNtCsQLhsInw6KB_19da_client_interface28___mock_MockDaClient_DaClient18___max_blob_per_txnNtB6_11Expectation12return_constpEBa_
FN:17,_RNCINvMs6_NtNtCsQLhsInw6KB_19da_client_interface28___mock_MockDaClient_DaClient18___max_blob_per_txnNtB8_11Expectation12return_constpE0Bc_
FN:17,_RINvMs6_NtNtCsQLhsInw6KB_19da_client_interface28___mock_MockDaClient_DaClient18___max_blob_per_txnNtB6_11Expectation15return_const_stpEBa_
FN:17,_RNCINvMs6_NtNtCsQLhsInw6KB_19da_client_interface28___mock_MockDaClient_DaClient18___max_blob_per_txnNtB8_11Expectation15return_const_stpE0Bc_
FN:17,_RINvMs6_NtNtCsQLhsInw6KB_19da_client_interface28___mock_MockDaClient_DaClient18___max_blob_per_txnNtB6_11Expectation11return_oncepEBa_
FN:17,_RINvMs6_NtNtCsQLhsInw6KB_19da_client_interface28___mock_MockDaClient_DaClient18___max_blob_per_txnNtB6_11Expectation14return_once_stpEBa_
FN:17,_RINvMs6_NtNtCsQLhsInw6KB_19da_client_interface28___mock_MockDaClient_DaClient18___max_blob_per_txnNtB6_11Expectation9returningpEBa_
FN:17,_RINvMs6_NtNtCsQLhsInw6KB_19da_client_interface28___mock_MockDaClient_DaClient18___max_blob_per_txnNtB6_11Expectation12returning_stpEBa_
FN:17,_RNvMs6_NtNtCsQLhsInw6KB_19da_client_interface28___mock_MockDaClient_DaClient18___max_blob_per_txnNtB5_11Expectation11in_sequence
FN:17,_RNvMs6_NtNtCsQLhsInw6KB_19da_client_interface28___mock_MockDaClient_DaClient18___max_blob_per_txnNtB5_11Expectation7is_done
FN:17,_RNvMs6_NtNtCsQLhsInw6KB_19da_client_interface28___mock_MockDaClient_DaClient18___max_blob_per_txnNtB5_11Expectation7matches
FN:17,_RNvMs6_NtNtCsQLhsInw6KB_19da_client_interface28___mock_MockDaClient_DaClient18___max_blob_per_txnNtB5_11Expectation5never
FN:17,_RNvMs6_NtNtCsQLhsInw6KB_19da_client_interface28___mock_MockDaClient_DaClient18___max_blob_per_txnNtB5_11Expectation3new
FN:17,_RNvMs6_NtNtCsQLhsInw6KB_19da_client_interface28___mock_MockDaClient_DaClient18___max_blob_per_txnNtB5_11Expectation4once
FN:17,_RINvMs6_NtNtCsQLhsInw6KB_19da_client_interface28___mock_MockDaClient_DaClient18___max_blob_per_txnNtB6_11Expectation5timespEBa_
FN:17,_RNvMs6_NtNtCsQLhsInw6KB_19da_client_interface28___mock_MockDaClient_DaClient18___max_blob_per_txnNtB5_11Expectation4with
FN:17,_RINvMs6_NtNtCsQLhsInw6KB_19da_client_interface28___mock_MockDaClient_DaClient18___max_blob_per_txnNtB6_11Expectation5withfpEBa_
FN:17,_RINvMs6_NtNtCsQLhsInw6KB_19da_client_interface28___mock_MockDaClient_DaClient18___max_blob_per_txnNtB6_11Expectation8withf_stpEBa_
FN:17,_RNvXs7_NtNtCsQLhsInw6KB_19da_client_interface28___mock_MockDaClient_DaClient18___max_blob_per_txnNtB5_11ExpectationNtNtCsl82brYPINY5_4core7default7Default7default
FN:17,_RNvMs8_NtNtCsQLhsInw6KB_19da_client_interface28___mock_MockDaClient_DaClient18___max_blob_per_txnNtB5_12Expectations10checkpoint
FN:17,_RNvMs8_NtNtCsQLhsInw6KB_19da_client_interface28___mock_MockDaClient_DaClient18___max_blob_per_txnNtB5_12Expectations6expect
FN:17,_RNvMs8_NtNtCsQLhsInw6KB_19da_client_interface28___mock_MockDaClient_DaClient18___max_blob_per_txnNtB5_12Expectations3new
FN:17,_RNvXs9_NtNtCsQLhsInw6KB_19da_client_interface28___mock_MockDaClient_DaClient18___max_blob_per_txnNtB5_12ExpectationsNtNtCsl82brYPINY5_4core7default7Default7default
FN:17,_RNvMsa_NtNtCsQLhsInw6KB_19da_client_interface28___mock_MockDaClient_DaClient18___max_blob_per_txnNtB5_12Expectations4call
FN:17,_RNCNvMsa_NtNtCsQLhsInw6KB_19da_client_interface28___mock_MockDaClient_DaClient18___max_blob_per_txnNtB7_12Expectations4call0Bb_
FN:17,_RNCNvMsa_NtNtCsQLhsInw6KB_19da_client_interface28___mock_MockDaClient_DaClient18___max_blob_per_txnNtB7_12Expectations4calls_0Bb_
FN:17,_RNvMNtNtCsQLhsInw6KB_19da_client_interface28___mock_MockDaClient_DaClient20___max_bytes_per_blobNtB2_5Rfunc8call_mut
FN:17,_RNvXs_NtNtCsQLhsInw6KB_19da_client_interface28___mock_MockDaClient_DaClient20___max_bytes_per_blobNtB4_5RfuncNtNtCsl82brYPINY5_4core7default7Default7default
FN:17,_RNvMs0_NtNtCsQLhsInw6KB_19da_client_interface28___mock_MockDaClient_DaClient20___max_bytes_per_blobNtB5_7Matcher7matches
FN:17,_RNCNvMs0_NtNtCsQLhsInw6KB_19da_client_interface28___mock_MockDaClient_DaClient20___max_bytes_per_blobNtB7_7Matcher7matches0Bb_
FN:17,_RNvXs1_NtNtCsQLhsInw6KB_19da_client_interface28___mock_MockDaClient_DaClient20___max_bytes_per_blobNtB5_7MatcherNtNtCsl82brYPINY5_4core7default7Default7default
FN:17,_RNvXs2_NtNtCsQLhsInw6KB_19da_client_interface28___mock_MockDaClient_DaClient20___max_bytes_per_blobNtB5_7MatcherNtNtCsl82brYPINY5_4core3fmt7Display3fmt
FN:17,_RNvXs3_NtNtCsQLhsInw6KB_19da_client_interface28___mock_MockDaClient_DaClient20___max_bytes_per_blobNtB5_6CommonNtNtCsl82brYPINY5_4core7default7Default7default
FN:17,_RNvMs4_NtNtCsQLhsInw6KB_19da_client_interface28___mock_MockDaClient_DaClient20___max_bytes_per_blobNtB5_6Common4call
FN:17,_RNvMs4_NtNtCsQLhsInw6KB_19da_client_interface28___mock_MockDaClient_DaClient20___max_bytes_per_blobNtB5_6Common11in_sequence
FN:17,_RNvMs4_NtNtCsQLhsInw6KB_19da_client_interface28___mock_MockDaClient_DaClient20___max_bytes_per_blobNtB5_6Common7is_done
FN:17,_RNvMs4_NtNtCsQLhsInw6KB_19da_client_interface28___mock_MockDaClient_DaClient20___max_bytes_per_blobNtB5_6Common7matches
FN:17,_RNvMs4_NtNtCsQLhsInw6KB_19da_client_interface28___mock_MockDaClient_DaClient20___max_bytes_per_blobNtB5_6Common5never
FN:17,_RNvMs4_NtNtCsQLhsInw6KB_19da_client_interface28___mock_MockDaClient_DaClient20___max_bytes_per_blobNtB5_6Common16satisfy_sequence
FN:17,_RINvMs4_NtNtCsQLhsInw6KB_19da_client_interface28___mock_MockDaClient_DaClient20___max_bytes_per_blobNtB6_6Common5timespEBa_
FN:17,_RNvMs4_NtNtCsQLhsInw6KB_19da_client_interface28___mock_MockDaClient_DaClient20___max_bytes_per_blobNtB5_6Common4with
FN:17,_RINvMs4_NtNtCsQLhsInw6KB_19da_client_interface28___mock_MockDaClient_DaClient20___max_bytes_per_blobNtB6_6Common5withfpEBa_
FN:17,_RINvMs4_NtNtCsQLhsInw6KB_19da_client_interface28___mock_MockDaClient_DaClient20___max_bytes_per_blobNtB6_6Common8withf_stpEBa_
FN:17,_RNvMs4_NtNtCsQLhsInw6KB_19da_client_interface28___mock_MockDaClient_DaClient20___max_bytes_per_blobNtB5_6Common15verify_sequence
FN:17,_RNvXs5_NtNtCsQLhsInw6KB_19da_client_interface28___mock_MockDaClient_DaClient20___max_bytes_per_blobNtB5_6CommonNtNtNtCsl82brYPINY5_4core3ops4drop4Drop4drop
FN:17,_RNvMs6_NtNtCsQLhsInw6KB_19da_client_interface28___mock_MockDaClient_DaClient20___max_bytes_per_blobNtB5_11Expectation4call
FN:17,_RINvMs6_NtNtCsQLhsInw6KB_19da_client_interface28___mock_MockDaClient_DaClient20___max_bytes_per_blobNtB6_11Expectation12return_constpEBa_
FN:17,_RNCINvMs6_NtNtCsQLhsInw6KB_19da_client_interface28___mock_MockDaClient_DaClient20___max_bytes_per_blobNtB8_11Expectation12return_constpE0Bc_
FN:17,_RINvMs6_NtNtCsQLhsInw6KB_19da_client_interface28___mock_MockDaClient_DaClient20___max_bytes_per_blobNtB6_11Expectation15return_const_stpEBa_
FN:17,_RNCINvMs6_NtNtCsQLhsInw6KB_19da_client_interface28___mock_MockDaClient_DaClient20___max_bytes_per_blobNtB8_11Expectation15return_const_stpE0Bc_
FN:17,_RINvMs6_NtNtCsQLhsInw6KB_19da_client_interface28___mock_MockDaClient_DaClient20___max_bytes_per_blobNtB6_11Expectation11return_oncepEBa_
FN:17,_RINvMs6_NtNtCsQLhsInw6KB_19da_client_interface28___mock_MockDaClient_DaClient20___max_bytes_per_blobNtB6_11Expectation14return_once_stpEBa_
FN:17,_RINvMs6_NtNtCsQLhsInw6KB_19da_client_interface28___mock_MockDaClient_DaClient20___max_bytes_per_blobNtB6_11Expectation9returningpEBa_
FN:17,_RINvMs6_NtNtCsQLhsInw6KB_19da_client_interface28___mock_MockDaClient_DaClient20___max_bytes_per_blobNtB6_11Expectation12returning_stpEBa_
FN:17,_RNvMs6_NtNtCsQLhsInw6KB_19da_client_interface28___mock_MockDaClient_DaClient20___max_bytes_per_blobNtB5_11Expectation11in_sequence
FN:17,_RNvMs6_NtNtCsQLhsInw6KB_19da_client_interface28___mock_MockDaClient_DaClient20___max_bytes_per_blobNtB5_11Expectation7is_done
FN:17,_RNvMs6_NtNtCsQLhsInw6KB_19da_client_interface28___mock_MockDaClient_DaClient20___max_bytes_per_blobNtB5_11Expectation7matches
FN:17,_RNvMs6_NtNtCsQLhsInw6KB_19da_client_interface28___mock_MockDaClient_DaClient20___max_bytes_per_blobNtB5_11Expectation5never
FN:17,_RNvMs6_NtNtCsQLhsInw6KB_19da_client_interface28___mock_MockDaClient_DaClient20___max_bytes_per_blobNtB5_11Expectation3new
FN:17,_RNvMs6_NtNtCsQLhsInw6KB_19da_client_interface28___mock_MockDaClient_DaClient20___max_bytes_per_blobNtB5_11Expectation4once
FN:17,_RINvMs6_NtNtCsQLhsInw6KB_19da_client_interface28___mock_MockDaClient_DaClient20___max_bytes_per_blobNtB6_11Expectation5timespEBa_
FN:17,_RNvMs6_NtNtCsQLhsInw6KB_19da_client_interface28___mock_MockDaClient_DaClient20___max_bytes_per_blobNtB5_11Expectation4with
FN:17,_RINvMs6_NtNtCsQLhsInw6KB_19da_client_interface28___mock_MockDaClient_DaClient20___max_bytes_per_blobNtB6_11Expectation5withfpEBa_
FN:17,_RINvMs6_NtNtCsQLhsInw6KB_19da_client_interface28___mock_MockDaClient_DaClient20___max_bytes_per_blobNtB6_11Expectation8withf_stpEBa_
FN:17,_RNvXs7_NtNtCsQLhsInw6KB_19da_client_interface28___mock_MockDaClient_DaClient20___max_bytes_per_blobNtB5_11ExpectationNtNtCsl82brYPINY5_4core7default7Default7default
FN:17,_RNvMs8_NtNtCsQLhsInw6KB_19da_client_interface28___mock_MockDaClient_DaClient20___max_bytes_per_blobNtB5_12Expectations10checkpoint
FN:17,_RNvMs8_NtNtCsQLhsInw6KB_19da_client_interface28___mock_MockDaClient_DaClient20___max_bytes_per_blobNtB5_12Expectations6expect
FN:17,_RNvMs8_NtNtCsQLhsInw6KB_19da_client_interface28___mock_MockDaClient_DaClient20___max_bytes_per_blobNtB5_12Expectations3new
FN:17,_RNvXs9_NtNtCsQLhsInw6KB_19da_client_interface28___mock_MockDaClient_DaClient20___max_bytes_per_blobNtB5_12ExpectationsNtNtCsl82brYPINY5_4core7default7Default7default
FN:17,_RNvMsa_NtNtCsQLhsInw6KB_19da_client_interface28___mock_MockDaClient_DaClient20___max_bytes_per_blobNtB5_12Expectations4call
FN:17,_RNCNvMsa_NtNtCsQLhsInw6KB_19da_client_interface28___mock_MockDaClient_DaClient20___max_bytes_per_blobNtB7_12Expectations4call0Bb_
FN:17,_RNCNvMsa_NtNtCsQLhsInw6KB_19da_client_interface28___mock_MockDaClient_DaClient20___max_bytes_per_blobNtB7_12Expectations4calls_0Bb_
FN:17,_RNvXs5_CsQLhsInw6KB_19da_client_interfaceNtB5_21MockDaClient_DaClientNtNtCsl82brYPINY5_4core7default7Default7default
FN:17,_RNvMs6_CsQLhsInw6KB_19da_client_interfaceNtB5_21MockDaClient_DaClient10checkpoint
FN:17,_RNvMs7_CsQLhsInw6KB_19da_client_interfaceNtB5_12MockDaClient10checkpoint
FN:17,_RNvMs7_CsQLhsInw6KB_19da_client_interfaceNtB5_12MockDaClient3new
FN:17,_RNvXs9_CsQLhsInw6KB_19da_client_interfaceNtB5_12MockDaClientNtB5_8DaClient18publish_state_diff
FN:17,_RNCNvXs9_CsQLhsInw6KB_19da_client_interfaceNtB7_12MockDaClientNtB7_8DaClient18publish_state_diff0B7_
FN:17,_RNvXs9_CsQLhsInw6KB_19da_client_interfaceNtB5_12MockDaClientNtB5_8DaClient16verify_inclusion
FN:17,_RNCNvXs9_CsQLhsInw6KB_19da_client_interfaceNtB7_12MockDaClientNtB7_8DaClient16verify_inclusion0B7_
FN:17,_RNvXs9_CsQLhsInw6KB_19da_client_interfaceNtB5_12MockDaClientNtB5_8DaClient16max_blob_per_txn
FN:17,_RNCNvXs9_CsQLhsInw6KB_19da_client_interfaceNtB7_12MockDaClientNtB7_8DaClient16max_blob_per_txn0B7_
FN:17,_RNvXs9_CsQLhsInw6KB_19da_client_interfaceNtB5_12MockDaClientNtB5_8DaClient18max_bytes_per_blob
FN:17,_RNCNvXs9_CsQLhsInw6KB_19da_client_interfaceNtB7_12MockDaClientNtB7_8DaClient18max_bytes_per_blob0B7_
FN:17,_RNvMs8_CsQLhsInw6KB_19da_client_interfaceNtB5_12MockDaClient25expect_publish_state_diff
FN:17,_RNvMs8_CsQLhsInw6KB_19da_client_interfaceNtB5_12MockDaClient23expect_verify_inclusion
FN:17,_RNvMs8_CsQLhsInw6KB_19da_client_interfaceNtB5_12MockDaClient23expect_max_blob_per_txn
FN:17,_RNvMs8_CsQLhsInw6KB_19da_client_interfaceNtB5_12MockDaClient25expect_max_bytes_per_blob
FN:17,_RNvMs7_Csd2a39Kes4Ul_19da_client_interfaceNtB5_12MockDaClient3new
FN:17,_RNvXs4_Csd2a39Kes4Ul_19da_client_interfaceNtB5_12MockDaClientNtNtCsl82brYPINY5_4core7default7Default7default
FN:17,_RNvXs5_Csd2a39Kes4Ul_19da_client_interfaceNtB5_21MockDaClient_DaClientNtNtCsl82brYPINY5_4core7default7Default7default
FN:17,_RNvXs9_NtNtCsd2a39Kes4Ul_19da_client_interface28___mock_MockDaClient_DaClient20___publish_state_diffNtB5_12ExpectationsNtNtCsl82brYPINY5_4core7default7Default7default
FN:17,_RNvXs9_NtNtCsd2a39Kes4Ul_19da_client_interface28___mock_MockDaClient_DaClient18___verify_inclusionNtB5_12ExpectationsNtNtCsl82brYPINY5_4core7default7Default7default
FN:17,_RNvXs9_NtNtCsd2a39Kes4Ul_19da_client_interface28___mock_MockDaClient_DaClient18___max_blob_per_txnNtB5_12ExpectationsNtNtCsl82brYPINY5_4core7default7Default7default
FN:17,_RNvXs9_NtNtCsd2a39Kes4Ul_19da_client_interface28___mock_MockDaClient_DaClient20___max_bytes_per_blobNtB5_12ExpectationsNtNtCsl82brYPINY5_4core7default7Default7default
FN:17,_RINvMs6_NtNtCsd2a39Kes4Ul_19da_client_interface28___mock_MockDaClient_DaClient18___max_blob_per_txnNtB6_11Expectation5timesjECsf72If0ieCLb_12orchestrator
FN:17,_RINvMs4_NtNtCsd2a39Kes4Ul_19da_client_interface28___mock_MockDaClient_DaClient18___max_blob_per_txnNtB6_6Common5timesjECsf72If0ieCLb_12orchestrator
FN:17,_RINvMs6_NtNtCsd2a39Kes4Ul_19da_client_interface28___mock_MockDaClient_DaClient18___max_blob_per_txnNtB6_11Expectation9returningNCNCNvNCNvNtNtNtCsf72If0ieCLb_12orchestrator5tests4jobs6da_jobs_16test_process_job016test_process_job0s0_0EB2h_
FN:17,_RINvMs6_NtNtCsd2a39Kes4Ul_19da_client_interface28___mock_MockDaClient_DaClient18___verify_inclusionNtB6_11Expectation5timesjECsf72If0ieCLb_12orchestrator
FN:17,_RINvMs4_NtNtCsd2a39Kes4Ul_19da_client_interface28___mock_MockDaClient_DaClient18___verify_inclusionNtB6_6Common5timesjECsf72If0ieCLb_12orchestrator
FN:17,_RINvMs6_NtNtCsd2a39Kes4Ul_19da_client_interface28___mock_MockDaClient_DaClient18___verify_inclusionNtB6_11Expectation9returningNCNCNvNCNvNtNtNtCsf72If0ieCLb_12orchestrator5tests4jobs6da_jobs_15test_verify_job015test_verify_job00EB2h_
FN:17,_RINvMs6_NtNtCsd2a39Kes4Ul_19da_client_interface28___mock_MockDaClient_DaClient20___max_bytes_per_blobNtB6_11Expectation5timesjECsf72If0ieCLb_12orchestrator
FN:17,_RINvMs4_NtNtCsd2a39Kes4Ul_19da_client_interface28___mock_MockDaClient_DaClient20___max_bytes_per_blobNtB6_6Common5timesjECsf72If0ieCLb_12orchestrator
FN:17,_RINvMs6_NtNtCsd2a39Kes4Ul_19da_client_interface28___mock_MockDaClient_DaClient20___max_bytes_per_blobNtB6_11Expectation9returningNCNCNvNCNvNtNtNtCsf72If0ieCLb_12orchestrator5tests4jobs6da_jobs_16test_process_job016test_process_job0s_0EB2j_
FN:17,_RINvMs6_NtNtCsd2a39Kes4Ul_19da_client_interface28___mock_MockDaClient_DaClient20___publish_state_diffNtB6_11Expectation5timesjECsf72If0ieCLb_12orchestrator
FN:17,_RINvMs4_NtNtCsd2a39Kes4Ul_19da_client_interface28___mock_MockDaClient_DaClient20___publish_state_diffNtB6_6Common5timesjECsf72If0ieCLb_12orchestrator
FN:17,_RINvMs6_NtNtCsd2a39Kes4Ul_19da_client_interface28___mock_MockDaClient_DaClient20___publish_state_diffNtB6_11Expectation9returningNCNCNvNCNvNtNtNtCsf72If0ieCLb_12orchestrator5tests4jobs6da_jobs_16test_process_job016test_process_job00EB2j_
FN:17,_RNvXs3_Csd2a39Kes4Ul_19da_client_interfaceNtB5_12MockDaClientNtNtCsl82brYPINY5_4core3fmt5Debug3fmt
FN:17,_RNvMs6_Csd2a39Kes4Ul_19da_client_interfaceNtB5_21MockDaClient_DaClient10checkpoint
FN:17,_RNvMs7_Csd2a39Kes4Ul_19da_client_interfaceNtB5_12MockDaClient10checkpoint
FN:17,_RNvMs8_Csd2a39Kes4Ul_19da_client_interfaceNtB5_12MockDaClient25expect_publish_state_diff
FN:17,_RNvMs8_Csd2a39Kes4Ul_19da_client_interfaceNtB5_12MockDaClient23expect_verify_inclusion
FN:17,_RNvMs8_Csd2a39Kes4Ul_19da_client_interfaceNtB5_12MockDaClient23expect_max_blob_per_txn
FN:17,_RNvMs8_Csd2a39Kes4Ul_19da_client_interfaceNtB5_12MockDaClient25expect_max_bytes_per_blob
FN:17,_RNvXs9_Csd2a39Kes4Ul_19da_client_interfaceNtB5_12MockDaClientNtB5_8DaClient18publish_state_diff
FN:17,_RNCNvXs9_Csd2a39Kes4Ul_19da_client_interfaceNtB7_12MockDaClientNtB7_8DaClient18publish_state_diff0B7_
FN:17,_RNvXs9_Csd2a39Kes4Ul_19da_client_interfaceNtB5_12MockDaClientNtB5_8DaClient16verify_inclusion
FN:17,_RNCNvXs9_Csd2a39Kes4Ul_19da_client_interfaceNtB7_12MockDaClientNtB7_8DaClient16verify_inclusion0B7_
FN:17,_RNvXs9_Csd2a39Kes4Ul_19da_client_interfaceNtB5_12MockDaClientNtB5_8DaClient16max_blob_per_txn
FN:17,_RNCNvXs9_Csd2a39Kes4Ul_19da_client_interfaceNtB7_12MockDaClientNtB7_8DaClient16max_blob_per_txn0B7_
FN:17,_RNvXs9_Csd2a39Kes4Ul_19da_client_interfaceNtB5_12MockDaClientNtB5_8DaClient18max_bytes_per_blob
FN:17,_RNCNvXs9_Csd2a39Kes4Ul_19da_client_interfaceNtB7_12MockDaClientNtB7_8DaClient18max_bytes_per_blob0B7_
FN:17,_RNvMNtNtCsd2a39Kes4Ul_19da_client_interface28___mock_MockDaClient_DaClient20___publish_state_diffNtB2_5Rfunc8call_mut
FN:17,_RNvMs0_NtNtCsd2a39Kes4Ul_19da_client_interface28___mock_MockDaClient_DaClient20___publish_state_diffNtB5_7Matcher7matches
FN:17,_RNCNvMs0_NtNtCsd2a39Kes4Ul_19da_client_interface28___mock_MockDaClient_DaClient20___publish_state_diffNtB7_7Matcher7matches0Bb_
FN:17,_RNvXs2_NtNtCsd2a39Kes4Ul_19da_client_interface28___mock_MockDaClient_DaClient20___publish_state_diffNtB5_7MatcherNtNtCsl82brYPINY5_4core3fmt7Display3fmt
FN:17,_RNvMs4_NtNtCsd2a39Kes4Ul_19da_client_interface28___mock_MockDaClient_DaClient20___publish_state_diffNtB5_6Common4call
FN:17,_RNvMs4_NtNtCsd2a39Kes4Ul_19da_client_interface28___mock_MockDaClient_DaClient20___publish_state_diffNtB5_6Common11in_sequence
FN:17,_RNvMs4_NtNtCsd2a39Kes4Ul_19da_client_interface28___mock_MockDaClient_DaClient20___publish_state_diffNtB5_6Common7is_done
FN:17,_RNvMs4_NtNtCsd2a39Kes4Ul_19da_client_interface28___mock_MockDaClient_DaClient20___publish_state_diffNtB5_6Common7matches
FN:17,_RNvMs4_NtNtCsd2a39Kes4Ul_19da_client_interface28___mock_MockDaClient_DaClient20___publish_state_diffNtB5_6Common16satisfy_sequence
FN:17,_RNvMs4_NtNtCsd2a39Kes4Ul_19da_client_interface28___mock_MockDaClient_DaClient20___publish_state_diffNtB5_6Common15verify_sequence
FN:17,_RNvXs5_NtNtCsd2a39Kes4Ul_19da_client_interface28___mock_MockDaClient_DaClient20___publish_state_diffNtB5_6CommonNtNtNtCsl82brYPINY5_4core3ops4drop4Drop4drop
FN:17,_RNvMs6_NtNtCsd2a39Kes4Ul_19da_client_interface28___mock_MockDaClient_DaClient20___publish_state_diffNtB5_11Expectation4call
FN:17,_RNvMs6_NtNtCsd2a39Kes4Ul_19da_client_interface28___mock_MockDaClient_DaClient20___publish_state_diffNtB5_11Expectation11in_sequence
FN:17,_RNvMs6_NtNtCsd2a39Kes4Ul_19da_client_interface28___mock_MockDaClient_DaClient20___publish_state_diffNtB5_11Expectation7is_done
FN:17,_RNvMs6_NtNtCsd2a39Kes4Ul_19da_client_interface28___mock_MockDaClient_DaClient20___publish_state_diffNtB5_11Expectation7matches
FN:17,_RNvMs6_NtNtCsd2a39Kes4Ul_19da_client_interface28___mock_MockDaClient_DaClient20___publish_state_diffNtB5_11Expectation3new
FN:17,_RNvMs6_NtNtCsd2a39Kes4Ul_19da_client_interface28___mock_MockDaClient_DaClient20___publish_state_diffNtB5_11Expectation4once
FN:17,_RINvMs6_NtNtCsd2a39Kes4Ul_19da_client_interface28___mock_MockDaClient_DaClient20___publish_state_diffNtB6_11Expectation5timesjEBa_
FN:17,_RINvMs4_NtNtCsd2a39Kes4Ul_19da_client_interface28___mock_MockDaClient_DaClient20___publish_state_diffNtB6_6Common5timesjEBa_
FN:17,_RNvXs7_NtNtCsd2a39Kes4Ul_19da_client_interface28___mock_MockDaClient_DaClient20___publish_state_diffNtB5_11ExpectationNtNtCsl82brYPINY5_4core7default7Default7default
FN:17,_RNvXs3_NtNtCsd2a39Kes4Ul_19da_client_interface28___mock_MockDaClient_DaClient20___publish_state_diffNtB5_6CommonNtNtCsl82brYPINY5_4core7default7Default7default
FN:17,_RNvXs1_NtNtCsd2a39Kes4Ul_19da_client_interface28___mock_MockDaClient_DaClient20___publish_state_diffNtB5_7MatcherNtNtCsl82brYPINY5_4core7default7Default7default
FN:17,_RNvXs_NtNtCsd2a39Kes4Ul_19da_client_interface28___mock_MockDaClient_DaClient20___publish_state_diffNtB4_5RfuncNtNtCsl82brYPINY5_4core7default7Default7default
FN:17,_RNvMs8_NtNtCsd2a39Kes4Ul_19da_client_interface28___mock_MockDaClient_DaClient20___publish_state_diffNtB5_12Expectations10checkpoint
FN:17,_RNvMs8_NtNtCsd2a39Kes4Ul_19da_client_interface28___mock_MockDaClient_DaClient20___publish_state_diffNtB5_12Expectations6expect
FN:17,_RNvMsa_NtNtCsd2a39Kes4Ul_19da_client_interface28___mock_MockDaClient_DaClient20___publish_state_diffNtB5_12Expectations4call
FN:17,_RNCNvMsa_NtNtCsd2a39Kes4Ul_19da_client_interface28___mock_MockDaClient_DaClient20___publish_state_diffNtB7_12Expectations4calls_0Bb_
FN:17,_RNCNvMsa_NtNtCsd2a39Kes4Ul_19da_client_interface28___mock_MockDaClient_DaClient20___publish_state_diffNtB7_12Expectations4call0Bb_
FN:17,_RNvMNtNtCsd2a39Kes4Ul_19da_client_interface28___mock_MockDaClient_DaClient20___max_bytes_per_blobNtB2_5Rfunc8call_mut
FN:17,_RNvMs0_NtNtCsd2a39Kes4Ul_19da_client_interface28___mock_MockDaClient_DaClient20___max_bytes_per_blobNtB5_7Matcher7matches
FN:17,_RNCNvMs0_NtNtCsd2a39Kes4Ul_19da_client_interface28___mock_MockDaClient_DaClient20___max_bytes_per_blobNtB7_7Matcher7matches0Bb_
FN:17,_RNvXs2_NtNtCsd2a39Kes4Ul_19da_client_interface28___mock_MockDaClient_DaClient20___max_bytes_per_blobNtB5_7MatcherNtNtCsl82brYPINY5_4core3fmt7Display3fmt
FN:17,_RNvMs4_NtNtCsd2a39Kes4Ul_19da_client_interface28___mock_MockDaClient_DaClient20___max_bytes_per_blobNtB5_6Common4call
FN:17,_RNvMs4_NtNtCsd2a39Kes4Ul_19da_client_interface28___mock_MockDaClient_DaClient20___max_bytes_per_blobNtB5_6Common11in_sequence
FN:17,_RNvMs4_NtNtCsd2a39Kes4Ul_19da_client_interface28___mock_MockDaClient_DaClient20___max_bytes_per_blobNtB5_6Common7is_done
FN:17,_RNvMs4_NtNtCsd2a39Kes4Ul_19da_client_interface28___mock_MockDaClient_DaClient20___max_bytes_per_blobNtB5_6Common7matches
FN:17,_RNvMs4_NtNtCsd2a39Kes4Ul_19da_client_interface28___mock_MockDaClient_DaClient20___max_bytes_per_blobNtB5_6Common16satisfy_sequence
FN:17,_RNvMs4_NtNtCsd2a39Kes4Ul_19da_client_interface28___mock_MockDaClient_DaClient20___max_bytes_per_blobNtB5_6Common4with
FN:17,_RNvMs4_NtNtCsd2a39Kes4Ul_19da_client_interface28___mock_MockDaClient_DaClient20___max_bytes_per_blobNtB5_6Common15verify_sequence
FN:17,_RNvXs5_NtNtCsd2a39Kes4Ul_19da_client_interface28___mock_MockDaClient_DaClient20___max_bytes_per_blobNtB5_6CommonNtNtNtCsl82brYPINY5_4core3ops4drop4Drop4drop
FN:17,_RNvMs6_NtNtCsd2a39Kes4Ul_19da_client_interface28___mock_MockDaClient_DaClient20___max_bytes_per_blobNtB5_11Expectation4call
FN:17,_RNvMs6_NtNtCsd2a39Kes4Ul_19da_client_interface28___mock_MockDaClient_DaClient20___max_bytes_per_blobNtB5_11Expectation11in_sequence
FN:17,_RNvMs6_NtNtCsd2a39Kes4Ul_19da_client_interface28___mock_MockDaClient_DaClient20___max_bytes_per_blobNtB5_11Expectation7is_done
FN:17,_RNvMs6_NtNtCsd2a39Kes4Ul_19da_client_interface28___mock_MockDaClient_DaClient20___max_bytes_per_blobNtB5_11Expectation7matches
FN:17,_RNvMs6_NtNtCsd2a39Kes4Ul_19da_client_interface28___mock_MockDaClient_DaClient20___max_bytes_per_blobNtB5_11Expectation3new
FN:17,_RNvMs6_NtNtCsd2a39Kes4Ul_19da_client_interface28___mock_MockDaClient_DaClient20___max_bytes_per_blobNtB5_11Expectation4once
FN:17,_RINvMs6_NtNtCsd2a39Kes4Ul_19da_client_interface28___mock_MockDaClient_DaClient20___max_bytes_per_blobNtB6_11Expectation5timesjEBa_
FN:17,_RINvMs4_NtNtCsd2a39Kes4Ul_19da_client_interface28___mock_MockDaClient_DaClient20___max_bytes_per_blobNtB6_6Common5timesjEBa_
FN:17,_RNvMs6_NtNtCsd2a39Kes4Ul_19da_client_interface28___mock_MockDaClient_DaClient20___max_bytes_per_blobNtB5_11Expectation4with
FN:17,_RNvXs7_NtNtCsd2a39Kes4Ul_19da_client_interface28___mock_MockDaClient_DaClient20___max_bytes_per_blobNtB5_11ExpectationNtNtCsl82brYPINY5_4core7default7Default7default
FN:17,_RNvXs3_NtNtCsd2a39Kes4Ul_19da_client_interface28___mock_MockDaClient_DaClient20___max_bytes_per_blobNtB5_6CommonNtNtCsl82brYPINY5_4core7default7Default7default
FN:17,_RNvXs1_NtNtCsd2a39Kes4Ul_19da_client_interface28___mock_MockDaClient_DaClient20___max_bytes_per_blobNtB5_7MatcherNtNtCsl82brYPINY5_4core7default7Default7default
FN:17,_RNvXs_NtNtCsd2a39Kes4Ul_19da_client_interface28___mock_MockDaClient_DaClient20___max_bytes_per_blobNtB4_5RfuncNtNtCsl82brYPINY5_4core7default7Default7default
FN:17,_RNvMs8_NtNtCsd2a39Kes4Ul_19da_client_interface28___mock_MockDaClient_DaClient20___max_bytes_per_blobNtB5_12Expectations10checkpoint
FN:17,_RNvMs8_NtNtCsd2a39Kes4Ul_19da_client_interface28___mock_MockDaClient_DaClient20___max_bytes_per_blobNtB5_12Expectations6expect
FN:17,_RNvMsa_NtNtCsd2a39Kes4Ul_19da_client_interface28___mock_MockDaClient_DaClient20___max_bytes_per_blobNtB5_12Expectations4call
FN:17,_RNCNvMsa_NtNtCsd2a39Kes4Ul_19da_client_interface28___mock_MockDaClient_DaClient20___max_bytes_per_blobNtB7_12Expectations4calls_0Bb_
FN:17,_RNCNvMsa_NtNtCsd2a39Kes4Ul_19da_client_interface28___mock_MockDaClient_DaClient20___max_bytes_per_blobNtB7_12Expectations4call0Bb_
FN:17,_RNvMNtNtCsd2a39Kes4Ul_19da_client_interface28___mock_MockDaClient_DaClient18___max_blob_per_txnNtB2_5Rfunc8call_mut
FN:17,_RNvMs0_NtNtCsd2a39Kes4Ul_19da_client_interface28___mock_MockDaClient_DaClient18___max_blob_per_txnNtB5_7Matcher7matches
FN:17,_RNCNvMs0_NtNtCsd2a39Kes4Ul_19da_client_interface28___mock_MockDaClient_DaClient18___max_blob_per_txnNtB7_7Matcher7matches0Bb_
FN:17,_RNvXs2_NtNtCsd2a39Kes4Ul_19da_client_interface28___mock_MockDaClient_DaClient18___max_blob_per_txnNtB5_7MatcherNtNtCsl82brYPINY5_4core3fmt7Display3fmt
FN:17,_RNvMs4_NtNtCsd2a39Kes4Ul_19da_client_interface28___mock_MockDaClient_DaClient18___max_blob_per_txnNtB5_6Common4call
FN:17,_RNvMs4_NtNtCsd2a39Kes4Ul_19da_client_interface28___mock_MockDaClient_DaClient18___max_blob_per_txnNtB5_6Common11in_sequence
FN:17,_RNvMs4_NtNtCsd2a39Kes4Ul_19da_client_interface28___mock_MockDaClient_DaClient18___max_blob_per_txnNtB5_6Common7is_done
FN:17,_RNvMs4_NtNtCsd2a39Kes4Ul_19da_client_interface28___mock_MockDaClient_DaClient18___max_blob_per_txnNtB5_6Common7matches
FN:17,_RNvMs4_NtNtCsd2a39Kes4Ul_19da_client_interface28___mock_MockDaClient_DaClient18___max_blob_per_txnNtB5_6Common16satisfy_sequence
FN:17,_RNvMs4_NtNtCsd2a39Kes4Ul_19da_client_interface28___mock_MockDaClient_DaClient18___max_blob_per_txnNtB5_6Common4with
FN:17,_RNvMs4_NtNtCsd2a39Kes4Ul_19da_client_interface28___mock_MockDaClient_DaClient18___max_blob_per_txnNtB5_6Common15verify_sequence
FN:17,_RNvXs5_NtNtCsd2a39Kes4Ul_19da_client_interface28___mock_MockDaClient_DaClient18___max_blob_per_txnNtB5_6CommonNtNtNtCsl82brYPINY5_4core3ops4drop4Drop4drop
FN:17,_RNvMs6_NtNtCsd2a39Kes4Ul_19da_client_interface28___mock_MockDaClient_DaClient18___max_blob_per_txnNtB5_11Expectation4call
FN:17,_RNvMs6_NtNtCsd2a39Kes4Ul_19da_client_interface28___mock_MockDaClient_DaClient18___max_blob_per_txnNtB5_11Expectation11in_sequence
FN:17,_RNvMs6_NtNtCsd2a39Kes4Ul_19da_client_interface28___mock_MockDaClient_DaClient18___max_blob_per_txnNtB5_11Expectation7is_done
FN:17,_RNvMs6_NtNtCsd2a39Kes4Ul_19da_client_interface28___mock_MockDaClient_DaClient18___max_blob_per_txnNtB5_11Expectation7matches
FN:17,_RNvMs6_NtNtCsd2a39Kes4Ul_19da_client_interface28___mock_MockDaClient_DaClient18___max_blob_per_txnNtB5_11Expectation3new
FN:17,_RNvMs6_NtNtCsd2a39Kes4Ul_19da_client_interface28___mock_MockDaClient_DaClient18___max_blob_per_txnNtB5_11Expectation4once
FN:17,_RINvMs6_NtNtCsd2a39Kes4Ul_19da_client_interface28___mock_MockDaClient_DaClient18___max_blob_per_txnNtB6_11Expectation5timesjEBa_
FN:17,_RINvMs4_NtNtCsd2a39Kes4Ul_19da_client_interface28___mock_MockDaClient_DaClient18___max_blob_per_txnNtB6_6Common5timesjEBa_
FN:17,_RNvMs6_NtNtCsd2a39Kes4Ul_19da_client_interface28___mock_MockDaClient_DaClient18___max_blob_per_txnNtB5_11Expectation4with
FN:17,_RNvXs7_NtNtCsd2a39Kes4Ul_19da_client_interface28___mock_MockDaClient_DaClient18___max_blob_per_txnNtB5_11ExpectationNtNtCsl82brYPINY5_4core7default7Default7default
FN:17,_RNvXs3_NtNtCsd2a39Kes4Ul_19da_client_interface28___mock_MockDaClient_DaClient18___max_blob_per_txnNtB5_6CommonNtNtCsl82brYPINY5_4core7default7Default7default
FN:17,_RNvXs1_NtNtCsd2a39Kes4Ul_19da_client_interface28___mock_MockDaClient_DaClient18___max_blob_per_txnNtB5_7MatcherNtNtCsl82brYPINY5_4core7default7Default7default
FN:17,_RNvXs_NtNtCsd2a39Kes4Ul_19da_client_interface28___mock_MockDaClient_DaClient18___max_blob_per_txnNtB4_5RfuncNtNtCsl82brYPINY5_4core7default7Default7default
FN:17,_RNvMs8_NtNtCsd2a39Kes4Ul_19da_client_interface28___mock_MockDaClient_DaClient18___max_blob_per_txnNtB5_12Expectations10checkpoint
FN:17,_RNvMs8_NtNtCsd2a39Kes4Ul_19da_client_interface28___mock_MockDaClient_DaClient18___max_blob_per_txnNtB5_12Expectations6expect
FN:17,_RNvMsa_NtNtCsd2a39Kes4Ul_19da_client_interface28___mock_MockDaClient_DaClient18___max_blob_per_txnNtB5_12Expectations4call
FN:17,_RNCNvMsa_NtNtCsd2a39Kes4Ul_19da_client_interface28___mock_MockDaClient_DaClient18___max_blob_per_txnNtB7_12Expectations4calls_0Bb_
FN:17,_RNCNvMsa_NtNtCsd2a39Kes4Ul_19da_client_interface28___mock_MockDaClient_DaClient18___max_blob_per_txnNtB7_12Expectations4call0Bb_
FN:17,_RNvMNtNtCsd2a39Kes4Ul_19da_client_interface28___mock_MockDaClient_DaClient18___verify_inclusionNtB2_5Rfunc8call_mut
FN:17,_RNvMs0_NtNtCsd2a39Kes4Ul_19da_client_interface28___mock_MockDaClient_DaClient18___verify_inclusionNtB5_7Matcher7matches
FN:17,_RNCNvMs0_NtNtCsd2a39Kes4Ul_19da_client_interface28___mock_MockDaClient_DaClient18___verify_inclusionNtB7_7Matcher7matches0Bb_
FN:17,_RNvXs2_NtNtCsd2a39Kes4Ul_19da_client_interface28___mock_MockDaClient_DaClient18___verify_inclusionNtB5_7MatcherNtNtCsl82brYPINY5_4core3fmt7Display3fmt
FN:17,_RNvMs4_NtNtCsd2a39Kes4Ul_19da_client_interface28___mock_MockDaClient_DaClient18___verify_inclusionNtB5_6Common4call
FN:17,_RNvMs4_NtNtCsd2a39Kes4Ul_19da_client_interface28___mock_MockDaClient_DaClient18___verify_inclusionNtB5_6Common11in_sequence
FN:17,_RNvMs4_NtNtCsd2a39Kes4Ul_19da_client_interface28___mock_MockDaClient_DaClient18___verify_inclusionNtB5_6Common7is_done
FN:17,_RNvMs4_NtNtCsd2a39Kes4Ul_19da_client_interface28___mock_MockDaClient_DaClient18___verify_inclusionNtB5_6Common7matches
FN:17,_RNvMs4_NtNtCsd2a39Kes4Ul_19da_client_interface28___mock_MockDaClient_DaClient18___verify_inclusionNtB5_6Common16satisfy_sequence
FN:17,_RNvMs4_NtNtCsd2a39Kes4Ul_19da_client_interface28___mock_MockDaClient_DaClient18___verify_inclusionNtB5_6Common15verify_sequence
FN:17,_RNvXs5_NtNtCsd2a39Kes4Ul_19da_client_interface28___mock_MockDaClient_DaClient18___verify_inclusionNtB5_6CommonNtNtNtCsl82brYPINY5_4core3ops4drop4Drop4drop
FN:17,_RNvMs6_NtNtCsd2a39Kes4Ul_19da_client_interface28___mock_MockDaClient_DaClient18___verify_inclusionNtB5_11Expectation4call
FN:17,_RNvMs6_NtNtCsd2a39Kes4Ul_19da_client_interface28___mock_MockDaClient_DaClient18___verify_inclusionNtB5_11Expectation11in_sequence
FN:17,_RNvMs6_NtNtCsd2a39Kes4Ul_19da_client_interface28___mock_MockDaClient_DaClient18___verify_inclusionNtB5_11Expectation7is_done
FN:17,_RNvMs6_NtNtCsd2a39Kes4Ul_19da_client_interface28___mock_MockDaClient_DaClient18___verify_inclusionNtB5_11Expectation7matches
FN:17,_RNvMs6_NtNtCsd2a39Kes4Ul_19da_client_interface28___mock_MockDaClient_DaClient18___verify_inclusionNtB5_11Expectation3new
FN:17,_RNvMs6_NtNtCsd2a39Kes4Ul_19da_client_interface28___mock_MockDaClient_DaClient18___verify_inclusionNtB5_11Expectation4once
FN:17,_RINvMs6_NtNtCsd2a39Kes4Ul_19da_client_interface28___mock_MockDaClient_DaClient18___verify_inclusionNtB6_11Expectation5timesjEBa_
FN:17,_RINvMs4_NtNtCsd2a39Kes4Ul_19da_client_interface28___mock_MockDaClient_DaClient18___verify_inclusionNtB6_6Common5timesjEBa_
FN:17,_RNvXs7_NtNtCsd2a39Kes4Ul_19da_client_interface28___mock_MockDaClient_DaClient18___verify_inclusionNtB5_11ExpectationNtNtCsl82brYPINY5_4core7default7Default7default
FN:17,_RNvXs3_NtNtCsd2a39Kes4Ul_19da_client_interface28___mock_MockDaClient_DaClient18___verify_inclusionNtB5_6CommonNtNtCsl82brYPINY5_4core7default7Default7default
FN:17,_RNvXs1_NtNtCsd2a39Kes4Ul_19da_client_interface28___mock_MockDaClient_DaClient18___verify_inclusionNtB5_7MatcherNtNtCsl82brYPINY5_4core7default7Default7default
FN:17,_RNvXs_NtNtCsd2a39Kes4Ul_19da_client_interface28___mock_MockDaClient_DaClient18___verify_inclusionNtB4_5RfuncNtNtCsl82brYPINY5_4core7default7Default7default
FN:17,_RNvMs8_NtNtCsd2a39Kes4Ul_19da_client_interface28___mock_MockDaClient_DaClient18___verify_inclusionNtB5_12Expectations10checkpoint
FN:17,_RNvMs8_NtNtCsd2a39Kes4Ul_19da_client_interface28___mock_MockDaClient_DaClient18___verify_inclusionNtB5_12Expectations6expect
FN:17,_RNvMsa_NtNtCsd2a39Kes4Ul_19da_client_interface28___mock_MockDaClient_DaClient18___verify_inclusionNtB5_12Expectations4call
FN:17,_RNCNvMsa_NtNtCsd2a39Kes4Ul_19da_client_interface28___mock_MockDaClient_DaClient18___verify_inclusionNtB7_12Expectations4calls_0Bb_
FN:17,_RNCNvMsa_NtNtCsd2a39Kes4Ul_19da_client_interface28___mock_MockDaClient_DaClient18___verify_inclusionNtB7_12Expectations4call0Bb_
FN:17,_RNvMs4_NtNtCsd2a39Kes4Ul_19da_client_interface28___mock_MockDaClient_DaClient20___publish_state_diffNtB5_6Common5never
FN:17,_RINvMs4_NtNtCsd2a39Kes4Ul_19da_client_interface28___mock_MockDaClient_DaClient20___publish_state_diffNtB6_6Common4withppEBa_
FN:17,_RINvMs4_NtNtCsd2a39Kes4Ul_19da_client_interface28___mock_MockDaClient_DaClient20___publish_state_diffNtB6_6Common5withfpEBa_
FN:17,_RINvMs4_NtNtCsd2a39Kes4Ul_19da_client_interface28___mock_MockDaClient_DaClient20___publish_state_diffNtB6_6Common8withf_stpEBa_
FN:17,_RINvMs6_NtNtCsd2a39Kes4Ul_19da_client_interface28___mock_MockDaClient_DaClient20___publish_state_diffNtB6_11Expectation12return_constpEBa_
FN:17,_RNCINvMs6_NtNtCsd2a39Kes4Ul_19da_client_interface28___mock_MockDaClient_DaClient20___publish_state_diffNtB8_11Expectation12return_constpE0Bc_
FN:17,_RINvMs6_NtNtCsd2a39Kes4Ul_19da_client_interface28___mock_MockDaClient_DaClient20___publish_state_diffNtB6_11Expectation15return_const_stpEBa_
FN:17,_RNCINvMs6_NtNtCsd2a39Kes4Ul_19da_client_interface28___mock_MockDaClient_DaClient20___publish_state_diffNtB8_11Expectation15return_const_stpE0Bc_
FN:17,_RINvMs6_NtNtCsd2a39Kes4Ul_19da_client_interface28___mock_MockDaClient_DaClient20___publish_state_diffNtB6_11Expectation11return_oncepEBa_
FN:17,_RINvMs6_NtNtCsd2a39Kes4Ul_19da_client_interface28___mock_MockDaClient_DaClient20___publish_state_diffNtB6_11Expectation14return_once_stpEBa_
FN:17,_RINvMs6_NtNtCsd2a39Kes4Ul_19da_client_interface28___mock_MockDaClient_DaClient20___publish_state_diffNtB6_11Expectation9returningpEBa_
FN:17,_RINvMs6_NtNtCsd2a39Kes4Ul_19da_client_interface28___mock_MockDaClient_DaClient20___publish_state_diffNtB6_11Expectation12returning_stpEBa_
FN:17,_RNvMs6_NtNtCsd2a39Kes4Ul_19da_client_interface28___mock_MockDaClient_DaClient20___publish_state_diffNtB5_11Expectation5never
FN:17,_RINvMs6_NtNtCsd2a39Kes4Ul_19da_client_interface28___mock_MockDaClient_DaClient20___publish_state_diffNtB6_11Expectation4withppEBa_
FN:17,_RINvMs6_NtNtCsd2a39Kes4Ul_19da_client_interface28___mock_MockDaClient_DaClient20___publish_state_diffNtB6_11Expectation5withfpEBa_
FN:17,_RINvMs6_NtNtCsd2a39Kes4Ul_19da_client_interface28___mock_MockDaClient_DaClient20___publish_state_diffNtB6_11Expectation8withf_stpEBa_
FN:17,_RNvMs8_NtNtCsd2a39Kes4Ul_19da_client_interface28___mock_MockDaClient_DaClient20___publish_state_diffNtB5_12Expectations3new
FN:17,_RNvMs4_NtNtCsd2a39Kes4Ul_19da_client_interface28___mock_MockDaClient_DaClient18___verify_inclusionNtB5_6Common5never
FN:17,_RINvMs4_NtNtCsd2a39Kes4Ul_19da_client_interface28___mock_MockDaClient_DaClient18___verify_inclusionNtB6_6Common4withpEBa_
FN:17,_RINvMs4_NtNtCsd2a39Kes4Ul_19da_client_interface28___mock_MockDaClient_DaClient18___verify_inclusionNtB6_6Common5withfpEBa_
FN:17,_RINvMs4_NtNtCsd2a39Kes4Ul_19da_client_interface28___mock_MockDaClient_DaClient18___verify_inclusionNtB6_6Common8withf_stpEBa_
FN:17,_RINvMs6_NtNtCsd2a39Kes4Ul_19da_client_interface28___mock_MockDaClient_DaClient18___verify_inclusionNtB6_11Expectation12return_constpEBa_
FN:17,_RNCINvMs6_NtNtCsd2a39Kes4Ul_19da_client_interface28___mock_MockDaClient_DaClient18___verify_inclusionNtB8_11Expectation12return_constpE0Bc_
FN:17,_RINvMs6_NtNtCsd2a39Kes4Ul_19da_client_interface28___mock_MockDaClient_DaClient18___verify_inclusionNtB6_11Expectation15return_const_stpEBa_
FN:17,_RNCINvMs6_NtNtCsd2a39Kes4Ul_19da_client_interface28___mock_MockDaClient_DaClient18___verify_inclusionNtB8_11Expectation15return_const_stpE0Bc_
FN:17,_RINvMs6_NtNtCsd2a39Kes4Ul_19da_client_interface28___mock_MockDaClient_DaClient18___verify_inclusionNtB6_11Expectation11return_oncepEBa_
FN:17,_RINvMs6_NtNtCsd2a39Kes4Ul_19da_client_interface28___mock_MockDaClient_DaClient18___verify_inclusionNtB6_11Expectation14return_once_stpEBa_
FN:17,_RINvMs6_NtNtCsd2a39Kes4Ul_19da_client_interface28___mock_MockDaClient_DaClient18___verify_inclusionNtB6_11Expectation9returningpEBa_
FN:17,_RINvMs6_NtNtCsd2a39Kes4Ul_19da_client_interface28___mock_MockDaClient_DaClient18___verify_inclusionNtB6_11Expectation12returning_stpEBa_
FN:17,_RNvMs6_NtNtCsd2a39Kes4Ul_19da_client_interface28___mock_MockDaClient_DaClient18___verify_inclusionNtB5_11Expectation5never
FN:17,_RINvMs6_NtNtCsd2a39Kes4Ul_19da_client_interface28___mock_MockDaClient_DaClient18___verify_inclusionNtB6_11Expectation4withpEBa_
FN:17,_RINvMs6_NtNtCsd2a39Kes4Ul_19da_client_interface28___mock_MockDaClient_DaClient18___verify_inclusionNtB6_11Expectation5withfpEBa_
FN:17,_RINvMs6_NtNtCsd2a39Kes4Ul_19da_client_interface28___mock_MockDaClient_DaClient18___verify_inclusionNtB6_11Expectation8withf_stpEBa_
FN:17,_RNvMs8_NtNtCsd2a39Kes4Ul_19da_client_interface28___mock_MockDaClient_DaClient18___verify_inclusionNtB5_12Expectations3new
FN:17,_RNvMs4_NtNtCsd2a39Kes4Ul_19da_client_interface28___mock_MockDaClient_DaClient18___max_blob_per_txnNtB5_6Common5never
FN:17,_RINvMs4_NtNtCsd2a39Kes4Ul_19da_client_interface28___mock_MockDaClient_DaClient18___max_blob_per_txnNtB6_6Common5withfpEBa_
FN:17,_RINvMs4_NtNtCsd2a39Kes4Ul_19da_client_interface28___mock_MockDaClient_DaClient18___max_blob_per_txnNtB6_6Common8withf_stpEBa_
FN:17,_RINvMs6_NtNtCsd2a39Kes4Ul_19da_client_interface28___mock_MockDaClient_DaClient18___max_blob_per_txnNtB6_11Expectation12return_constpEBa_
FN:17,_RNCINvMs6_NtNtCsd2a39Kes4Ul_19da_client_interface28___mock_MockDaClient_DaClient18___max_blob_per_txnNtB8_11Expectation12return_constpE0Bc_
FN:17,_RINvMs6_NtNtCsd2a39Kes4Ul_19da_client_interface28___mock_MockDaClient_DaClient18___max_blob_per_txnNtB6_11Expectation15return_const_stpEBa_
FN:17,_RNCINvMs6_NtNtCsd2a39Kes4Ul_19da_client_interface28___mock_MockDaClient_DaClient18___max_blob_per_txnNtB8_11Expectation15return_const_stpE0Bc_
FN:17,_RINvMs6_NtNtCsd2a39Kes4Ul_19da_client_interface28___mock_MockDaClient_DaClient18___max_blob_per_txnNtB6_11Expectation11return_oncepEBa_
FN:17,_RINvMs6_NtNtCsd2a39Kes4Ul_19da_client_interface28___mock_MockDaClient_DaClient18___max_blob_per_txnNtB6_11Expectation14return_once_stpEBa_
FN:17,_RINvMs6_NtNtCsd2a39Kes4Ul_19da_client_interface28___mock_MockDaClient_DaClient18___max_blob_per_txnNtB6_11Expectation9returningpEBa_
FN:17,_RINvMs6_NtNtCsd2a39Kes4Ul_19da_client_interface28___mock_MockDaClient_DaClient18___max_blob_per_txnNtB6_11Expectation12returning_stpEBa_
FN:17,_RNvMs6_NtNtCsd2a39Kes4Ul_19da_client_interface28___mock_MockDaClient_DaClient18___max_blob_per_txnNtB5_11Expectation5never
FN:17,_RINvMs6_NtNtCsd2a39Kes4Ul_19da_client_interface28___mock_MockDaClient_DaClient18___max_blob_per_txnNtB6_11Expectation5withfpEBa_
FN:17,_RINvMs6_NtNtCsd2a39Kes4Ul_19da_client_interface28___mock_MockDaClient_DaClient18___max_blob_per_txnNtB6_11Expectation8withf_stpEBa_
FN:17,_RNvMs8_NtNtCsd2a39Kes4Ul_19da_client_interface28___mock_MockDaClient_DaClient18___max_blob_per_txnNtB5_12Expectations3new
FN:17,_RNvMs4_NtNtCsd2a39Kes4Ul_19da_client_interface28___mock_MockDaClient_DaClient20___max_bytes_per_blobNtB5_6Common5never
FN:17,_RINvMs4_NtNtCsd2a39Kes4Ul_19da_client_interface28___mock_MockDaClient_DaClient20___max_bytes_per_blobNtB6_6Common5withfpEBa_
FN:17,_RINvMs4_NtNtCsd2a39Kes4Ul_19da_client_interface28___mock_MockDaClient_DaClient20___max_bytes_per_blobNtB6_6Common8withf_stpEBa_
FN:17,_RINvMs6_NtNtCsd2a39Kes4Ul_19da_client_interface28___mock_MockDaClient_DaClient20___max_bytes_per_blobNtB6_11Expectation12return_constpEBa_
FN:17,_RNCINvMs6_NtNtCsd2a39Kes4Ul_19da_client_interface28___mock_MockDaClient_DaClient20___max_bytes_per_blobNtB8_11Expectation12return_constpE0Bc_
FN:17,_RINvMs6_NtNtCsd2a39Kes4Ul_19da_client_interface28___mock_MockDaClient_DaClient20___max_bytes_per_blobNtB6_11Expectation15return_const_stpEBa_
FN:17,_RNCINvMs6_NtNtCsd2a39Kes4Ul_19da_client_interface28___mock_MockDaClient_DaClient20___max_bytes_per_blobNtB8_11Expectation15return_const_stpE0Bc_
FN:17,_RINvMs6_NtNtCsd2a39Kes4Ul_19da_client_interface28___mock_MockDaClient_DaClient20___max_bytes_per_blobNtB6_11Expectation11return_oncepEBa_
FN:17,_RINvMs6_NtNtCsd2a39Kes4Ul_19da_client_interface28___mock_MockDaClient_DaClient20___max_bytes_per_blobNtB6_11Expectation14return_once_stpEBa_
FN:17,_RINvMs6_NtNtCsd2a39Kes4Ul_19da_client_interface28___mock_MockDaClient_DaClient20___max_bytes_per_blobNtB6_11Expectation9returningpEBa_
FN:17,_RINvMs6_NtNtCsd2a39Kes4Ul_19da_client_interface28___mock_MockDaClient_DaClient20___max_bytes_per_blobNtB6_11Expectation12returning_stpEBa_
FN:17,_RNvMs6_NtNtCsd2a39Kes4Ul_19da_client_interface28___mock_MockDaClient_DaClient20___max_bytes_per_blobNtB5_11Expectation5never
FN:17,_RINvMs6_NtNtCsd2a39Kes4Ul_19da_client_interface28___mock_MockDaClient_DaClient20___max_bytes_per_blobNtB6_11Expectation5withfpEBa_
FN:17,_RINvMs6_NtNtCsd2a39Kes4Ul_19da_client_interface28___mock_MockDaClient_DaClient20___max_bytes_per_blobNtB6_11Expectation8withf_stpEBa_
FN:17,_RNvMs8_NtNtCsd2a39Kes4Ul_19da_client_interface28___mock_MockDaClient_DaClient20___max_bytes_per_blobNtB5_12Expectations3new
FNDA:0,_RNvXs3_CsQLhsInw6KB_19da_client_interfaceNtB5_12MockDaClientNtNtCsl82brYPINY5_4core3fmt5Debug3fmt
FNDA:0,_RNvXs4_CsQLhsInw6KB_19da_client_interfaceNtB5_12MockDaClientNtNtCsl82brYPINY5_4core7default7Default7default
FNDA:0,_RNvMNtNtCsQLhsInw6KB_19da_client_interface28___mock_MockDaClient_DaClient20___publish_state_diffNtB2_5Rfunc8call_mut
FNDA:0,_RNvXs_NtNtCsQLhsInw6KB_19da_client_interface28___mock_MockDaClient_DaClient20___publish_state_diffNtB4_5RfuncNtNtCsl82brYPINY5_4core7default7Default7default
FNDA:0,_RNvMs0_NtNtCsQLhsInw6KB_19da_client_interface28___mock_MockDaClient_DaClient20___publish_state_diffNtB5_7Matcher7matches
FNDA:0,_RNCNvMs0_NtNtCsQLhsInw6KB_19da_client_interface28___mock_MockDaClient_DaClient20___publish_state_diffNtB7_7Matcher7matches0Bb_
FNDA:0,_RNvXs1_NtNtCsQLhsInw6KB_19da_client_interface28___mock_MockDaClient_DaClient20___publish_state_diffNtB5_7MatcherNtNtCsl82brYPINY5_4core7default7Default7default
FNDA:0,_RNvXs2_NtNtCsQLhsInw6KB_19da_client_interface28___mock_MockDaClient_DaClient20___publish_state_diffNtB5_7MatcherNtNtCsl82brYPINY5_4core3fmt7Display3fmt
FNDA:0,_RNvXs3_NtNtCsQLhsInw6KB_19da_client_interface28___mock_MockDaClient_DaClient20___publish_state_diffNtB5_6CommonNtNtCsl82brYPINY5_4core7default7Default7default
FNDA:0,_RNvMs4_NtNtCsQLhsInw6KB_19da_client_interface28___mock_MockDaClient_DaClient20___publish_state_diffNtB5_6Common4call
FNDA:0,_RNvMs4_NtNtCsQLhsInw6KB_19da_client_interface28___mock_MockDaClient_DaClient20___publish_state_diffNtB5_6Common11in_sequence
FNDA:0,_RNvMs4_NtNtCsQLhsInw6KB_19da_client_interface28___mock_MockDaClient_DaClient20___publish_state_diffNtB5_6Common7is_done
FNDA:0,_RNvMs4_NtNtCsQLhsInw6KB_19da_client_interface28___mock_MockDaClient_DaClient20___publish_state_diffNtB5_6Common7matches
FNDA:0,_RNvMs4_NtNtCsQLhsInw6KB_19da_client_interface28___mock_MockDaClient_DaClient20___publish_state_diffNtB5_6Common5never
FNDA:0,_RNvMs4_NtNtCsQLhsInw6KB_19da_client_interface28___mock_MockDaClient_DaClient20___publish_state_diffNtB5_6Common16satisfy_sequence
FNDA:0,_RINvMs4_NtNtCsQLhsInw6KB_19da_client_interface28___mock_MockDaClient_DaClient20___publish_state_diffNtB6_6Common5timespEBa_
FNDA:0,_RINvMs4_NtNtCsQLhsInw6KB_19da_client_interface28___mock_MockDaClient_DaClient20___publish_state_diffNtB6_6Common4withppEBa_
FNDA:0,_RINvMs4_NtNtCsQLhsInw6KB_19da_client_interface28___mock_MockDaClient_DaClient20___publish_state_diffNtB6_6Common5withfpEBa_
FNDA:0,_RINvMs4_NtNtCsQLhsInw6KB_19da_client_interface28___mock_MockDaClient_DaClient20___publish_state_diffNtB6_6Common8withf_stpEBa_
FNDA:0,_RNvMs4_NtNtCsQLhsInw6KB_19da_client_interface28___mock_MockDaClient_DaClient20___publish_state_diffNtB5_6Common15verify_sequence
FNDA:0,_RNvXs5_NtNtCsQLhsInw6KB_19da_client_interface28___mock_MockDaClient_DaClient20___publish_state_diffNtB5_6CommonNtNtNtCsl82brYPINY5_4core3ops4drop4Drop4drop
FNDA:0,_RNvMs6_NtNtCsQLhsInw6KB_19da_client_interface28___mock_MockDaClient_DaClient20___publish_state_diffNtB5_11Expectation4call
FNDA:0,_RINvMs6_NtNtCsQLhsInw6KB_19da_client_interface28___mock_MockDaClient_DaClient20___publish_state_diffNtB6_11Expectation12return_constpEBa_
FNDA:0,_RNCINvMs6_NtNtCsQLhsInw6KB_19da_client_interface28___mock_MockDaClient_DaClient20___publish_state_diffNtB8_11Expectation12return_constpE0Bc_
FNDA:0,_RINvMs6_NtNtCsQLhsInw6KB_19da_client_interface28___mock_MockDaClient_DaClient20___publish_state_diffNtB6_11Expectation15return_const_stpEBa_
FNDA:0,_RNCINvMs6_NtNtCsQLhsInw6KB_19da_client_interface28___mock_MockDaClient_DaClient20___publish_state_diffNtB8_11Expectation15return_const_stpE0Bc_
FNDA:0,_RINvMs6_NtNtCsQLhsInw6KB_19da_client_interface28___mock_MockDaClient_DaClient20___publish_state_diffNtB6_11Expectation11return_oncepEBa_
FNDA:0,_RINvMs6_NtNtCsQLhsInw6KB_19da_client_interface28___mock_MockDaClient_DaClient20___publish_state_diffNtB6_11Expectation14return_once_stpEBa_
FNDA:0,_RINvMs6_NtNtCsQLhsInw6KB_19da_client_interface28___mock_MockDaClient_DaClient20___publish_state_diffNtB6_11Expectation9returningpEBa_
FNDA:0,_RINvMs6_NtNtCsQLhsInw6KB_19da_client_interface28___mock_MockDaClient_DaClient20___publish_state_diffNtB6_11Expectation12returning_stpEBa_
FNDA:0,_RNvMs6_NtNtCsQLhsInw6KB_19da_client_interface28___mock_MockDaClient_DaClient20___publish_state_diffNtB5_11Expectation11in_sequence
FNDA:0,_RNvMs6_NtNtCsQLhsInw6KB_19da_client_interface28___mock_MockDaClient_DaClient20___publish_state_diffNtB5_11Expectation7is_done
FNDA:0,_RNvMs6_NtNtCsQLhsInw6KB_19da_client_interface28___mock_MockDaClient_DaClient20___publish_state_diffNtB5_11Expectation7matches
FNDA:0,_RNvMs6_NtNtCsQLhsInw6KB_19da_client_interface28___mock_MockDaClient_DaClient20___publish_state_diffNtB5_11Expectation5never
FNDA:0,_RNvMs6_NtNtCsQLhsInw6KB_19da_client_interface28___mock_MockDaClient_DaClient20___publish_state_diffNtB5_11Expectation3new
FNDA:0,_RNvMs6_NtNtCsQLhsInw6KB_19da_client_interface28___mock_MockDaClient_DaClient20___publish_state_diffNtB5_11Expectation4once
FNDA:0,_RINvMs6_NtNtCsQLhsInw6KB_19da_client_interface28___mock_MockDaClient_DaClient20___publish_state_diffNtB6_11Expectation5timespEBa_
FNDA:0,_RINvMs6_NtNtCsQLhsInw6KB_19da_client_interface28___mock_MockDaClient_DaClient20___publish_state_diffNtB6_11Expectation4withppEBa_
FNDA:0,_RINvMs6_NtNtCsQLhsInw6KB_19da_client_interface28___mock_MockDaClient_DaClient20___publish_state_diffNtB6_11Expectation5withfpEBa_
FNDA:0,_RINvMs6_NtNtCsQLhsInw6KB_19da_client_interface28___mock_MockDaClient_DaClient20___publish_state_diffNtB6_11Expectation8withf_stpEBa_
FNDA:0,_RNvXs7_NtNtCsQLhsInw6KB_19da_client_interface28___mock_MockDaClient_DaClient20___publish_state_diffNtB5_11ExpectationNtNtCsl82brYPINY5_4core7default7Default7default
FNDA:0,_RNvMs8_NtNtCsQLhsInw6KB_19da_client_interface28___mock_MockDaClient_DaClient20___publish_state_diffNtB5_12Expectations10checkpoint
FNDA:0,_RNvMs8_NtNtCsQLhsInw6KB_19da_client_interface28___mock_MockDaClient_DaClient20___publish_state_diffNtB5_12Expectations6expect
FNDA:0,_RNvMs8_NtNtCsQLhsInw6KB_19da_client_interface28___mock_MockDaClient_DaClient20___publish_state_diffNtB5_12Expectations3new
FNDA:0,_RNvXs9_NtNtCsQLhsInw6KB_19da_client_interface28___mock_MockDaClient_DaClient20___publish_state_diffNtB5_12ExpectationsNtNtCsl82brYPINY5_4core7default7Default7default
FNDA:0,_RNvMsa_NtNtCsQLhsInw6KB_19da_client_interface28___mock_MockDaClient_DaClient20___publish_state_diffNtB5_12Expectations4call
FNDA:0,_RNCNvMsa_NtNtCsQLhsInw6KB_19da_client_interface28___mock_MockDaClient_DaClient20___publish_state_diffNtB7_12Expectations4call0Bb_
FNDA:0,_RNCNvMsa_NtNtCsQLhsInw6KB_19da_client_interface28___mock_MockDaClient_DaClient20___publish_state_diffNtB7_12Expectations4calls_0Bb_
FNDA:0,_RNvMNtNtCsQLhsInw6KB_19da_client_interface28___mock_MockDaClient_DaClient18___verify_inclusionNtB2_5Rfunc8call_mut
FNDA:0,_RNvXs_NtNtCsQLhsInw6KB_19da_client_interface28___mock_MockDaClient_DaClient18___verify_inclusionNtB4_5RfuncNtNtCsl82brYPINY5_4core7default7Default7default
FNDA:0,_RNvMs0_NtNtCsQLhsInw6KB_19da_client_interface28___mock_MockDaClient_DaClient18___verify_inclusionNtB5_7Matcher7matches
FNDA:0,_RNCNvMs0_NtNtCsQLhsInw6KB_19da_client_interface28___mock_MockDaClient_DaClient18___verify_inclusionNtB7_7Matcher7matches0Bb_
FNDA:0,_RNvXs1_NtNtCsQLhsInw6KB_19da_client_interface28___mock_MockDaClient_DaClient18___verify_inclusionNtB5_7MatcherNtNtCsl82brYPINY5_4core7default7Default7default
FNDA:0,_RNvXs2_NtNtCsQLhsInw6KB_19da_client_interface28___mock_MockDaClient_DaClient18___verify_inclusionNtB5_7MatcherNtNtCsl82brYPINY5_4core3fmt7Display3fmt
FNDA:0,_RNvXs3_NtNtCsQLhsInw6KB_19da_client_interface28___mock_MockDaClient_DaClient18___verify_inclusionNtB5_6CommonNtNtCsl82brYPINY5_4core7default7Default7default
FNDA:0,_RNvMs4_NtNtCsQLhsInw6KB_19da_client_interface28___mock_MockDaClient_DaClient18___verify_inclusionNtB5_6Common4call
FNDA:0,_RNvMs4_NtNtCsQLhsInw6KB_19da_client_interface28___mock_MockDaClient_DaClient18___verify_inclusionNtB5_6Common11in_sequence
FNDA:0,_RNvMs4_NtNtCsQLhsInw6KB_19da_client_interface28___mock_MockDaClient_DaClient18___verify_inclusionNtB5_6Common7is_done
FNDA:0,_RNvMs4_NtNtCsQLhsInw6KB_19da_client_interface28___mock_MockDaClient_DaClient18___verify_inclusionNtB5_6Common7matches
FNDA:0,_RNvMs4_NtNtCsQLhsInw6KB_19da_client_interface28___mock_MockDaClient_DaClient18___verify_inclusionNtB5_6Common5never
FNDA:0,_RNvMs4_NtNtCsQLhsInw6KB_19da_client_interface28___mock_MockDaClient_DaClient18___verify_inclusionNtB5_6Common16satisfy_sequence
FNDA:0,_RINvMs4_NtNtCsQLhsInw6KB_19da_client_interface28___mock_MockDaClient_DaClient18___verify_inclusionNtB6_6Common5timespEBa_
FNDA:0,_RINvMs4_NtNtCsQLhsInw6KB_19da_client_interface28___mock_MockDaClient_DaClient18___verify_inclusionNtB6_6Common4withpEBa_
FNDA:0,_RINvMs4_NtNtCsQLhsInw6KB_19da_client_interface28___mock_MockDaClient_DaClient18___verify_inclusionNtB6_6Common5withfpEBa_
FNDA:0,_RINvMs4_NtNtCsQLhsInw6KB_19da_client_interface28___mock_MockDaClient_DaClient18___verify_inclusionNtB6_6Common8withf_stpEBa_
FNDA:0,_RNvMs4_NtNtCsQLhsInw6KB_19da_client_interface28___mock_MockDaClient_DaClient18___verify_inclusionNtB5_6Common15verify_sequence
FNDA:0,_RNvXs5_NtNtCsQLhsInw6KB_19da_client_interface28___mock_MockDaClient_DaClient18___verify_inclusionNtB5_6CommonNtNtNtCsl82brYPINY5_4core3ops4drop4Drop4drop
FNDA:0,_RNvMs6_NtNtCsQLhsInw6KB_19da_client_interface28___mock_MockDaClient_DaClient18___verify_inclusionNtB5_11Expectation4call
FNDA:0,_RINvMs6_NtNtCsQLhsInw6KB_19da_client_interface28___mock_MockDaClient_DaClient18___verify_inclusionNtB6_11Expectation12return_constpEBa_
FNDA:0,_RNCINvMs6_NtNtCsQLhsInw6KB_19da_client_interface28___mock_MockDaClient_DaClient18___verify_inclusionNtB8_11Expectation12return_constpE0Bc_
FNDA:0,_RINvMs6_NtNtCsQLhsInw6KB_19da_client_interface28___mock_MockDaClient_DaClient18___verify_inclusionNtB6_11Expectation15return_const_stpEBa_
FNDA:0,_RNCINvMs6_NtNtCsQLhsInw6KB_19da_client_interface28___mock_MockDaClient_DaClient18___verify_inclusionNtB8_11Expectation15return_const_stpE0Bc_
FNDA:0,_RINvMs6_NtNtCsQLhsInw6KB_19da_client_interface28___mock_MockDaClient_DaClient18___verify_inclusionNtB6_11Expectation11return_oncepEBa_
FNDA:0,_RINvMs6_NtNtCsQLhsInw6KB_19da_client_interface28___mock_MockDaClient_DaClient18___verify_inclusionNtB6_11Expectation14return_once_stpEBa_
FNDA:0,_RINvMs6_NtNtCsQLhsInw6KB_19da_client_interface28___mock_MockDaClient_DaClient18___verify_inclusionNtB6_11Expectation9returningpEBa_
FNDA:0,_RINvMs6_NtNtCsQLhsInw6KB_19da_client_interface28___mock_MockDaClient_DaClient18___verify_inclusionNtB6_11Expectation12returning_stpEBa_
FNDA:0,_RNvMs6_NtNtCsQLhsInw6KB_19da_client_interface28___mock_MockDaClient_DaClient18___verify_inclusionNtB5_11Expectation11in_sequence
FNDA:0,_RNvMs6_NtNtCsQLhsInw6KB_19da_client_interface28___mock_MockDaClient_DaClient18___verify_inclusionNtB5_11Expectation7is_done
FNDA:0,_RNvMs6_NtNtCsQLhsInw6KB_19da_client_interface28___mock_MockDaClient_DaClient18___verify_inclusionNtB5_11Expectation7matches
FNDA:0,_RNvMs6_NtNtCsQLhsInw6KB_19da_client_interface28___mock_MockDaClient_DaClient18___verify_inclusionNtB5_11Expectation5never
FNDA:0,_RNvMs6_NtNtCsQLhsInw6KB_19da_client_interface28___mock_MockDaClient_DaClient18___verify_inclusionNtB5_11Expectation3new
FNDA:0,_RNvMs6_NtNtCsQLhsInw6KB_19da_client_interface28___mock_MockDaClient_DaClient18___verify_inclusionNtB5_11Expectation4once
FNDA:0,_RINvMs6_NtNtCsQLhsInw6KB_19da_client_interface28___mock_MockDaClient_DaClient18___verify_inclusionNtB6_11Expectation5timespEBa_
FNDA:0,_RINvMs6_NtNtCsQLhsInw6KB_19da_client_interface28___mock_MockDaClient_DaClient18___verify_inclusionNtB6_11Expectation4withpEBa_
FNDA:0,_RINvMs6_NtNtCsQLhsInw6KB_19da_client_interface28___mock_MockDaClient_DaClient18___verify_inclusionNtB6_11Expectation5withfpEBa_
FNDA:0,_RINvMs6_NtNtCsQLhsInw6KB_19da_client_interface28___mock_MockDaClient_DaClient18___verify_inclusionNtB6_11Expectation8withf_stpEBa_
FNDA:0,_RNvXs7_NtNtCsQLhsInw6KB_19da_client_interface28___mock_MockDaClient_DaClient18___verify_inclusionNtB5_11ExpectationNtNtCsl82brYPINY5_4core7default7Default7default
FNDA:0,_RNvMs8_NtNtCsQLhsInw6KB_19da_client_interface28___mock_MockDaClient_DaClient18___verify_inclusionNtB5_12Expectations10checkpoint
FNDA:0,_RNvMs8_NtNtCsQLhsInw6KB_19da_client_interface28___mock_MockDaClient_DaClient18___verify_inclusionNtB5_12Expectations6expect
FNDA:0,_RNvMs8_NtNtCsQLhsInw6KB_19da_client_interface28___mock_MockDaClient_DaClient18___verify_inclusionNtB5_12Expectations3new
FNDA:0,_RNvXs9_NtNtCsQLhsInw6KB_19da_client_interface28___mock_MockDaClient_DaClient18___verify_inclusionNtB5_12ExpectationsNtNtCsl82brYPINY5_4core7default7Default7default
FNDA:0,_RNvMsa_NtNtCsQLhsInw6KB_19da_client_interface28___mock_MockDaClient_DaClient18___verify_inclusionNtB5_12Expectations4call
FNDA:0,_RNCNvMsa_NtNtCsQLhsInw6KB_19da_client_interface28___mock_MockDaClient_DaClient18___verify_inclusionNtB7_12Expectations4call0Bb_
FNDA:0,_RNCNvMsa_NtNtCsQLhsInw6KB_19da_client_interface28___mock_MockDaClient_DaClient18___verify_inclusionNtB7_12Expectations4calls_0Bb_
FNDA:0,_RNvMNtNtCsQLhsInw6KB_19da_client_interface28___mock_MockDaClient_DaClient18___max_blob_per_txnNtB2_5Rfunc8call_mut
FNDA:0,_RNvXs_NtNtCsQLhsInw6KB_19da_client_interface28___mock_MockDaClient_DaClient18___max_blob_per_txnNtB4_5RfuncNtNtCsl82brYPINY5_4core7default7Default7default
FNDA:0,_RNvMs0_NtNtCsQLhsInw6KB_19da_client_interface28___mock_MockDaClient_DaClient18___max_blob_per_txnNtB5_7Matcher7matches
FNDA:0,_RNCNvMs0_NtNtCsQLhsInw6KB_19da_client_interface28___mock_MockDaClient_DaClient18___max_blob_per_txnNtB7_7Matcher7matches0Bb_
FNDA:0,_RNvXs1_NtNtCsQLhsInw6KB_19da_client_interface28___mock_MockDaClient_DaClient18___max_blob_per_txnNtB5_7MatcherNtNtCsl82brYPINY5_4core7default7Default7default
FNDA:0,_RNvXs2_NtNtCsQLhsInw6KB_19da_client_interface28___mock_MockDaClient_DaClient18___max_blob_per_txnNtB5_7MatcherNtNtCsl82brYPINY5_4core3fmt7Display3fmt
FNDA:0,_RNvXs3_NtNtCsQLhsInw6KB_19da_client_interface28___mock_MockDaClient_DaClient18___max_blob_per_txnNtB5_6CommonNtNtCsl82brYPINY5_4core7default7Default7default
FNDA:0,_RNvMs4_NtNtCsQLhsInw6KB_19da_client_interface28___mock_MockDaClient_DaClient18___max_blob_per_txnNtB5_6Common4call
FNDA:0,_RNvMs4_NtNtCsQLhsInw6KB_19da_client_interface28___mock_MockDaClient_DaClient18___max_blob_per_txnNtB5_6Common11in_sequence
FNDA:0,_RNvMs4_NtNtCsQLhsInw6KB_19da_client_interface28___mock_MockDaClient_DaClient18___max_blob_per_txnNtB5_6Common7is_done
FNDA:0,_RNvMs4_NtNtCsQLhsInw6KB_19da_client_interface28___mock_MockDaClient_DaClient18___max_blob_per_txnNtB5_6Common7matches
FNDA:0,_RNvMs4_NtNtCsQLhsInw6KB_19da_client_interface28___mock_MockDaClient_DaClient18___max_blob_per_txnNtB5_6Common5never
FNDA:0,_RNvMs4_NtNtCsQLhsInw6KB_19da_client_interface28___mock_MockDaClient_DaClient18___max_blob_per_txnNtB5_6Common16satisfy_sequence
FNDA:0,_RINvMs4_NtNtCsQLhsInw6KB_19da_client_interface28___mock_MockDaClient_DaClient18___max_blob_per_txnNtB6_6Common5timespEBa_
FNDA:0,_RNvMs4_NtNtCsQLhsInw6KB_19da_client_interface28___mock_MockDaClient_DaClient18___max_blob_per_txnNtB5_6Common4with
FNDA:0,_RINvMs4_NtNtCsQLhsInw6KB_19da_client_interface28___mock_MockDaClient_DaClient18___max_blob_per_txnNtB6_6Common5withfpEBa_
FNDA:0,_RINvMs4_NtNtCsQLhsInw6KB_19da_client_interface28___mock_MockDaClient_DaClient18___max_blob_per_txnNtB6_6Common8withf_stpEBa_
FNDA:0,_RNvMs4_NtNtCsQLhsInw6KB_19da_client_interface28___mock_MockDaClient_DaClient18___max_blob_per_txnNtB5_6Common15verify_sequence
FNDA:0,_RNvXs5_NtNtCsQLhsInw6KB_19da_client_interface28___mock_MockDaClient_DaClient18___max_blob_per_txnNtB5_6CommonNtNtNtCsl82brYPINY5_4core3ops4drop4Drop4drop
FNDA:0,_RNvMs6_NtNtCsQLhsInw6KB_19da_client_interface28___mock_MockDaClient_DaClient18___max_blob_per_txnNtB5_11Expectation4call
FNDA:0,_RINvMs6_NtNtCsQLhsInw6KB_19da_client_interface28___mock_MockDaClient_DaClient18___max_blob_per_txnNtB6_11Expectation12return_constpEBa_
FNDA:0,_RNCINvMs6_NtNtCsQLhsInw6KB_19da_client_interface28___mock_MockDaClient_DaClient18___max_blob_per_txnNtB8_11Expectation12return_constpE0Bc_
FNDA:0,_RINvMs6_NtNtCsQLhsInw6KB_19da_client_interface28___mock_MockDaClient_DaClient18___max_blob_per_txnNtB6_11Expectation15return_const_stpEBa_
FNDA:0,_RNCINvMs6_NtNtCsQLhsInw6KB_19da_client_interface28___mock_MockDaClient_DaClient18___max_blob_per_txnNtB8_11Expectation15return_const_stpE0Bc_
FNDA:0,_RINvMs6_NtNtCsQLhsInw6KB_19da_client_interface28___mock_MockDaClient_DaClient18___max_blob_per_txnNtB6_11Expectation11return_oncepEBa_
FNDA:0,_RINvMs6_NtNtCsQLhsInw6KB_19da_client_interface28___mock_MockDaClient_DaClient18___max_blob_per_txnNtB6_11Expectation14return_once_stpEBa_
FNDA:0,_RINvMs6_NtNtCsQLhsInw6KB_19da_client_interface28___mock_MockDaClient_DaClient18___max_blob_per_txnNtB6_11Expectation9returningpEBa_
FNDA:0,_RINvMs6_NtNtCsQLhsInw6KB_19da_client_interface28___mock_MockDaClient_DaClient18___max_blob_per_txnNtB6_11Expectation12returning_stpEBa_
FNDA:0,_RNvMs6_NtNtCsQLhsInw6KB_19da_client_interface28___mock_MockDaClient_DaClient18___max_blob_per_txnNtB5_11Expectation11in_sequence
FNDA:0,_RNvMs6_NtNtCsQLhsInw6KB_19da_client_interface28___mock_MockDaClient_DaClient18___max_blob_per_txnNtB5_11Expectation7is_done
FNDA:0,_RNvMs6_NtNtCsQLhsInw6KB_19da_client_interface28___mock_MockDaClient_DaClient18___max_blob_per_txnNtB5_11Expectation7matches
FNDA:0,_RNvMs6_NtNtCsQLhsInw6KB_19da_client_interface28___mock_MockDaClient_DaClient18___max_blob_per_txnNtB5_11Expectation5never
FNDA:0,_RNvMs6_NtNtCsQLhsInw6KB_19da_client_interface28___mock_MockDaClient_DaClient18___max_blob_per_txnNtB5_11Expectation3new
FNDA:0,_RNvMs6_NtNtCsQLhsInw6KB_19da_client_interface28___mock_MockDaClient_DaClient18___max_blob_per_txnNtB5_11Expectation4once
FNDA:0,_RINvMs6_NtNtCsQLhsInw6KB_19da_client_interface28___mock_MockDaClient_DaClient18___max_blob_per_txnNtB6_11Expectation5timespEBa_
FNDA:0,_RNvMs6_NtNtCsQLhsInw6KB_19da_client_interface28___mock_MockDaClient_DaClient18___max_blob_per_txnNtB5_11Expectation4with
FNDA:0,_RINvMs6_NtNtCsQLhsInw6KB_19da_client_interface28___mock_MockDaClient_DaClient18___max_blob_per_txnNtB6_11Expectation5withfpEBa_
FNDA:0,_RINvMs6_NtNtCsQLhsInw6KB_19da_client_interface28___mock_MockDaClient_DaClient18___max_blob_per_txnNtB6_11Expectation8withf_stpEBa_
FNDA:0,_RNvXs7_NtNtCsQLhsInw6KB_19da_client_interface28___mock_MockDaClient_DaClient18___max_blob_per_txnNtB5_11ExpectationNtNtCsl82brYPINY5_4core7default7Default7default
FNDA:0,_RNvMs8_NtNtCsQLhsInw6KB_19da_client_interface28___mock_MockDaClient_DaClient18___max_blob_per_txnNtB5_12Expectations10checkpoint
FNDA:0,_RNvMs8_NtNtCsQLhsInw6KB_19da_client_interface28___mock_MockDaClient_DaClient18___max_blob_per_txnNtB5_12Expectations6expect
FNDA:0,_RNvMs8_NtNtCsQLhsInw6KB_19da_client_interface28___mock_MockDaClient_DaClient18___max_blob_per_txnNtB5_12Expectations3new
FNDA:0,_RNvXs9_NtNtCsQLhsInw6KB_19da_client_interface28___mock_MockDaClient_DaClient18___max_blob_per_txnNtB5_12ExpectationsNtNtCsl82brYPINY5_4core7default7Default7default
FNDA:0,_RNvMsa_NtNtCsQLhsInw6KB_19da_client_interface28___mock_MockDaClient_DaClient18___max_blob_per_txnNtB5_12Expectations4call
FNDA:0,_RNCNvMsa_NtNtCsQLhsInw6KB_19da_client_interface28___mock_MockDaClient_DaClient18___max_blob_per_txnNtB7_12Expectations4call0Bb_
FNDA:0,_RNCNvMsa_NtNtCsQLhsInw6KB_19da_client_interface28___mock_MockDaClient_DaClient18___max_blob_per_txnNtB7_12Expectations4calls_0Bb_
FNDA:0,_RNvMNtNtCsQLhsInw6KB_19da_client_interface28___mock_MockDaClient_DaClient20___max_bytes_per_blobNtB2_5Rfunc8call_mut
FNDA:0,_RNvXs_NtNtCsQLhsInw6KB_19da_client_interface28___mock_MockDaClient_DaClient20___max_bytes_per_blobNtB4_5RfuncNtNtCsl82brYPINY5_4core7default7Default7default
FNDA:0,_RNvMs0_NtNtCsQLhsInw6KB_19da_client_interface28___mock_MockDaClient_DaClient20___max_bytes_per_blobNtB5_7Matcher7matches
FNDA:0,_RNCNvMs0_NtNtCsQLhsInw6KB_19da_client_interface28___mock_MockDaClient_DaClient20___max_bytes_per_blobNtB7_7Matcher7matches0Bb_
FNDA:0,_RNvXs1_NtNtCsQLhsInw6KB_19da_client_interface28___mock_MockDaClient_DaClient20___max_bytes_per_blobNtB5_7MatcherNtNtCsl82brYPINY5_4core7default7Default7default
FNDA:0,_RNvXs2_NtNtCsQLhsInw6KB_19da_client_interface28___mock_MockDaClient_DaClient20___max_bytes_per_blobNtB5_7MatcherNtNtCsl82brYPINY5_4core3fmt7Display3fmt
FNDA:0,_RNvXs3_NtNtCsQLhsInw6KB_19da_client_interface28___mock_MockDaClient_DaClient20___max_bytes_per_blobNtB5_6CommonNtNtCsl82brYPINY5_4core7default7Default7default
FNDA:0,_RNvMs4_NtNtCsQLhsInw6KB_19da_client_interface28___mock_MockDaClient_DaClient20___max_bytes_per_blobNtB5_6Common4call
FNDA:0,_RNvMs4_NtNtCsQLhsInw6KB_19da_client_interface28___mock_MockDaClient_DaClient20___max_bytes_per_blobNtB5_6Common11in_sequence
FNDA:0,_RNvMs4_NtNtCsQLhsInw6KB_19da_client_interface28___mock_MockDaClient_DaClient20___max_bytes_per_blobNtB5_6Common7is_done
FNDA:0,_RNvMs4_NtNtCsQLhsInw6KB_19da_client_interface28___mock_MockDaClient_DaClient20___max_bytes_per_blobNtB5_6Common7matches
FNDA:0,_RNvMs4_NtNtCsQLhsInw6KB_19da_client_interface28___mock_MockDaClient_DaClient20___max_bytes_per_blobNtB5_6Common5never
FNDA:0,_RNvMs4_NtNtCsQLhsInw6KB_19da_client_interface28___mock_MockDaClient_DaClient20___max_bytes_per_blobNtB5_6Common16satisfy_sequence
FNDA:0,_RINvMs4_NtNtCsQLhsInw6KB_19da_client_interface28___mock_MockDaClient_DaClient20___max_bytes_per_blobNtB6_6Common5timespEBa_
FNDA:0,_RNvMs4_NtNtCsQLhsInw6KB_19da_client_interface28___mock_MockDaClient_DaClient20___max_bytes_per_blobNtB5_6Common4with
FNDA:0,_RINvMs4_NtNtCsQLhsInw6KB_19da_client_interface28___mock_MockDaClient_DaClient20___max_bytes_per_blobNtB6_6Common5withfpEBa_
FNDA:0,_RINvMs4_NtNtCsQLhsInw6KB_19da_client_interface28___mock_MockDaClient_DaClient20___max_bytes_per_blobNtB6_6Common8withf_stpEBa_
FNDA:0,_RNvMs4_NtNtCsQLhsInw6KB_19da_client_interface28___mock_MockDaClient_DaClient20___max_bytes_per_blobNtB5_6Common15verify_sequence
FNDA:0,_RNvXs5_NtNtCsQLhsInw6KB_19da_client_interface28___mock_MockDaClient_DaClient20___max_bytes_per_blobNtB5_6CommonNtNtNtCsl82brYPINY5_4core3ops4drop4Drop4drop
FNDA:0,_RNvMs6_NtNtCsQLhsInw6KB_19da_client_interface28___mock_MockDaClient_DaClient20___max_bytes_per_blobNtB5_11Expectation4call
FNDA:0,_RINvMs6_NtNtCsQLhsInw6KB_19da_client_interface28___mock_MockDaClient_DaClient20___max_bytes_per_blobNtB6_11Expectation12return_constpEBa_
FNDA:0,_RNCINvMs6_NtNtCsQLhsInw6KB_19da_client_interface28___mock_MockDaClient_DaClient20___max_bytes_per_blobNtB8_11Expectation12return_constpE0Bc_
FNDA:0,_RINvMs6_NtNtCsQLhsInw6KB_19da_client_interface28___mock_MockDaClient_DaClient20___max_bytes_per_blobNtB6_11Expectation15return_const_stpEBa_
FNDA:0,_RNCINvMs6_NtNtCsQLhsInw6KB_19da_client_interface28___mock_MockDaClient_DaClient20___max_bytes_per_blobNtB8_11Expectation15return_const_stpE0Bc_
FNDA:0,_RINvMs6_NtNtCsQLhsInw6KB_19da_client_interface28___mock_MockDaClient_DaClient20___max_bytes_per_blobNtB6_11Expectation11return_oncepEBa_
FNDA:0,_RINvMs6_NtNtCsQLhsInw6KB_19da_client_interface28___mock_MockDaClient_DaClient20___max_bytes_per_blobNtB6_11Expectation14return_once_stpEBa_
FNDA:0,_RINvMs6_NtNtCsQLhsInw6KB_19da_client_interface28___mock_MockDaClient_DaClient20___max_bytes_per_blobNtB6_11Expectation9returningpEBa_
FNDA:0,_RINvMs6_NtNtCsQLhsInw6KB_19da_client_interface28___mock_MockDaClient_DaClient20___max_bytes_per_blobNtB6_11Expectation12returning_stpEBa_
FNDA:0,_RNvMs6_NtNtCsQLhsInw6KB_19da_client_interface28___mock_MockDaClient_DaClient20___max_bytes_per_blobNtB5_11Expectation11in_sequence
FNDA:0,_RNvMs6_NtNtCsQLhsInw6KB_19da_client_interface28___mock_MockDaClient_DaClient20___max_bytes_per_blobNtB5_11Expectation7is_done
FNDA:0,_RNvMs6_NtNtCsQLhsInw6KB_19da_client_interface28___mock_MockDaClient_DaClient20___max_bytes_per_blobNtB5_11Expectation7matches
FNDA:0,_RNvMs6_NtNtCsQLhsInw6KB_19da_client_interface28___mock_MockDaClient_DaClient20___max_bytes_per_blobNtB5_11Expectation5never
FNDA:0,_RNvMs6_NtNtCsQLhsInw6KB_19da_client_interface28___mock_MockDaClient_DaClient20___max_bytes_per_blobNtB5_11Expectation3new
FNDA:0,_RNvMs6_NtNtCsQLhsInw6KB_19da_client_interface28___mock_MockDaClient_DaClient20___max_bytes_per_blobNtB5_11Expectation4once
FNDA:0,_RINvMs6_NtNtCsQLhsInw6KB_19da_client_interface28___mock_MockDaClient_DaClient20___max_bytes_per_blobNtB6_11Expectation5timespEBa_
FNDA:0,_RNvMs6_NtNtCsQLhsInw6KB_19da_client_interface28___mock_MockDaClient_DaClient20___max_bytes_per_blobNtB5_11Expectation4with
FNDA:0,_RINvMs6_NtNtCsQLhsInw6KB_19da_client_interface28___mock_MockDaClient_DaClient20___max_bytes_per_blobNtB6_11Expectation5withfpEBa_
FNDA:0,_RINvMs6_NtNtCsQLhsInw6KB_19da_client_interface28___mock_MockDaClient_DaClient20___max_bytes_per_blobNtB6_11Expectation8withf_stpEBa_
FNDA:0,_RNvXs7_NtNtCsQLhsInw6KB_19da_client_interface28___mock_MockDaClient_DaClient20___max_bytes_per_blobNtB5_11ExpectationNtNtCsl82brYPINY5_4core7default7Default7default
FNDA:0,_RNvMs8_NtNtCsQLhsInw6KB_19da_client_interface28___mock_MockDaClient_DaClient20___max_bytes_per_blobNtB5_12Expectations10checkpoint
FNDA:0,_RNvMs8_NtNtCsQLhsInw6KB_19da_client_interface28___mock_MockDaClient_DaClient20___max_bytes_per_blobNtB5_12Expectations6expect
FNDA:0,_RNvMs8_NtNtCsQLhsInw6KB_19da_client_interface28___mock_MockDaClient_DaClient20___max_bytes_per_blobNtB5_12Expectations3new
FNDA:0,_RNvXs9_NtNtCsQLhsInw6KB_19da_client_interface28___mock_MockDaClient_DaClient20___max_bytes_per_blobNtB5_12ExpectationsNtNtCsl82brYPINY5_4core7default7Default7default
FNDA:0,_RNvMsa_NtNtCsQLhsInw6KB_19da_client_interface28___mock_MockDaClient_DaClient20___max_bytes_per_blobNtB5_12Expectations4call
FNDA:0,_RNCNvMsa_NtNtCsQLhsInw6KB_19da_client_interface28___mock_MockDaClient_DaClient20___max_bytes_per_blobNtB7_12Expectations4call0Bb_
FNDA:0,_RNCNvMsa_NtNtCsQLhsInw6KB_19da_client_interface28___mock_MockDaClient_DaClient20___max_bytes_per_blobNtB7_12Expectations4calls_0Bb_
FNDA:0,_RNvXs5_CsQLhsInw6KB_19da_client_interfaceNtB5_21MockDaClient_DaClientNtNtCsl82brYPINY5_4core7default7Default7default
FNDA:0,_RNvMs6_CsQLhsInw6KB_19da_client_interfaceNtB5_21MockDaClient_DaClient10checkpoint
FNDA:0,_RNvMs7_CsQLhsInw6KB_19da_client_interfaceNtB5_12MockDaClient10checkpoint
FNDA:0,_RNvMs7_CsQLhsInw6KB_19da_client_interfaceNtB5_12MockDaClient3new
FNDA:0,_RNvXs9_CsQLhsInw6KB_19da_client_interfaceNtB5_12MockDaClientNtB5_8DaClient18publish_state_diff
FNDA:0,_RNCNvXs9_CsQLhsInw6KB_19da_client_interfaceNtB7_12MockDaClientNtB7_8DaClient18publish_state_diff0B7_
FNDA:0,_RNvXs9_CsQLhsInw6KB_19da_client_interfaceNtB5_12MockDaClientNtB5_8DaClient16verify_inclusion
FNDA:0,_RNCNvXs9_CsQLhsInw6KB_19da_client_interfaceNtB7_12MockDaClientNtB7_8DaClient16verify_inclusion0B7_
FNDA:0,_RNvXs9_CsQLhsInw6KB_19da_client_interfaceNtB5_12MockDaClientNtB5_8DaClient16max_blob_per_txn
FNDA:0,_RNCNvXs9_CsQLhsInw6KB_19da_client_interfaceNtB7_12MockDaClientNtB7_8DaClient16max_blob_per_txn0B7_
FNDA:0,_RNvXs9_CsQLhsInw6KB_19da_client_interfaceNtB5_12MockDaClientNtB5_8DaClient18max_bytes_per_blob
FNDA:0,_RNCNvXs9_CsQLhsInw6KB_19da_client_interfaceNtB7_12MockDaClientNtB7_8DaClient18max_bytes_per_blob0B7_
FNDA:0,_RNvMs8_CsQLhsInw6KB_19da_client_interfaceNtB5_12MockDaClient25expect_publish_state_diff
FNDA:0,_RNvMs8_CsQLhsInw6KB_19da_client_interfaceNtB5_12MockDaClient23expect_verify_inclusion
FNDA:0,_RNvMs8_CsQLhsInw6KB_19da_client_interfaceNtB5_12MockDaClient23expect_max_blob_per_txn
FNDA:0,_RNvMs8_CsQLhsInw6KB_19da_client_interfaceNtB5_12MockDaClient25expect_max_bytes_per_blob
FNDA:8,_RNvMs7_Csd2a39Kes4Ul_19da_client_interfaceNtB5_12MockDaClient3new
FNDA:24,_RNvXs4_Csd2a39Kes4Ul_19da_client_interfaceNtB5_12MockDaClientNtNtCsl82brYPINY5_4core7default7Default7default
FNDA:24,_RNvXs5_Csd2a39Kes4Ul_19da_client_interfaceNtB5_21MockDaClient_DaClientNtNtCsl82brYPINY5_4core7default7Default7default
FNDA:24,_RNvXs9_NtNtCsd2a39Kes4Ul_19da_client_interface28___mock_MockDaClient_DaClient20___publish_state_diffNtB5_12ExpectationsNtNtCsl82brYPINY5_4core7default7Default7default
FNDA:24,_RNvXs9_NtNtCsd2a39Kes4Ul_19da_client_interface28___mock_MockDaClient_DaClient18___verify_inclusionNtB5_12ExpectationsNtNtCsl82brYPINY5_4core7default7Default7default
FNDA:24,_RNvXs9_NtNtCsd2a39Kes4Ul_19da_client_interface28___mock_MockDaClient_DaClient18___max_blob_per_txnNtB5_12ExpectationsNtNtCsl82brYPINY5_4core7default7Default7default
FNDA:24,_RNvXs9_NtNtCsd2a39Kes4Ul_19da_client_interface28___mock_MockDaClient_DaClient20___max_bytes_per_blobNtB5_12ExpectationsNtNtCsl82brYPINY5_4core7default7Default7default
FNDA:1,_RINvMs6_NtNtCsd2a39Kes4Ul_19da_client_interface28___mock_MockDaClient_DaClient18___max_blob_per_txnNtB6_11Expectation5timesjECsf72If0ieCLb_12orchestrator
FNDA:1,_RINvMs4_NtNtCsd2a39Kes4Ul_19da_client_interface28___mock_MockDaClient_DaClient18___max_blob_per_txnNtB6_6Common5timesjECsf72If0ieCLb_12orchestrator
FNDA:1,_RINvMs6_NtNtCsd2a39Kes4Ul_19da_client_interface28___mock_MockDaClient_DaClient18___max_blob_per_txnNtB6_11Expectation9returningNCNCNvNCNvNtNtNtCsf72If0ieCLb_12orchestrator5tests4jobs6da_jobs_16test_process_job016test_process_job0s0_0EB2h_
FNDA:1,_RINvMs6_NtNtCsd2a39Kes4Ul_19da_client_interface28___mock_MockDaClient_DaClient18___verify_inclusionNtB6_11Expectation5timesjECsf72If0ieCLb_12orchestrator
FNDA:1,_RINvMs4_NtNtCsd2a39Kes4Ul_19da_client_interface28___mock_MockDaClient_DaClient18___verify_inclusionNtB6_6Common5timesjECsf72If0ieCLb_12orchestrator
FNDA:1,_RINvMs6_NtNtCsd2a39Kes4Ul_19da_client_interface28___mock_MockDaClient_DaClient18___verify_inclusionNtB6_11Expectation9returningNCNCNvNCNvNtNtNtCsf72If0ieCLb_12orchestrator5tests4jobs6da_jobs_15test_verify_job015test_verify_job00EB2h_
FNDA:1,_RINvMs6_NtNtCsd2a39Kes4Ul_19da_client_interface28___mock_MockDaClient_DaClient20___max_bytes_per_blobNtB6_11Expectation5timesjECsf72If0ieCLb_12orchestrator
FNDA:1,_RINvMs4_NtNtCsd2a39Kes4Ul_19da_client_interface28___mock_MockDaClient_DaClient20___max_bytes_per_blobNtB6_6Common5timesjECsf72If0ieCLb_12orchestrator
FNDA:1,_RINvMs6_NtNtCsd2a39Kes4Ul_19da_client_interface28___mock_MockDaClient_DaClient20___max_bytes_per_blobNtB6_11Expectation9returningNCNCNvNCNvNtNtNtCsf72If0ieCLb_12orchestrator5tests4jobs6da_jobs_16test_process_job016test_process_job0s_0EB2j_
FNDA:1,_RINvMs6_NtNtCsd2a39Kes4Ul_19da_client_interface28___mock_MockDaClient_DaClient20___publish_state_diffNtB6_11Expectation5timesjECsf72If0ieCLb_12orchestrator
FNDA:1,_RINvMs4_NtNtCsd2a39Kes4Ul_19da_client_interface28___mock_MockDaClient_DaClient20___publish_state_diffNtB6_6Common5timesjECsf72If0ieCLb_12orchestrator
FNDA:1,_RINvMs6_NtNtCsd2a39Kes4Ul_19da_client_interface28___mock_MockDaClient_DaClient20___publish_state_diffNtB6_11Expectation9returningNCNCNvNCNvNtNtNtCsf72If0ieCLb_12orchestrator5tests4jobs6da_jobs_16test_process_job016test_process_job00EB2j_
FNDA:0,_RNvXs3_Csd2a39Kes4Ul_19da_client_interfaceNtB5_12MockDaClientNtNtCsl82brYPINY5_4core3fmt5Debug3fmt
FNDA:0,_RNvMs6_Csd2a39Kes4Ul_19da_client_interfaceNtB5_21MockDaClient_DaClient10checkpoint
FNDA:0,_RNvMs7_Csd2a39Kes4Ul_19da_client_interfaceNtB5_12MockDaClient10checkpoint
FNDA:1,_RNvMs8_Csd2a39Kes4Ul_19da_client_interfaceNtB5_12MockDaClient25expect_publish_state_diff
FNDA:1,_RNvMs8_Csd2a39Kes4Ul_19da_client_interfaceNtB5_12MockDaClient23expect_verify_inclusion
FNDA:1,_RNvMs8_Csd2a39Kes4Ul_19da_client_interfaceNtB5_12MockDaClient23expect_max_blob_per_txn
FNDA:1,_RNvMs8_Csd2a39Kes4Ul_19da_client_interfaceNtB5_12MockDaClient25expect_max_bytes_per_blob
FNDA:1,_RNvXs9_Csd2a39Kes4Ul_19da_client_interfaceNtB5_12MockDaClientNtB5_8DaClient18publish_state_diff
FNDA:1,_RNCNvXs9_Csd2a39Kes4Ul_19da_client_interfaceNtB7_12MockDaClientNtB7_8DaClient18publish_state_diff0B7_
FNDA:1,_RNvXs9_Csd2a39Kes4Ul_19da_client_interfaceNtB5_12MockDaClientNtB5_8DaClient16verify_inclusion
FNDA:1,_RNCNvXs9_Csd2a39Kes4Ul_19da_client_interfaceNtB7_12MockDaClientNtB7_8DaClient16verify_inclusion0B7_
FNDA:1,_RNvXs9_Csd2a39Kes4Ul_19da_client_interfaceNtB5_12MockDaClientNtB5_8DaClient16max_blob_per_txn
FNDA:1,_RNCNvXs9_Csd2a39Kes4Ul_19da_client_interfaceNtB7_12MockDaClientNtB7_8DaClient16max_blob_per_txn0B7_
FNDA:1,_RNvXs9_Csd2a39Kes4Ul_19da_client_interfaceNtB5_12MockDaClientNtB5_8DaClient18max_bytes_per_blob
FNDA:1,_RNCNvXs9_Csd2a39Kes4Ul_19da_client_interfaceNtB7_12MockDaClientNtB7_8DaClient18max_bytes_per_blob0B7_
FNDA:1,_RNvMNtNtCsd2a39Kes4Ul_19da_client_interface28___mock_MockDaClient_DaClient20___publish_state_diffNtB2_5Rfunc8call_mut
FNDA:1,_RNvMs0_NtNtCsd2a39Kes4Ul_19da_client_interface28___mock_MockDaClient_DaClient20___publish_state_diffNtB5_7Matcher7matches
FNDA:0,_RNCNvMs0_NtNtCsd2a39Kes4Ul_19da_client_interface28___mock_MockDaClient_DaClient20___publish_state_diffNtB7_7Matcher7matches0Bb_
FNDA:1,_RNvXs2_NtNtCsd2a39Kes4Ul_19da_client_interface28___mock_MockDaClient_DaClient20___publish_state_diffNtB5_7MatcherNtNtCsl82brYPINY5_4core3fmt7Display3fmt
FNDA:1,_RNvMs4_NtNtCsd2a39Kes4Ul_19da_client_interface28___mock_MockDaClient_DaClient20___publish_state_diffNtB5_6Common4call
FNDA:0,_RNvMs4_NtNtCsd2a39Kes4Ul_19da_client_interface28___mock_MockDaClient_DaClient20___publish_state_diffNtB5_6Common11in_sequence
FNDA:1,_RNvMs4_NtNtCsd2a39Kes4Ul_19da_client_interface28___mock_MockDaClient_DaClient20___publish_state_diffNtB5_6Common7is_done
FNDA:1,_RNvMs4_NtNtCsd2a39Kes4Ul_19da_client_interface28___mock_MockDaClient_DaClient20___publish_state_diffNtB5_6Common7matches
FNDA:1,_RNvMs4_NtNtCsd2a39Kes4Ul_19da_client_interface28___mock_MockDaClient_DaClient20___publish_state_diffNtB5_6Common16satisfy_sequence
FNDA:1,_RNvMs4_NtNtCsd2a39Kes4Ul_19da_client_interface28___mock_MockDaClient_DaClient20___publish_state_diffNtB5_6Common15verify_sequence
FNDA:1,_RNvXs5_NtNtCsd2a39Kes4Ul_19da_client_interface28___mock_MockDaClient_DaClient20___publish_state_diffNtB5_6CommonNtNtNtCsl82brYPINY5_4core3ops4drop4Drop4drop
FNDA:1,_RNvMs6_NtNtCsd2a39Kes4Ul_19da_client_interface28___mock_MockDaClient_DaClient20___publish_state_diffNtB5_11Expectation4call
FNDA:0,_RNvMs6_NtNtCsd2a39Kes4Ul_19da_client_interface28___mock_MockDaClient_DaClient20___publish_state_diffNtB5_11Expectation11in_sequence
FNDA:1,_RNvMs6_NtNtCsd2a39Kes4Ul_19da_client_interface28___mock_MockDaClient_DaClient20___publish_state_diffNtB5_11Expectation7is_done
FNDA:1,_RNvMs6_NtNtCsd2a39Kes4Ul_19da_client_interface28___mock_MockDaClient_DaClient20___publish_state_diffNtB5_11Expectation7matches
FNDA:0,_RNvMs6_NtNtCsd2a39Kes4Ul_19da_client_interface28___mock_MockDaClient_DaClient20___publish_state_diffNtB5_11Expectation3new
FNDA:0,_RNvMs6_NtNtCsd2a39Kes4Ul_19da_client_interface28___mock_MockDaClient_DaClient20___publish_state_diffNtB5_11Expectation4once
FNDA:0,_RINvMs6_NtNtCsd2a39Kes4Ul_19da_client_interface28___mock_MockDaClient_DaClient20___publish_state_diffNtB6_11Expectation5timesjEBa_
FNDA:0,_RINvMs4_NtNtCsd2a39Kes4Ul_19da_client_interface28___mock_MockDaClient_DaClient20___publish_state_diffNtB6_6Common5timesjEBa_
FNDA:1,_RNvXs7_NtNtCsd2a39Kes4Ul_19da_client_interface28___mock_MockDaClient_DaClient20___publish_state_diffNtB5_11ExpectationNtNtCsl82brYPINY5_4core7default7Default7default
FNDA:1,_RNvXs3_NtNtCsd2a39Kes4Ul_19da_client_interface28___mock_MockDaClient_DaClient20___publish_state_diffNtB5_6CommonNtNtCsl82brYPINY5_4core7default7Default7default
FNDA:1,_RNvXs1_NtNtCsd2a39Kes4Ul_19da_client_interface28___mock_MockDaClient_DaClient20___publish_state_diffNtB5_7MatcherNtNtCsl82brYPINY5_4core7default7Default7default
FNDA:1,_RNvXs_NtNtCsd2a39Kes4Ul_19da_client_interface28___mock_MockDaClient_DaClient20___publish_state_diffNtB4_5RfuncNtNtCsl82brYPINY5_4core7default7Default7default
FNDA:0,_RNvMs8_NtNtCsd2a39Kes4Ul_19da_client_interface28___mock_MockDaClient_DaClient20___publish_state_diffNtB5_12Expectations10checkpoint
FNDA:1,_RNvMs8_NtNtCsd2a39Kes4Ul_19da_client_interface28___mock_MockDaClient_DaClient20___publish_state_diffNtB5_12Expectations6expect
FNDA:1,_RNvMsa_NtNtCsd2a39Kes4Ul_19da_client_interface28___mock_MockDaClient_DaClient20___publish_state_diffNtB5_12Expectations4call
FNDA:1,_RNCNvMsa_NtNtCsd2a39Kes4Ul_19da_client_interface28___mock_MockDaClient_DaClient20___publish_state_diffNtB7_12Expectations4calls_0Bb_
FNDA:1,_RNCNvMsa_NtNtCsd2a39Kes4Ul_19da_client_interface28___mock_MockDaClient_DaClient20___publish_state_diffNtB7_12Expectations4call0Bb_
FNDA:1,_RNvMNtNtCsd2a39Kes4Ul_19da_client_interface28___mock_MockDaClient_DaClient20___max_bytes_per_blobNtB2_5Rfunc8call_mut
FNDA:1,_RNvMs0_NtNtCsd2a39Kes4Ul_19da_client_interface28___mock_MockDaClient_DaClient20___max_bytes_per_blobNtB5_7Matcher7matches
FNDA:0,_RNCNvMs0_NtNtCsd2a39Kes4Ul_19da_client_interface28___mock_MockDaClient_DaClient20___max_bytes_per_blobNtB7_7Matcher7matches0Bb_
FNDA:1,_RNvXs2_NtNtCsd2a39Kes4Ul_19da_client_interface28___mock_MockDaClient_DaClient20___max_bytes_per_blobNtB5_7MatcherNtNtCsl82brYPINY5_4core3fmt7Display3fmt
FNDA:1,_RNvMs4_NtNtCsd2a39Kes4Ul_19da_client_interface28___mock_MockDaClient_DaClient20___max_bytes_per_blobNtB5_6Common4call
FNDA:0,_RNvMs4_NtNtCsd2a39Kes4Ul_19da_client_interface28___mock_MockDaClient_DaClient20___max_bytes_per_blobNtB5_6Common11in_sequence
FNDA:1,_RNvMs4_NtNtCsd2a39Kes4Ul_19da_client_interface28___mock_MockDaClient_DaClient20___max_bytes_per_blobNtB5_6Common7is_done
FNDA:1,_RNvMs4_NtNtCsd2a39Kes4Ul_19da_client_interface28___mock_MockDaClient_DaClient20___max_bytes_per_blobNtB5_6Common7matches
FNDA:1,_RNvMs4_NtNtCsd2a39Kes4Ul_19da_client_interface28___mock_MockDaClient_DaClient20___max_bytes_per_blobNtB5_6Common16satisfy_sequence
FNDA:0,_RNvMs4_NtNtCsd2a39Kes4Ul_19da_client_interface28___mock_MockDaClient_DaClient20___max_bytes_per_blobNtB5_6Common4with
FNDA:1,_RNvMs4_NtNtCsd2a39Kes4Ul_19da_client_interface28___mock_MockDaClient_DaClient20___max_bytes_per_blobNtB5_6Common15verify_sequence
FNDA:1,_RNvXs5_NtNtCsd2a39Kes4Ul_19da_client_interface28___mock_MockDaClient_DaClient20___max_bytes_per_blobNtB5_6CommonNtNtNtCsl82brYPINY5_4core3ops4drop4Drop4drop
FNDA:1,_RNvMs6_NtNtCsd2a39Kes4Ul_19da_client_interface28___mock_MockDaClient_DaClient20___max_bytes_per_blobNtB5_11Expectation4call
FNDA:0,_RNvMs6_NtNtCsd2a39Kes4Ul_19da_client_interface28___mock_MockDaClient_DaClient20___max_bytes_per_blobNtB5_11Expectation11in_sequence
FNDA:1,_RNvMs6_NtNtCsd2a39Kes4Ul_19da_client_interface28___mock_MockDaClient_DaClient20___max_bytes_per_blobNtB5_11Expectation7is_done
FNDA:1,_RNvMs6_NtNtCsd2a39Kes4Ul_19da_client_interface28___mock_MockDaClient_DaClient20___max_bytes_per_blobNtB5_11Expectation7matches
FNDA:0,_RNvMs6_NtNtCsd2a39Kes4Ul_19da_client_interface28___mock_MockDaClient_DaClient20___max_bytes_per_blobNtB5_11Expectation3new
FNDA:0,_RNvMs6_NtNtCsd2a39Kes4Ul_19da_client_interface28___mock_MockDaClient_DaClient20___max_bytes_per_blobNtB5_11Expectation4once
FNDA:0,_RINvMs6_NtNtCsd2a39Kes4Ul_19da_client_interface28___mock_MockDaClient_DaClient20___max_bytes_per_blobNtB6_11Expectation5timesjEBa_
FNDA:0,_RINvMs4_NtNtCsd2a39Kes4Ul_19da_client_interface28___mock_MockDaClient_DaClient20___max_bytes_per_blobNtB6_6Common5timesjEBa_
FNDA:0,_RNvMs6_NtNtCsd2a39Kes4Ul_19da_client_interface28___mock_MockDaClient_DaClient20___max_bytes_per_blobNtB5_11Expectation4with
FNDA:1,_RNvXs7_NtNtCsd2a39Kes4Ul_19da_client_interface28___mock_MockDaClient_DaClient20___max_bytes_per_blobNtB5_11ExpectationNtNtCsl82brYPINY5_4core7default7Default7default
FNDA:1,_RNvXs3_NtNtCsd2a39Kes4Ul_19da_client_interface28___mock_MockDaClient_DaClient20___max_bytes_per_blobNtB5_6CommonNtNtCsl82brYPINY5_4core7default7Default7default
FNDA:1,_RNvXs1_NtNtCsd2a39Kes4Ul_19da_client_interface28___mock_MockDaClient_DaClient20___max_bytes_per_blobNtB5_7MatcherNtNtCsl82brYPINY5_4core7default7Default7default
FNDA:1,_RNvXs_NtNtCsd2a39Kes4Ul_19da_client_interface28___mock_MockDaClient_DaClient20___max_bytes_per_blobNtB4_5RfuncNtNtCsl82brYPINY5_4core7default7Default7default
FNDA:0,_RNvMs8_NtNtCsd2a39Kes4Ul_19da_client_interface28___mock_MockDaClient_DaClient20___max_bytes_per_blobNtB5_12Expectations10checkpoint
FNDA:1,_RNvMs8_NtNtCsd2a39Kes4Ul_19da_client_interface28___mock_MockDaClient_DaClient20___max_bytes_per_blobNtB5_12Expectations6expect
FNDA:1,_RNvMsa_NtNtCsd2a39Kes4Ul_19da_client_interface28___mock_MockDaClient_DaClient20___max_bytes_per_blobNtB5_12Expectations4call
FNDA:1,_RNCNvMsa_NtNtCsd2a39Kes4Ul_19da_client_interface28___mock_MockDaClient_DaClient20___max_bytes_per_blobNtB7_12Expectations4calls_0Bb_
FNDA:1,_RNCNvMsa_NtNtCsd2a39Kes4Ul_19da_client_interface28___mock_MockDaClient_DaClient20___max_bytes_per_blobNtB7_12Expectations4call0Bb_
FNDA:1,_RNvMNtNtCsd2a39Kes4Ul_19da_client_interface28___mock_MockDaClient_DaClient18___max_blob_per_txnNtB2_5Rfunc8call_mut
FNDA:1,_RNvMs0_NtNtCsd2a39Kes4Ul_19da_client_interface28___mock_MockDaClient_DaClient18___max_blob_per_txnNtB5_7Matcher7matches
FNDA:0,_RNCNvMs0_NtNtCsd2a39Kes4Ul_19da_client_interface28___mock_MockDaClient_DaClient18___max_blob_per_txnNtB7_7Matcher7matches0Bb_
FNDA:1,_RNvXs2_NtNtCsd2a39Kes4Ul_19da_client_interface28___mock_MockDaClient_DaClient18___max_blob_per_txnNtB5_7MatcherNtNtCsl82brYPINY5_4core3fmt7Display3fmt
FNDA:1,_RNvMs4_NtNtCsd2a39Kes4Ul_19da_client_interface28___mock_MockDaClient_DaClient18___max_blob_per_txnNtB5_6Common4call
FNDA:0,_RNvMs4_NtNtCsd2a39Kes4Ul_19da_client_interface28___mock_MockDaClient_DaClient18___max_blob_per_txnNtB5_6Common11in_sequence
FNDA:1,_RNvMs4_NtNtCsd2a39Kes4Ul_19da_client_interface28___mock_MockDaClient_DaClient18___max_blob_per_txnNtB5_6Common7is_done
FNDA:1,_RNvMs4_NtNtCsd2a39Kes4Ul_19da_client_interface28___mock_MockDaClient_DaClient18___max_blob_per_txnNtB5_6Common7matches
FNDA:1,_RNvMs4_NtNtCsd2a39Kes4Ul_19da_client_interface28___mock_MockDaClient_DaClient18___max_blob_per_txnNtB5_6Common16satisfy_sequence
FNDA:0,_RNvMs4_NtNtCsd2a39Kes4Ul_19da_client_interface28___mock_MockDaClient_DaClient18___max_blob_per_txnNtB5_6Common4with
FNDA:1,_RNvMs4_NtNtCsd2a39Kes4Ul_19da_client_interface28___mock_MockDaClient_DaClient18___max_blob_per_txnNtB5_6Common15verify_sequence
FNDA:1,_RNvXs5_NtNtCsd2a39Kes4Ul_19da_client_interface28___mock_MockDaClient_DaClient18___max_blob_per_txnNtB5_6CommonNtNtNtCsl82brYPINY5_4core3ops4drop4Drop4drop
FNDA:1,_RNvMs6_NtNtCsd2a39Kes4Ul_19da_client_interface28___mock_MockDaClient_DaClient18___max_blob_per_txnNtB5_11Expectation4call
FNDA:0,_RNvMs6_NtNtCsd2a39Kes4Ul_19da_client_interface28___mock_MockDaClient_DaClient18___max_blob_per_txnNtB5_11Expectation11in_sequence
FNDA:1,_RNvMs6_NtNtCsd2a39Kes4Ul_19da_client_interface28___mock_MockDaClient_DaClient18___max_blob_per_txnNtB5_11Expectation7is_done
FNDA:1,_RNvMs6_NtNtCsd2a39Kes4Ul_19da_client_interface28___mock_MockDaClient_DaClient18___max_blob_per_txnNtB5_11Expectation7matches
FNDA:0,_RNvMs6_NtNtCsd2a39Kes4Ul_19da_client_interface28___mock_MockDaClient_DaClient18___max_blob_per_txnNtB5_11Expectation3new
FNDA:0,_RNvMs6_NtNtCsd2a39Kes4Ul_19da_client_interface28___mock_MockDaClient_DaClient18___max_blob_per_txnNtB5_11Expectation4once
FNDA:0,_RINvMs6_NtNtCsd2a39Kes4Ul_19da_client_interface28___mock_MockDaClient_DaClient18___max_blob_per_txnNtB6_11Expectation5timesjEBa_
FNDA:0,_RINvMs4_NtNtCsd2a39Kes4Ul_19da_client_interface28___mock_MockDaClient_DaClient18___max_blob_per_txnNtB6_6Common5timesjEBa_
FNDA:0,_RNvMs6_NtNtCsd2a39Kes4Ul_19da_client_interface28___mock_MockDaClient_DaClient18___max_blob_per_txnNtB5_11Expectation4with
FNDA:1,_RNvXs7_NtNtCsd2a39Kes4Ul_19da_client_interface28___mock_MockDaClient_DaClient18___max_blob_per_txnNtB5_11ExpectationNtNtCsl82brYPINY5_4core7default7Default7default
FNDA:1,_RNvXs3_NtNtCsd2a39Kes4Ul_19da_client_interface28___mock_MockDaClient_DaClient18___max_blob_per_txnNtB5_6CommonNtNtCsl82brYPINY5_4core7default7Default7default
FNDA:1,_RNvXs1_NtNtCsd2a39Kes4Ul_19da_client_interface28___mock_MockDaClient_DaClient18___max_blob_per_txnNtB5_7MatcherNtNtCsl82brYPINY5_4core7default7Default7default
FNDA:1,_RNvXs_NtNtCsd2a39Kes4Ul_19da_client_interface28___mock_MockDaClient_DaClient18___max_blob_per_txnNtB4_5RfuncNtNtCsl82brYPINY5_4core7default7Default7default
FNDA:0,_RNvMs8_NtNtCsd2a39Kes4Ul_19da_client_interface28___mock_MockDaClient_DaClient18___max_blob_per_txnNtB5_12Expectations10checkpoint
FNDA:1,_RNvMs8_NtNtCsd2a39Kes4Ul_19da_client_interface28___mock_MockDaClient_DaClient18___max_blob_per_txnNtB5_12Expectations6expect
FNDA:1,_RNvMsa_NtNtCsd2a39Kes4Ul_19da_client_interface28___mock_MockDaClient_DaClient18___max_blob_per_txnNtB5_12Expectations4call
FNDA:1,_RNCNvMsa_NtNtCsd2a39Kes4Ul_19da_client_interface28___mock_MockDaClient_DaClient18___max_blob_per_txnNtB7_12Expectations4calls_0Bb_
FNDA:1,_RNCNvMsa_NtNtCsd2a39Kes4Ul_19da_client_interface28___mock_MockDaClient_DaClient18___max_blob_per_txnNtB7_12Expectations4call0Bb_
FNDA:1,_RNvMNtNtCsd2a39Kes4Ul_19da_client_interface28___mock_MockDaClient_DaClient18___verify_inclusionNtB2_5Rfunc8call_mut
FNDA:1,_RNvMs0_NtNtCsd2a39Kes4Ul_19da_client_interface28___mock_MockDaClient_DaClient18___verify_inclusionNtB5_7Matcher7matches
FNDA:0,_RNCNvMs0_NtNtCsd2a39Kes4Ul_19da_client_interface28___mock_MockDaClient_DaClient18___verify_inclusionNtB7_7Matcher7matches0Bb_
FNDA:1,_RNvXs2_NtNtCsd2a39Kes4Ul_19da_client_interface28___mock_MockDaClient_DaClient18___verify_inclusionNtB5_7MatcherNtNtCsl82brYPINY5_4core3fmt7Display3fmt
FNDA:1,_RNvMs4_NtNtCsd2a39Kes4Ul_19da_client_interface28___mock_MockDaClient_DaClient18___verify_inclusionNtB5_6Common4call
FNDA:0,_RNvMs4_NtNtCsd2a39Kes4Ul_19da_client_interface28___mock_MockDaClient_DaClient18___verify_inclusionNtB5_6Common11in_sequence
FNDA:1,_RNvMs4_NtNtCsd2a39Kes4Ul_19da_client_interface28___mock_MockDaClient_DaClient18___verify_inclusionNtB5_6Common7is_done
FNDA:1,_RNvMs4_NtNtCsd2a39Kes4Ul_19da_client_interface28___mock_MockDaClient_DaClient18___verify_inclusionNtB5_6Common7matches
FNDA:1,_RNvMs4_NtNtCsd2a39Kes4Ul_19da_client_interface28___mock_MockDaClient_DaClient18___verify_inclusionNtB5_6Common16satisfy_sequence
FNDA:1,_RNvMs4_NtNtCsd2a39Kes4Ul_19da_client_interface28___mock_MockDaClient_DaClient18___verify_inclusionNtB5_6Common15verify_sequence
FNDA:1,_RNvXs5_NtNtCsd2a39Kes4Ul_19da_client_interface28___mock_MockDaClient_DaClient18___verify_inclusionNtB5_6CommonNtNtNtCsl82brYPINY5_4core3ops4drop4Drop4drop
FNDA:1,_RNvMs6_NtNtCsd2a39Kes4Ul_19da_client_interface28___mock_MockDaClient_DaClient18___verify_inclusionNtB5_11Expectation4call
FNDA:0,_RNvMs6_NtNtCsd2a39Kes4Ul_19da_client_interface28___mock_MockDaClient_DaClient18___verify_inclusionNtB5_11Expectation11in_sequence
FNDA:1,_RNvMs6_NtNtCsd2a39Kes4Ul_19da_client_interface28___mock_MockDaClient_DaClient18___verify_inclusionNtB5_11Expectation7is_done
FNDA:1,_RNvMs6_NtNtCsd2a39Kes4Ul_19da_client_interface28___mock_MockDaClient_DaClient18___verify_inclusionNtB5_11Expectation7matches
FNDA:0,_RNvMs6_NtNtCsd2a39Kes4Ul_19da_client_interface28___mock_MockDaClient_DaClient18___verify_inclusionNtB5_11Expectation3new
FNDA:0,_RNvMs6_NtNtCsd2a39Kes4Ul_19da_client_interface28___mock_MockDaClient_DaClient18___verify_inclusionNtB5_11Expectation4once
FNDA:0,_RINvMs6_NtNtCsd2a39Kes4Ul_19da_client_interface28___mock_MockDaClient_DaClient18___verify_inclusionNtB6_11Expectation5timesjEBa_
FNDA:0,_RINvMs4_NtNtCsd2a39Kes4Ul_19da_client_interface28___mock_MockDaClient_DaClient18___verify_inclusionNtB6_6Common5timesjEBa_
FNDA:1,_RNvXs7_NtNtCsd2a39Kes4Ul_19da_client_interface28___mock_MockDaClient_DaClient18___verify_inclusionNtB5_11ExpectationNtNtCsl82brYPINY5_4core7default7Default7default
FNDA:1,_RNvXs3_NtNtCsd2a39Kes4Ul_19da_client_interface28___mock_MockDaClient_DaClient18___verify_inclusionNtB5_6CommonNtNtCsl82brYPINY5_4core7default7Default7default
FNDA:1,_RNvXs1_NtNtCsd2a39Kes4Ul_19da_client_interface28___mock_MockDaClient_DaClient18___verify_inclusionNtB5_7MatcherNtNtCsl82brYPINY5_4core7default7Default7default
FNDA:1,_RNvXs_NtNtCsd2a39Kes4Ul_19da_client_interface28___mock_MockDaClient_DaClient18___verify_inclusionNtB4_5RfuncNtNtCsl82brYPINY5_4core7default7Default7default
FNDA:0,_RNvMs8_NtNtCsd2a39Kes4Ul_19da_client_interface28___mock_MockDaClient_DaClient18___verify_inclusionNtB5_12Expectations10checkpoint
FNDA:1,_RNvMs8_NtNtCsd2a39Kes4Ul_19da_client_interface28___mock_MockDaClient_DaClient18___verify_inclusionNtB5_12Expectations6expect
FNDA:1,_RNvMsa_NtNtCsd2a39Kes4Ul_19da_client_interface28___mock_MockDaClient_DaClient18___verify_inclusionNtB5_12Expectations4call
FNDA:1,_RNCNvMsa_NtNtCsd2a39Kes4Ul_19da_client_interface28___mock_MockDaClient_DaClient18___verify_inclusionNtB7_12Expectations4calls_0Bb_
FNDA:1,_RNCNvMsa_NtNtCsd2a39Kes4Ul_19da_client_interface28___mock_MockDaClient_DaClient18___verify_inclusionNtB7_12Expectations4call0Bb_
FNDA:0,_RNvMs4_NtNtCsd2a39Kes4Ul_19da_client_interface28___mock_MockDaClient_DaClient20___publish_state_diffNtB5_6Common5never
FNDA:0,_RINvMs4_NtNtCsd2a39Kes4Ul_19da_client_interface28___mock_MockDaClient_DaClient20___publish_state_diffNtB6_6Common4withppEBa_
FNDA:0,_RINvMs4_NtNtCsd2a39Kes4Ul_19da_client_interface28___mock_MockDaClient_DaClient20___publish_state_diffNtB6_6Common5withfpEBa_
FNDA:0,_RINvMs4_NtNtCsd2a39Kes4Ul_19da_client_interface28___mock_MockDaClient_DaClient20___publish_state_diffNtB6_6Common8withf_stpEBa_
FNDA:0,_RINvMs6_NtNtCsd2a39Kes4Ul_19da_client_interface28___mock_MockDaClient_DaClient20___publish_state_diffNtB6_11Expectation12return_constpEBa_
FNDA:0,_RNCINvMs6_NtNtCsd2a39Kes4Ul_19da_client_interface28___mock_MockDaClient_DaClient20___publish_state_diffNtB8_11Expectation12return_constpE0Bc_
FNDA:0,_RINvMs6_NtNtCsd2a39Kes4Ul_19da_client_interface28___mock_MockDaClient_DaClient20___publish_state_diffNtB6_11Expectation15return_const_stpEBa_
FNDA:0,_RNCINvMs6_NtNtCsd2a39Kes4Ul_19da_client_interface28___mock_MockDaClient_DaClient20___publish_state_diffNtB8_11Expectation15return_const_stpE0Bc_
FNDA:0,_RINvMs6_NtNtCsd2a39Kes4Ul_19da_client_interface28___mock_MockDaClient_DaClient20___publish_state_diffNtB6_11Expectation11return_oncepEBa_
FNDA:0,_RINvMs6_NtNtCsd2a39Kes4Ul_19da_client_interface28___mock_MockDaClient_DaClient20___publish_state_diffNtB6_11Expectation14return_once_stpEBa_
FNDA:0,_RINvMs6_NtNtCsd2a39Kes4Ul_19da_client_interface28___mock_MockDaClient_DaClient20___publish_state_diffNtB6_11Expectation9returningpEBa_
FNDA:0,_RINvMs6_NtNtCsd2a39Kes4Ul_19da_client_interface28___mock_MockDaClient_DaClient20___publish_state_diffNtB6_11Expectation12returning_stpEBa_
FNDA:0,_RNvMs6_NtNtCsd2a39Kes4Ul_19da_client_interface28___mock_MockDaClient_DaClient20___publish_state_diffNtB5_11Expectation5never
FNDA:0,_RINvMs6_NtNtCsd2a39Kes4Ul_19da_client_interface28___mock_MockDaClient_DaClient20___publish_state_diffNtB6_11Expectation4withppEBa_
FNDA:0,_RINvMs6_NtNtCsd2a39Kes4Ul_19da_client_interface28___mock_MockDaClient_DaClient20___publish_state_diffNtB6_11Expectation5withfpEBa_
FNDA:0,_RINvMs6_NtNtCsd2a39Kes4Ul_19da_client_interface28___mock_MockDaClient_DaClient20___publish_state_diffNtB6_11Expectation8withf_stpEBa_
FNDA:0,_RNvMs8_NtNtCsd2a39Kes4Ul_19da_client_interface28___mock_MockDaClient_DaClient20___publish_state_diffNtB5_12Expectations3new
FNDA:0,_RNvMs4_NtNtCsd2a39Kes4Ul_19da_client_interface28___mock_MockDaClient_DaClient18___verify_inclusionNtB5_6Common5never
FNDA:0,_RINvMs4_NtNtCsd2a39Kes4Ul_19da_client_interface28___mock_MockDaClient_DaClient18___verify_inclusionNtB6_6Common4withpEBa_
FNDA:0,_RINvMs4_NtNtCsd2a39Kes4Ul_19da_client_interface28___mock_MockDaClient_DaClient18___verify_inclusionNtB6_6Common5withfpEBa_
FNDA:0,_RINvMs4_NtNtCsd2a39Kes4Ul_19da_client_interface28___mock_MockDaClient_DaClient18___verify_inclusionNtB6_6Common8withf_stpEBa_
FNDA:0,_RINvMs6_NtNtCsd2a39Kes4Ul_19da_client_interface28___mock_MockDaClient_DaClient18___verify_inclusionNtB6_11Expectation12return_constpEBa_
FNDA:0,_RNCINvMs6_NtNtCsd2a39Kes4Ul_19da_client_interface28___mock_MockDaClient_DaClient18___verify_inclusionNtB8_11Expectation12return_constpE0Bc_
FNDA:0,_RINvMs6_NtNtCsd2a39Kes4Ul_19da_client_interface28___mock_MockDaClient_DaClient18___verify_inclusionNtB6_11Expectation15return_const_stpEBa_
FNDA:0,_RNCINvMs6_NtNtCsd2a39Kes4Ul_19da_client_interface28___mock_MockDaClient_DaClient18___verify_inclusionNtB8_11Expectation15return_const_stpE0Bc_
FNDA:0,_RINvMs6_NtNtCsd2a39Kes4Ul_19da_client_interface28___mock_MockDaClient_DaClient18___verify_inclusionNtB6_11Expectation11return_oncepEBa_
FNDA:0,_RINvMs6_NtNtCsd2a39Kes4Ul_19da_client_interface28___mock_MockDaClient_DaClient18___verify_inclusionNtB6_11Expectation14return_once_stpEBa_
FNDA:0,_RINvMs6_NtNtCsd2a39Kes4Ul_19da_client_interface28___mock_MockDaClient_DaClient18___verify_inclusionNtB6_11Expectation9returningpEBa_
FNDA:0,_RINvMs6_NtNtCsd2a39Kes4Ul_19da_client_interface28___mock_MockDaClient_DaClient18___verify_inclusionNtB6_11Expectation12returning_stpEBa_
FNDA:0,_RNvMs6_NtNtCsd2a39Kes4Ul_19da_client_interface28___mock_MockDaClient_DaClient18___verify_inclusionNtB5_11Expectation5never
FNDA:0,_RINvMs6_NtNtCsd2a39Kes4Ul_19da_client_interface28___mock_MockDaClient_DaClient18___verify_inclusionNtB6_11Expectation4withpEBa_
FNDA:0,_RINvMs6_NtNtCsd2a39Kes4Ul_19da_client_interface28___mock_MockDaClient_DaClient18___verify_inclusionNtB6_11Expectation5withfpEBa_
FNDA:0,_RINvMs6_NtNtCsd2a39Kes4Ul_19da_client_interface28___mock_MockDaClient_DaClient18___verify_inclusionNtB6_11Expectation8withf_stpEBa_
FNDA:0,_RNvMs8_NtNtCsd2a39Kes4Ul_19da_client_interface28___mock_MockDaClient_DaClient18___verify_inclusionNtB5_12Expectations3new
FNDA:0,_RNvMs4_NtNtCsd2a39Kes4Ul_19da_client_interface28___mock_MockDaClient_DaClient18___max_blob_per_txnNtB5_6Common5never
FNDA:0,_RINvMs4_NtNtCsd2a39Kes4Ul_19da_client_interface28___mock_MockDaClient_DaClient18___max_blob_per_txnNtB6_6Common5withfpEBa_
FNDA:0,_RINvMs4_NtNtCsd2a39Kes4Ul_19da_client_interface28___mock_MockDaClient_DaClient18___max_blob_per_txnNtB6_6Common8withf_stpEBa_
FNDA:0,_RINvMs6_NtNtCsd2a39Kes4Ul_19da_client_interface28___mock_MockDaClient_DaClient18___max_blob_per_txnNtB6_11Expectation12return_constpEBa_
FNDA:0,_RNCINvMs6_NtNtCsd2a39Kes4Ul_19da_client_interface28___mock_MockDaClient_DaClient18___max_blob_per_txnNtB8_11Expectation12return_constpE0Bc_
FNDA:0,_RINvMs6_NtNtCsd2a39Kes4Ul_19da_client_interface28___mock_MockDaClient_DaClient18___max_blob_per_txnNtB6_11Expectation15return_const_stpEBa_
FNDA:0,_RNCINvMs6_NtNtCsd2a39Kes4Ul_19da_client_interface28___mock_MockDaClient_DaClient18___max_blob_per_txnNtB8_11Expectation15return_const_stpE0Bc_
FNDA:0,_RINvMs6_NtNtCsd2a39Kes4Ul_19da_client_interface28___mock_MockDaClient_DaClient18___max_blob_per_txnNtB6_11Expectation11return_oncepEBa_
FNDA:0,_RINvMs6_NtNtCsd2a39Kes4Ul_19da_client_interface28___mock_MockDaClient_DaClient18___max_blob_per_txnNtB6_11Expectation14return_once_stpEBa_
FNDA:0,_RINvMs6_NtNtCsd2a39Kes4Ul_19da_client_interface28___mock_MockDaClient_DaClient18___max_blob_per_txnNtB6_11Expectation9returningpEBa_
FNDA:0,_RINvMs6_NtNtCsd2a39Kes4Ul_19da_client_interface28___mock_MockDaClient_DaClient18___max_blob_per_txnNtB6_11Expectation12returning_stpEBa_
FNDA:0,_RNvMs6_NtNtCsd2a39Kes4Ul_19da_client_interface28___mock_MockDaClient_DaClient18___max_blob_per_txnNtB5_11Expectation5never
FNDA:0,_RINvMs6_NtNtCsd2a39Kes4Ul_19da_client_interface28___mock_MockDaClient_DaClient18___max_blob_per_txnNtB6_11Expectation5withfpEBa_
FNDA:0,_RINvMs6_NtNtCsd2a39Kes4Ul_19da_client_interface28___mock_MockDaClient_DaClient18___max_blob_per_txnNtB6_11Expectation8withf_stpEBa_
FNDA:0,_RNvMs8_NtNtCsd2a39Kes4Ul_19da_client_interface28___mock_MockDaClient_DaClient18___max_blob_per_txnNtB5_12Expectations3new
FNDA:0,_RNvMs4_NtNtCsd2a39Kes4Ul_19da_client_interface28___mock_MockDaClient_DaClient20___max_bytes_per_blobNtB5_6Common5never
FNDA:0,_RINvMs4_NtNtCsd2a39Kes4Ul_19da_client_interface28___mock_MockDaClient_DaClient20___max_bytes_per_blobNtB6_6Common5withfpEBa_
FNDA:0,_RINvMs4_NtNtCsd2a39Kes4Ul_19da_client_interface28___mock_MockDaClient_DaClient20___max_bytes_per_blobNtB6_6Common8withf_stpEBa_
FNDA:0,_RINvMs6_NtNtCsd2a39Kes4Ul_19da_client_interface28___mock_MockDaClient_DaClient20___max_bytes_per_blobNtB6_11Expectation12return_constpEBa_
FNDA:0,_RNCINvMs6_NtNtCsd2a39Kes4Ul_19da_client_interface28___mock_MockDaClient_DaClient20___max_bytes_per_blobNtB8_11Expectation12return_constpE0Bc_
FNDA:0,_RINvMs6_NtNtCsd2a39Kes4Ul_19da_client_interface28___mock_MockDaClient_DaClient20___max_bytes_per_blobNtB6_11Expectation15return_const_stpEBa_
FNDA:0,_RNCINvMs6_NtNtCsd2a39Kes4Ul_19da_client_interface28___mock_MockDaClient_DaClient20___max_bytes_per_blobNtB8_11Expectation15return_const_stpE0Bc_
FNDA:0,_RINvMs6_NtNtCsd2a39Kes4Ul_19da_client_interface28___mock_MockDaClient_DaClient20___max_bytes_per_blobNtB6_11Expectation11return_oncepEBa_
FNDA:0,_RINvMs6_NtNtCsd2a39Kes4Ul_19da_client_interface28___mock_MockDaClient_DaClient20___max_bytes_per_blobNtB6_11Expectation14return_once_stpEBa_
FNDA:0,_RINvMs6_NtNtCsd2a39Kes4Ul_19da_client_interface28___mock_MockDaClient_DaClient20___max_bytes_per_blobNtB6_11Expectation9returningpEBa_
FNDA:0,_RINvMs6_NtNtCsd2a39Kes4Ul_19da_client_interface28___mock_MockDaClient_DaClient20___max_bytes_per_blobNtB6_11Expectation12returning_stpEBa_
FNDA:0,_RNvMs6_NtNtCsd2a39Kes4Ul_19da_client_interface28___mock_MockDaClient_DaClient20___max_bytes_per_blobNtB5_11Expectation5never
FNDA:0,_RINvMs6_NtNtCsd2a39Kes4Ul_19da_client_interface28___mock_MockDaClient_DaClient20___max_bytes_per_blobNtB6_11Expectation5withfpEBa_
FNDA:0,_RINvMs6_NtNtCsd2a39Kes4Ul_19da_client_interface28___mock_MockDaClient_DaClient20___max_bytes_per_blobNtB6_11Expectation8withf_stpEBa_
FNDA:0,_RNvMs8_NtNtCsd2a39Kes4Ul_19da_client_interface28___mock_MockDaClient_DaClient20___max_bytes_per_blobNtB5_12Expectations3new
FNF:1
FNH:1
DA:17,36
BRF:0
BRH:0
LF:1
LH:1
end_of_record
SF:/Users/ocdbytes/Karnot/madara-orchestrator/crates/da-clients/ethereum/src/config.rs
FN:12,_RNvXNtCscm20NoNPXfL_18ethereum_da_client6configNtB2_16EthereumDaConfigNtCsd2a39Kes4Ul_19da_client_interface8DaConfig12new_from_env
FN:12,_RNvXNtCsaXXtEBL21yp_18ethereum_da_client6configNtB2_16EthereumDaConfigNtCsd2a39Kes4Ul_19da_client_interface8DaConfig12new_from_env
FNDA:0,_RNvXNtCscm20NoNPXfL_18ethereum_da_client6configNtB2_16EthereumDaConfigNtCsd2a39Kes4Ul_19da_client_interface8DaConfig12new_from_env
FNDA:0,_RNvXNtCsaXXtEBL21yp_18ethereum_da_client6configNtB2_16EthereumDaConfigNtCsd2a39Kes4Ul_19da_client_interface8DaConfig12new_from_env
FNF:1
FNH:0
DA:12,0
DA:13,0
DA:14,0
DA:15,0
DA:16,0
DA:17,0
DA:18,0
BRF:0
BRH:0
LF:7
LH:0
end_of_record
SF:/Users/ocdbytes/Karnot/madara-orchestrator/crates/da-clients/ethereum/src/lib.rs
FN:125,_RNvCscm20NoNPXfL_18ethereum_da_client15prepare_sidecar
FN:128,_RNCNvCscm20NoNPXfL_18ethereum_da_client15prepare_sidecar0B3_
FN:201,_RNvNtCscm20NoNPXfL_18ethereum_da_client5tests20hex_string_to_u8_vec
FN:158,_RNvNtCscm20NoNPXfL_18ethereum_da_client5testss_8test_kzg
FN:158,_RNCNvNtCscm20NoNPXfL_18ethereum_da_client5testss_8test_kzg0B5_
FN:203,_RNCNvNtCscm20NoNPXfL_18ethereum_da_client5tests20hex_string_to_u8_vec0B5_
FN:40,_RNvXs5_Cscm20NoNPXfL_18ethereum_da_clientNtB5_16EthereumDaClientNtCsd2a39Kes4Ul_19da_client_interface8DaClient18publish_state_diff
FN:40,_RNCNvXs5_Cscm20NoNPXfL_18ethereum_da_clientNtB7_16EthereumDaClientNtCsd2a39Kes4Ul_19da_client_interface8DaClient18publish_state_diff0B7_
FN:86,_RNvXs5_Cscm20NoNPXfL_18ethereum_da_clientNtB5_16EthereumDaClientNtCsd2a39Kes4Ul_19da_client_interface8DaClient16verify_inclusion
FN:86,_RNCNvXs5_Cscm20NoNPXfL_18ethereum_da_clientNtB7_16EthereumDaClientNtCsd2a39Kes4Ul_19da_client_interface8DaClient16verify_inclusion0B7_
FN:103,_RNvXs5_Cscm20NoNPXfL_18ethereum_da_clientNtB5_16EthereumDaClientNtCsd2a39Kes4Ul_19da_client_interface8DaClient16max_blob_per_txn
FN:103,_RNCNvXs5_Cscm20NoNPXfL_18ethereum_da_clientNtB7_16EthereumDaClientNtCsd2a39Kes4Ul_19da_client_interface8DaClient16max_blob_per_txn0B7_
FN:107,_RNvXs5_Cscm20NoNPXfL_18ethereum_da_clientNtB5_16EthereumDaClientNtCsd2a39Kes4Ul_19da_client_interface8DaClient18max_bytes_per_blob
FN:107,_RNCNvXs5_Cscm20NoNPXfL_18ethereum_da_clientNtB7_16EthereumDaClientNtCsd2a39Kes4Ul_19da_client_interface8DaClient18max_bytes_per_blob0B7_
FN:37,_RNvXs_Cscm20NoNPXfL_18ethereum_da_clientNtB4_20MockEthereumDaClientNtNtCsl82brYPINY5_4core3fmt5Debug3fmt
FN:37,_RNvXs0_Cscm20NoNPXfL_18ethereum_da_clientNtB5_20MockEthereumDaClientNtNtCsl82brYPINY5_4core7default7Default7default
FN:37,_RNvMNtNtCscm20NoNPXfL_18ethereum_da_client36___mock_MockEthereumDaClient_DaClient20___publish_state_diffNtB2_5Rfunc8call_mut
FN:37,_RNvXs_NtNtCscm20NoNPXfL_18ethereum_da_client36___mock_MockEthereumDaClient_DaClient20___publish_state_diffNtB4_5RfuncNtNtCsl82brYPINY5_4core7default7Default7default
FN:37,_RNvMs0_NtNtCscm20NoNPXfL_18ethereum_da_client36___mock_MockEthereumDaClient_DaClient20___publish_state_diffNtB5_7Matcher7matches
FN:37,_RNCNvMs0_NtNtCscm20NoNPXfL_18ethereum_da_client36___mock_MockEthereumDaClient_DaClient20___publish_state_diffNtB7_7Matcher7matches0Bb_
FN:37,_RNvXs1_NtNtCscm20NoNPXfL_18ethereum_da_client36___mock_MockEthereumDaClient_DaClient20___publish_state_diffNtB5_7MatcherNtNtCsl82brYPINY5_4core7default7Default7default
FN:37,_RNvXs2_NtNtCscm20NoNPXfL_18ethereum_da_client36___mock_MockEthereumDaClient_DaClient20___publish_state_diffNtB5_7MatcherNtNtCsl82brYPINY5_4core3fmt7Display3fmt
FN:37,_RNvXs3_NtNtCscm20NoNPXfL_18ethereum_da_client36___mock_MockEthereumDaClient_DaClient20___publish_state_diffNtB5_6CommonNtNtCsl82brYPINY5_4core7default7Default7default
FN:37,_RNvMs4_NtNtCscm20NoNPXfL_18ethereum_da_client36___mock_MockEthereumDaClient_DaClient20___publish_state_diffNtB5_6Common4call
FN:37,_RNvMs4_NtNtCscm20NoNPXfL_18ethereum_da_client36___mock_MockEthereumDaClient_DaClient20___publish_state_diffNtB5_6Common11in_sequence
FN:37,_RNvMs4_NtNtCscm20NoNPXfL_18ethereum_da_client36___mock_MockEthereumDaClient_DaClient20___publish_state_diffNtB5_6Common7is_done
FN:37,_RNvMs4_NtNtCscm20NoNPXfL_18ethereum_da_client36___mock_MockEthereumDaClient_DaClient20___publish_state_diffNtB5_6Common7matches
FN:37,_RNvMs4_NtNtCscm20NoNPXfL_18ethereum_da_client36___mock_MockEthereumDaClient_DaClient20___publish_state_diffNtB5_6Common5never
FN:37,_RNvMs4_NtNtCscm20NoNPXfL_18ethereum_da_client36___mock_MockEthereumDaClient_DaClient20___publish_state_diffNtB5_6Common16satisfy_sequence
FN:37,_RINvMs4_NtNtCscm20NoNPXfL_18ethereum_da_client36___mock_MockEthereumDaClient_DaClient20___publish_state_diffNtB6_6Common5timespEBa_
FN:37,_RINvMs4_NtNtCscm20NoNPXfL_18ethereum_da_client36___mock_MockEthereumDaClient_DaClient20___publish_state_diffNtB6_6Common4withppEBa_
FN:37,_RINvMs4_NtNtCscm20NoNPXfL_18ethereum_da_client36___mock_MockEthereumDaClient_DaClient20___publish_state_diffNtB6_6Common5withfpEBa_
FN:37,_RINvMs4_NtNtCscm20NoNPXfL_18ethereum_da_client36___mock_MockEthereumDaClient_DaClient20___publish_state_diffNtB6_6Common8withf_stpEBa_
FN:37,_RNvMs4_NtNtCscm20NoNPXfL_18ethereum_da_client36___mock_MockEthereumDaClient_DaClient20___publish_state_diffNtB5_6Common15verify_sequence
FN:37,_RNvXs5_NtNtCscm20NoNPXfL_18ethereum_da_client36___mock_MockEthereumDaClient_DaClient20___publish_state_diffNtB5_6CommonNtNtNtCsl82brYPINY5_4core3ops4drop4Drop4drop
FN:37,_RNvMs6_NtNtCscm20NoNPXfL_18ethereum_da_client36___mock_MockEthereumDaClient_DaClient20___publish_state_diffNtB5_11Expectation4call
FN:37,_RINvMs6_NtNtCscm20NoNPXfL_18ethereum_da_client36___mock_MockEthereumDaClient_DaClient20___publish_state_diffNtB6_11Expectation12return_constpEBa_
FN:37,_RNCINvMs6_NtNtCscm20NoNPXfL_18ethereum_da_client36___mock_MockEthereumDaClient_DaClient20___publish_state_diffNtB8_11Expectation12return_constpE0Bc_
FN:37,_RINvMs6_NtNtCscm20NoNPXfL_18ethereum_da_client36___mock_MockEthereumDaClient_DaClient20___publish_state_diffNtB6_11Expectation15return_const_stpEBa_
FN:37,_RNCINvMs6_NtNtCscm20NoNPXfL_18ethereum_da_client36___mock_MockEthereumDaClient_DaClient20___publish_state_diffNtB8_11Expectation15return_const_stpE0Bc_
FN:37,_RINvMs6_NtNtCscm20NoNPXfL_18ethereum_da_client36___mock_MockEthereumDaClient_DaClient20___publish_state_diffNtB6_11Expectation11return_oncepEBa_
FN:37,_RINvMs6_NtNtCscm20NoNPXfL_18ethereum_da_client36___mock_MockEthereumDaClient_DaClient20___publish_state_diffNtB6_11Expectation14return_once_stpEBa_
FN:37,_RINvMs6_NtNtCscm20NoNPXfL_18ethereum_da_client36___mock_MockEthereumDaClient_DaClient20___publish_state_diffNtB6_11Expectation9returningpEBa_
FN:37,_RINvMs6_NtNtCscm20NoNPXfL_18ethereum_da_client36___mock_MockEthereumDaClient_DaClient20___publish_state_diffNtB6_11Expectation12returning_stpEBa_
FN:37,_RNvMs6_NtNtCscm20NoNPXfL_18ethereum_da_client36___mock_MockEthereumDaClient_DaClient20___publish_state_diffNtB5_11Expectation11in_sequence
FN:37,_RNvMs6_NtNtCscm20NoNPXfL_18ethereum_da_client36___mock_MockEthereumDaClient_DaClient20___publish_state_diffNtB5_11Expectation7is_done
FN:37,_RNvMs6_NtNtCscm20NoNPXfL_18ethereum_da_client36___mock_MockEthereumDaClient_DaClient20___publish_state_diffNtB5_11Expectation7matches
FN:37,_RNvMs6_NtNtCscm20NoNPXfL_18ethereum_da_client36___mock_MockEthereumDaClient_DaClient20___publish_state_diffNtB5_11Expectation5never
FN:37,_RNvMs6_NtNtCscm20NoNPXfL_18ethereum_da_client36___mock_MockEthereumDaClient_DaClient20___publish_state_diffNtB5_11Expectation3new
FN:37,_RNvMs6_NtNtCscm20NoNPXfL_18ethereum_da_client36___mock_MockEthereumDaClient_DaClient20___publish_state_diffNtB5_11Expectation4once
FN:37,_RINvMs6_NtNtCscm20NoNPXfL_18ethereum_da_client36___mock_MockEthereumDaClient_DaClient20___publish_state_diffNtB6_11Expectation5timespEBa_
FN:37,_RINvMs6_NtNtCscm20NoNPXfL_18ethereum_da_client36___mock_MockEthereumDaClient_DaClient20___publish_state_diffNtB6_11Expectation4withppEBa_
FN:37,_RINvMs6_NtNtCscm20NoNPXfL_18ethereum_da_client36___mock_MockEthereumDaClient_DaClient20___publish_state_diffNtB6_11Expectation5withfpEBa_
FN:37,_RINvMs6_NtNtCscm20NoNPXfL_18ethereum_da_client36___mock_MockEthereumDaClient_DaClient20___publish_state_diffNtB6_11Expectation8withf_stpEBa_
FN:37,_RNvXs7_NtNtCscm20NoNPXfL_18ethereum_da_client36___mock_MockEthereumDaClient_DaClient20___publish_state_diffNtB5_11ExpectationNtNtCsl82brYPINY5_4core7default7Default7default
FN:37,_RNvMs8_NtNtCscm20NoNPXfL_18ethereum_da_client36___mock_MockEthereumDaClient_DaClient20___publish_state_diffNtB5_12Expectations10checkpoint
FN:37,_RNvMs8_NtNtCscm20NoNPXfL_18ethereum_da_client36___mock_MockEthereumDaClient_DaClient20___publish_state_diffNtB5_12Expectations6expect
FN:37,_RNvMs8_NtNtCscm20NoNPXfL_18ethereum_da_client36___mock_MockEthereumDaClient_DaClient20___publish_state_diffNtB5_12Expectations3new
FN:37,_RNvXs9_NtNtCscm20NoNPXfL_18ethereum_da_client36___mock_MockEthereumDaClient_DaClient20___publish_state_diffNtB5_12ExpectationsNtNtCsl82brYPINY5_4core7default7Default7default
FN:37,_RNvMsa_NtNtCscm20NoNPXfL_18ethereum_da_client36___mock_MockEthereumDaClient_DaClient20___publish_state_diffNtB5_12Expectations4call
FN:37,_RNCNvMsa_NtNtCscm20NoNPXfL_18ethereum_da_client36___mock_MockEthereumDaClient_DaClient20___publish_state_diffNtB7_12Expectations4call0Bb_
FN:37,_RNCNvMsa_NtNtCscm20NoNPXfL_18ethereum_da_client36___mock_MockEthereumDaClient_DaClient20___publish_state_diffNtB7_12Expectations4calls_0Bb_
FN:37,_RNvMNtNtCscm20NoNPXfL_18ethereum_da_client36___mock_MockEthereumDaClient_DaClient18___verify_inclusionNtB2_5Rfunc8call_mut
FN:37,_RNvXs_NtNtCscm20NoNPXfL_18ethereum_da_client36___mock_MockEthereumDaClient_DaClient18___verify_inclusionNtB4_5RfuncNtNtCsl82brYPINY5_4core7default7Default7default
FN:37,_RNvMs0_NtNtCscm20NoNPXfL_18ethereum_da_client36___mock_MockEthereumDaClient_DaClient18___verify_inclusionNtB5_7Matcher7matches
FN:37,_RNCNvMs0_NtNtCscm20NoNPXfL_18ethereum_da_client36___mock_MockEthereumDaClient_DaClient18___verify_inclusionNtB7_7Matcher7matches0Bb_
FN:37,_RNvXs1_NtNtCscm20NoNPXfL_18ethereum_da_client36___mock_MockEthereumDaClient_DaClient18___verify_inclusionNtB5_7MatcherNtNtCsl82brYPINY5_4core7default7Default7default
FN:37,_RNvXs2_NtNtCscm20NoNPXfL_18ethereum_da_client36___mock_MockEthereumDaClient_DaClient18___verify_inclusionNtB5_7MatcherNtNtCsl82brYPINY5_4core3fmt7Display3fmt
FN:37,_RNvXs3_NtNtCscm20NoNPXfL_18ethereum_da_client36___mock_MockEthereumDaClient_DaClient18___verify_inclusionNtB5_6CommonNtNtCsl82brYPINY5_4core7default7Default7default
FN:37,_RNvMs4_NtNtCscm20NoNPXfL_18ethereum_da_client36___mock_MockEthereumDaClient_DaClient18___verify_inclusionNtB5_6Common4call
FN:37,_RNvMs4_NtNtCscm20NoNPXfL_18ethereum_da_client36___mock_MockEthereumDaClient_DaClient18___verify_inclusionNtB5_6Common11in_sequence
FN:37,_RNvMs4_NtNtCscm20NoNPXfL_18ethereum_da_client36___mock_MockEthereumDaClient_DaClient18___verify_inclusionNtB5_6Common7is_done
FN:37,_RNvMs4_NtNtCscm20NoNPXfL_18ethereum_da_client36___mock_MockEthereumDaClient_DaClient18___verify_inclusionNtB5_6Common7matches
FN:37,_RNvMs4_NtNtCscm20NoNPXfL_18ethereum_da_client36___mock_MockEthereumDaClient_DaClient18___verify_inclusionNtB5_6Common5never
FN:37,_RNvMs4_NtNtCscm20NoNPXfL_18ethereum_da_client36___mock_MockEthereumDaClient_DaClient18___verify_inclusionNtB5_6Common16satisfy_sequence
FN:37,_RINvMs4_NtNtCscm20NoNPXfL_18ethereum_da_client36___mock_MockEthereumDaClient_DaClient18___verify_inclusionNtB6_6Common5timespEBa_
FN:37,_RINvMs4_NtNtCscm20NoNPXfL_18ethereum_da_client36___mock_MockEthereumDaClient_DaClient18___verify_inclusionNtB6_6Common4withpEBa_
FN:37,_RINvMs4_NtNtCscm20NoNPXfL_18ethereum_da_client36___mock_MockEthereumDaClient_DaClient18___verify_inclusionNtB6_6Common5withfpEBa_
FN:37,_RINvMs4_NtNtCscm20NoNPXfL_18ethereum_da_client36___mock_MockEthereumDaClient_DaClient18___verify_inclusionNtB6_6Common8withf_stpEBa_
FN:37,_RNvMs4_NtNtCscm20NoNPXfL_18ethereum_da_client36___mock_MockEthereumDaClient_DaClient18___verify_inclusionNtB5_6Common15verify_sequence
FN:37,_RNvXs5_NtNtCscm20NoNPXfL_18ethereum_da_client36___mock_MockEthereumDaClient_DaClient18___verify_inclusionNtB5_6CommonNtNtNtCsl82brYPINY5_4core3ops4drop4Drop4drop
FN:37,_RNvMs6_NtNtCscm20NoNPXfL_18ethereum_da_client36___mock_MockEthereumDaClient_DaClient18___verify_inclusionNtB5_11Expectation4call
FN:37,_RINvMs6_NtNtCscm20NoNPXfL_18ethereum_da_client36___mock_MockEthereumDaClient_DaClient18___verify_inclusionNtB6_11Expectation12return_constpEBa_
FN:37,_RNCINvMs6_NtNtCscm20NoNPXfL_18ethereum_da_client36___mock_MockEthereumDaClient_DaClient18___verify_inclusionNtB8_11Expectation12return_constpE0Bc_
FN:37,_RINvMs6_NtNtCscm20NoNPXfL_18ethereum_da_client36___mock_MockEthereumDaClient_DaClient18___verify_inclusionNtB6_11Expectation15return_const_stpEBa_
FN:37,_RNCINvMs6_NtNtCscm20NoNPXfL_18ethereum_da_client36___mock_MockEthereumDaClient_DaClient18___verify_inclusionNtB8_11Expectation15return_const_stpE0Bc_
FN:37,_RINvMs6_NtNtCscm20NoNPXfL_18ethereum_da_client36___mock_MockEthereumDaClient_DaClient18___verify_inclusionNtB6_11Expectation11return_oncepEBa_
FN:37,_RINvMs6_NtNtCscm20NoNPXfL_18ethereum_da_client36___mock_MockEthereumDaClient_DaClient18___verify_inclusionNtB6_11Expectation14return_once_stpEBa_
FN:37,_RINvMs6_NtNtCscm20NoNPXfL_18ethereum_da_client36___mock_MockEthereumDaClient_DaClient18___verify_inclusionNtB6_11Expectation9returningpEBa_
FN:37,_RINvMs6_NtNtCscm20NoNPXfL_18ethereum_da_client36___mock_MockEthereumDaClient_DaClient18___verify_inclusionNtB6_11Expectation12returning_stpEBa_
FN:37,_RNvMs6_NtNtCscm20NoNPXfL_18ethereum_da_client36___mock_MockEthereumDaClient_DaClient18___verify_inclusionNtB5_11Expectation11in_sequence
FN:37,_RNvMs6_NtNtCscm20NoNPXfL_18ethereum_da_client36___mock_MockEthereumDaClient_DaClient18___verify_inclusionNtB5_11Expectation7is_done
FN:37,_RNvMs6_NtNtCscm20NoNPXfL_18ethereum_da_client36___mock_MockEthereumDaClient_DaClient18___verify_inclusionNtB5_11Expectation7matches
FN:37,_RNvMs6_NtNtCscm20NoNPXfL_18ethereum_da_client36___mock_MockEthereumDaClient_DaClient18___verify_inclusionNtB5_11Expectation5never
FN:37,_RNvMs6_NtNtCscm20NoNPXfL_18ethereum_da_client36___mock_MockEthereumDaClient_DaClient18___verify_inclusionNtB5_11Expectation3new
FN:37,_RNvMs6_NtNtCscm20NoNPXfL_18ethereum_da_client36___mock_MockEthereumDaClient_DaClient18___verify_inclusionNtB5_11Expectation4once
FN:37,_RINvMs6_NtNtCscm20NoNPXfL_18ethereum_da_client36___mock_MockEthereumDaClient_DaClient18___verify_inclusionNtB6_11Expectation5timespEBa_
FN:37,_RINvMs6_NtNtCscm20NoNPXfL_18ethereum_da_client36___mock_MockEthereumDaClient_DaClient18___verify_inclusionNtB6_11Expectation4withpEBa_
FN:37,_RINvMs6_NtNtCscm20NoNPXfL_18ethereum_da_client36___mock_MockEthereumDaClient_DaClient18___verify_inclusionNtB6_11Expectation5withfpEBa_
FN:37,_RINvMs6_NtNtCscm20NoNPXfL_18ethereum_da_client36___mock_MockEthereumDaClient_DaClient18___verify_inclusionNtB6_11Expectation8withf_stpEBa_
FN:37,_RNvXs7_NtNtCscm20NoNPXfL_18ethereum_da_client36___mock_MockEthereumDaClient_DaClient18___verify_inclusionNtB5_11ExpectationNtNtCsl82brYPINY5_4core7default7Default7default
FN:37,_RNvMs8_NtNtCscm20NoNPXfL_18ethereum_da_client36___mock_MockEthereumDaClient_DaClient18___verify_inclusionNtB5_12Expectations10checkpoint
FN:37,_RNvMs8_NtNtCscm20NoNPXfL_18ethereum_da_client36___mock_MockEthereumDaClient_DaClient18___verify_inclusionNtB5_12Expectations6expect
FN:37,_RNvMs8_NtNtCscm20NoNPXfL_18ethereum_da_client36___mock_MockEthereumDaClient_DaClient18___verify_inclusionNtB5_12Expectations3new
FN:37,_RNvXs9_NtNtCscm20NoNPXfL_18ethereum_da_client36___mock_MockEthereumDaClient_DaClient18___verify_inclusionNtB5_12ExpectationsNtNtCsl82brYPINY5_4core7default7Default7default
FN:37,_RNvMsa_NtNtCscm20NoNPXfL_18ethereum_da_client36___mock_MockEthereumDaClient_DaClient18___verify_inclusionNtB5_12Expectations4call
FN:37,_RNCNvMsa_NtNtCscm20NoNPXfL_18ethereum_da_client36___mock_MockEthereumDaClient_DaClient18___verify_inclusionNtB7_12Expectations4call0Bb_
FN:37,_RNCNvMsa_NtNtCscm20NoNPXfL_18ethereum_da_client36___mock_MockEthereumDaClient_DaClient18___verify_inclusionNtB7_12Expectations4calls_0Bb_
FN:37,_RNvMNtNtCscm20NoNPXfL_18ethereum_da_client36___mock_MockEthereumDaClient_DaClient18___max_blob_per_txnNtB2_5Rfunc8call_mut
FN:37,_RNvXs_NtNtCscm20NoNPXfL_18ethereum_da_client36___mock_MockEthereumDaClient_DaClient18___max_blob_per_txnNtB4_5RfuncNtNtCsl82brYPINY5_4core7default7Default7default
FN:37,_RNvMs0_NtNtCscm20NoNPXfL_18ethereum_da_client36___mock_MockEthereumDaClient_DaClient18___max_blob_per_txnNtB5_7Matcher7matches
FN:37,_RNCNvMs0_NtNtCscm20NoNPXfL_18ethereum_da_client36___mock_MockEthereumDaClient_DaClient18___max_blob_per_txnNtB7_7Matcher7matches0Bb_
FN:37,_RNvXs1_NtNtCscm20NoNPXfL_18ethereum_da_client36___mock_MockEthereumDaClient_DaClient18___max_blob_per_txnNtB5_7MatcherNtNtCsl82brYPINY5_4core7default7Default7default
FN:37,_RNvXs2_NtNtCscm20NoNPXfL_18ethereum_da_client36___mock_MockEthereumDaClient_DaClient18___max_blob_per_txnNtB5_7MatcherNtNtCsl82brYPINY5_4core3fmt7Display3fmt
FN:37,_RNvXs3_NtNtCscm20NoNPXfL_18ethereum_da_client36___mock_MockEthereumDaClient_DaClient18___max_blob_per_txnNtB5_6CommonNtNtCsl82brYPINY5_4core7default7Default7default
FN:37,_RNvMs4_NtNtCscm20NoNPXfL_18ethereum_da_client36___mock_MockEthereumDaClient_DaClient18___max_blob_per_txnNtB5_6Common4call
FN:37,_RNvMs4_NtNtCscm20NoNPXfL_18ethereum_da_client36___mock_MockEthereumDaClient_DaClient18___max_blob_per_txnNtB5_6Common11in_sequence
FN:37,_RNvMs4_NtNtCscm20NoNPXfL_18ethereum_da_client36___mock_MockEthereumDaClient_DaClient18___max_blob_per_txnNtB5_6Common7is_done
FN:37,_RNvMs4_NtNtCscm20NoNPXfL_18ethereum_da_client36___mock_MockEthereumDaClient_DaClient18___max_blob_per_txnNtB5_6Common7matches
FN:37,_RNvMs4_NtNtCscm20NoNPXfL_18ethereum_da_client36___mock_MockEthereumDaClient_DaClient18___max_blob_per_txnNtB5_6Common5never
FN:37,_RNvMs4_NtNtCscm20NoNPXfL_18ethereum_da_client36___mock_MockEthereumDaClient_DaClient18___max_blob_per_txnNtB5_6Common16satisfy_sequence
FN:37,_RINvMs4_NtNtCscm20NoNPXfL_18ethereum_da_client36___mock_MockEthereumDaClient_DaClient18___max_blob_per_txnNtB6_6Common5timespEBa_
FN:37,_RNvMs4_NtNtCscm20NoNPXfL_18ethereum_da_client36___mock_MockEthereumDaClient_DaClient18___max_blob_per_txnNtB5_6Common4with
FN:37,_RINvMs4_NtNtCscm20NoNPXfL_18ethereum_da_client36___mock_MockEthereumDaClient_DaClient18___max_blob_per_txnNtB6_6Common5withfpEBa_
FN:37,_RINvMs4_NtNtCscm20NoNPXfL_18ethereum_da_client36___mock_MockEthereumDaClient_DaClient18___max_blob_per_txnNtB6_6Common8withf_stpEBa_
FN:37,_RNvMs4_NtNtCscm20NoNPXfL_18ethereum_da_client36___mock_MockEthereumDaClient_DaClient18___max_blob_per_txnNtB5_6Common15verify_sequence
FN:37,_RNvXs5_NtNtCscm20NoNPXfL_18ethereum_da_client36___mock_MockEthereumDaClient_DaClient18___max_blob_per_txnNtB5_6CommonNtNtNtCsl82brYPINY5_4core3ops4drop4Drop4drop
FN:37,_RNvMs6_NtNtCscm20NoNPXfL_18ethereum_da_client36___mock_MockEthereumDaClient_DaClient18___max_blob_per_txnNtB5_11Expectation4call
FN:37,_RINvMs6_NtNtCscm20NoNPXfL_18ethereum_da_client36___mock_MockEthereumDaClient_DaClient18___max_blob_per_txnNtB6_11Expectation12return_constpEBa_
FN:37,_RNCINvMs6_NtNtCscm20NoNPXfL_18ethereum_da_client36___mock_MockEthereumDaClient_DaClient18___max_blob_per_txnNtB8_11Expectation12return_constpE0Bc_
FN:37,_RINvMs6_NtNtCscm20NoNPXfL_18ethereum_da_client36___mock_MockEthereumDaClient_DaClient18___max_blob_per_txnNtB6_11Expectation15return_const_stpEBa_
FN:37,_RNCINvMs6_NtNtCscm20NoNPXfL_18ethereum_da_client36___mock_MockEthereumDaClient_DaClient18___max_blob_per_txnNtB8_11Expectation15return_const_stpE0Bc_
FN:37,_RINvMs6_NtNtCscm20NoNPXfL_18ethereum_da_client36___mock_MockEthereumDaClient_DaClient18___max_blob_per_txnNtB6_11Expectation11return_oncepEBa_
FN:37,_RINvMs6_NtNtCscm20NoNPXfL_18ethereum_da_client36___mock_MockEthereumDaClient_DaClient18___max_blob_per_txnNtB6_11Expectation14return_once_stpEBa_
FN:37,_RINvMs6_NtNtCscm20NoNPXfL_18ethereum_da_client36___mock_MockEthereumDaClient_DaClient18___max_blob_per_txnNtB6_11Expectation9returningpEBa_
FN:37,_RINvMs6_NtNtCscm20NoNPXfL_18ethereum_da_client36___mock_MockEthereumDaClient_DaClient18___max_blob_per_txnNtB6_11Expectation12returning_stpEBa_
FN:37,_RNvMs6_NtNtCscm20NoNPXfL_18ethereum_da_client36___mock_MockEthereumDaClient_DaClient18___max_blob_per_txnNtB5_11Expectation11in_sequence
FN:37,_RNvMs6_NtNtCscm20NoNPXfL_18ethereum_da_client36___mock_MockEthereumDaClient_DaClient18___max_blob_per_txnNtB5_11Expectation7is_done
FN:37,_RNvMs6_NtNtCscm20NoNPXfL_18ethereum_da_client36___mock_MockEthereumDaClient_DaClient18___max_blob_per_txnNtB5_11Expectation7matches
FN:37,_RNvMs6_NtNtCscm20NoNPXfL_18ethereum_da_client36___mock_MockEthereumDaClient_DaClient18___max_blob_per_txnNtB5_11Expectation5never
FN:37,_RNvMs6_NtNtCscm20NoNPXfL_18ethereum_da_client36___mock_MockEthereumDaClient_DaClient18___max_blob_per_txnNtB5_11Expectation3new
FN:37,_RNvMs6_NtNtCscm20NoNPXfL_18ethereum_da_client36___mock_MockEthereumDaClient_DaClient18___max_blob_per_txnNtB5_11Expectation4once
FN:37,_RINvMs6_NtNtCscm20NoNPXfL_18ethereum_da_client36___mock_MockEthereumDaClient_DaClient18___max_blob_per_txnNtB6_11Expectation5timespEBa_
FN:37,_RNvMs6_NtNtCscm20NoNPXfL_18ethereum_da_client36___mock_MockEthereumDaClient_DaClient18___max_blob_per_txnNtB5_11Expectation4with
FN:37,_RINvMs6_NtNtCscm20NoNPXfL_18ethereum_da_client36___mock_MockEthereumDaClient_DaClient18___max_blob_per_txnNtB6_11Expectation5withfpEBa_
FN:37,_RINvMs6_NtNtCscm20NoNPXfL_18ethereum_da_client36___mock_MockEthereumDaClient_DaClient18___max_blob_per_txnNtB6_11Expectation8withf_stpEBa_
FN:37,_RNvXs7_NtNtCscm20NoNPXfL_18ethereum_da_client36___mock_MockEthereumDaClient_DaClient18___max_blob_per_txnNtB5_11ExpectationNtNtCsl82brYPINY5_4core7default7Default7default
FN:37,_RNvMs8_NtNtCscm20NoNPXfL_18ethereum_da_client36___mock_MockEthereumDaClient_DaClient18___max_blob_per_txnNtB5_12Expectations10checkpoint
FN:37,_RNvMs8_NtNtCscm20NoNPXfL_18ethereum_da_client36___mock_MockEthereumDaClient_DaClient18___max_blob_per_txnNtB5_12Expectations6expect
FN:37,_RNvMs8_NtNtCscm20NoNPXfL_18ethereum_da_client36___mock_MockEthereumDaClient_DaClient18___max_blob_per_txnNtB5_12Expectations3new
FN:37,_RNvXs9_NtNtCscm20NoNPXfL_18ethereum_da_client36___mock_MockEthereumDaClient_DaClient18___max_blob_per_txnNtB5_12ExpectationsNtNtCsl82brYPINY5_4core7default7Default7default
FN:37,_RNvMsa_NtNtCscm20NoNPXfL_18ethereum_da_client36___mock_MockEthereumDaClient_DaClient18___max_blob_per_txnNtB5_12Expectations4call
FN:37,_RNCNvMsa_NtNtCscm20NoNPXfL_18ethereum_da_client36___mock_MockEthereumDaClient_DaClient18___max_blob_per_txnNtB7_12Expectations4call0Bb_
FN:37,_RNCNvMsa_NtNtCscm20NoNPXfL_18ethereum_da_client36___mock_MockEthereumDaClient_DaClient18___max_blob_per_txnNtB7_12Expectations4calls_0Bb_
FN:37,_RNvMNtNtCscm20NoNPXfL_18ethereum_da_client36___mock_MockEthereumDaClient_DaClient20___max_bytes_per_blobNtB2_5Rfunc8call_mut
FN:37,_RNvXs_NtNtCscm20NoNPXfL_18ethereum_da_client36___mock_MockEthereumDaClient_DaClient20___max_bytes_per_blobNtB4_5RfuncNtNtCsl82brYPINY5_4core7default7Default7default
FN:37,_RNvMs0_NtNtCscm20NoNPXfL_18ethereum_da_client36___mock_MockEthereumDaClient_DaClient20___max_bytes_per_blobNtB5_7Matcher7matches
FN:37,_RNCNvMs0_NtNtCscm20NoNPXfL_18ethereum_da_client36___mock_MockEthereumDaClient_DaClient20___max_bytes_per_blobNtB7_7Matcher7matches0Bb_
FN:37,_RNvXs1_NtNtCscm20NoNPXfL_18ethereum_da_client36___mock_MockEthereumDaClient_DaClient20___max_bytes_per_blobNtB5_7MatcherNtNtCsl82brYPINY5_4core7default7Default7default
FN:37,_RNvXs2_NtNtCscm20NoNPXfL_18ethereum_da_client36___mock_MockEthereumDaClient_DaClient20___max_bytes_per_blobNtB5_7MatcherNtNtCsl82brYPINY5_4core3fmt7Display3fmt
FN:37,_RNvXs3_NtNtCscm20NoNPXfL_18ethereum_da_client36___mock_MockEthereumDaClient_DaClient20___max_bytes_per_blobNtB5_6CommonNtNtCsl82brYPINY5_4core7default7Default7default
FN:37,_RNvMs4_NtNtCscm20NoNPXfL_18ethereum_da_client36___mock_MockEthereumDaClient_DaClient20___max_bytes_per_blobNtB5_6Common4call
FN:37,_RNvMs4_NtNtCscm20NoNPXfL_18ethereum_da_client36___mock_MockEthereumDaClient_DaClient20___max_bytes_per_blobNtB5_6Common11in_sequence
FN:37,_RNvMs4_NtNtCscm20NoNPXfL_18ethereum_da_client36___mock_MockEthereumDaClient_DaClient20___max_bytes_per_blobNtB5_6Common7is_done
FN:37,_RNvMs4_NtNtCscm20NoNPXfL_18ethereum_da_client36___mock_MockEthereumDaClient_DaClient20___max_bytes_per_blobNtB5_6Common7matches
FN:37,_RNvMs4_NtNtCscm20NoNPXfL_18ethereum_da_client36___mock_MockEthereumDaClient_DaClient20___max_bytes_per_blobNtB5_6Common5never
FN:37,_RNvMs4_NtNtCscm20NoNPXfL_18ethereum_da_client36___mock_MockEthereumDaClient_DaClient20___max_bytes_per_blobNtB5_6Common16satisfy_sequence
FN:37,_RINvMs4_NtNtCscm20NoNPXfL_18ethereum_da_client36___mock_MockEthereumDaClient_DaClient20___max_bytes_per_blobNtB6_6Common5timespEBa_
FN:37,_RNvMs4_NtNtCscm20NoNPXfL_18ethereum_da_client36___mock_MockEthereumDaClient_DaClient20___max_bytes_per_blobNtB5_6Common4with
FN:37,_RINvMs4_NtNtCscm20NoNPXfL_18ethereum_da_client36___mock_MockEthereumDaClient_DaClient20___max_bytes_per_blobNtB6_6Common5withfpEBa_
FN:37,_RINvMs4_NtNtCscm20NoNPXfL_18ethereum_da_client36___mock_MockEthereumDaClient_DaClient20___max_bytes_per_blobNtB6_6Common8withf_stpEBa_
FN:37,_RNvMs4_NtNtCscm20NoNPXfL_18ethereum_da_client36___mock_MockEthereumDaClient_DaClient20___max_bytes_per_blobNtB5_6Common15verify_sequence
FN:37,_RNvXs5_NtNtCscm20NoNPXfL_18ethereum_da_client36___mock_MockEthereumDaClient_DaClient20___max_bytes_per_blobNtB5_6CommonNtNtNtCsl82brYPINY5_4core3ops4drop4Drop4drop
FN:37,_RNvMs6_NtNtCscm20NoNPXfL_18ethereum_da_client36___mock_MockEthereumDaClient_DaClient20___max_bytes_per_blobNtB5_11Expectation4call
FN:37,_RINvMs6_NtNtCscm20NoNPXfL_18ethereum_da_client36___mock_MockEthereumDaClient_DaClient20___max_bytes_per_blobNtB6_11Expectation12return_constpEBa_
FN:37,_RNCINvMs6_NtNtCscm20NoNPXfL_18ethereum_da_client36___mock_MockEthereumDaClient_DaClient20___max_bytes_per_blobNtB8_11Expectation12return_constpE0Bc_
FN:37,_RINvMs6_NtNtCscm20NoNPXfL_18ethereum_da_client36___mock_MockEthereumDaClient_DaClient20___max_bytes_per_blobNtB6_11Expectation15return_const_stpEBa_
FN:37,_RNCINvMs6_NtNtCscm20NoNPXfL_18ethereum_da_client36___mock_MockEthereumDaClient_DaClient20___max_bytes_per_blobNtB8_11Expectation15return_const_stpE0Bc_
FN:37,_RINvMs6_NtNtCscm20NoNPXfL_18ethereum_da_client36___mock_MockEthereumDaClient_DaClient20___max_bytes_per_blobNtB6_11Expectation11return_oncepEBa_
FN:37,_RINvMs6_NtNtCscm20NoNPXfL_18ethereum_da_client36___mock_MockEthereumDaClient_DaClient20___max_bytes_per_blobNtB6_11Expectation14return_once_stpEBa_
FN:37,_RINvMs6_NtNtCscm20NoNPXfL_18ethereum_da_client36___mock_MockEthereumDaClient_DaClient20___max_bytes_per_blobNtB6_11Expectation9returningpEBa_
FN:37,_RINvMs6_NtNtCscm20NoNPXfL_18ethereum_da_client36___mock_MockEthereumDaClient_DaClient20___max_bytes_per_blobNtB6_11Expectation12returning_stpEBa_
FN:37,_RNvMs6_NtNtCscm20NoNPXfL_18ethereum_da_client36___mock_MockEthereumDaClient_DaClient20___max_bytes_per_blobNtB5_11Expectation11in_sequence
FN:37,_RNvMs6_NtNtCscm20NoNPXfL_18ethereum_da_client36___mock_MockEthereumDaClient_DaClient20___max_bytes_per_blobNtB5_11Expectation7is_done
FN:37,_RNvMs6_NtNtCscm20NoNPXfL_18ethereum_da_client36___mock_MockEthereumDaClient_DaClient20___max_bytes_per_blobNtB5_11Expectation7matches
FN:37,_RNvMs6_NtNtCscm20NoNPXfL_18ethereum_da_client36___mock_MockEthereumDaClient_DaClient20___max_bytes_per_blobNtB5_11Expectation5never
FN:37,_RNvMs6_NtNtCscm20NoNPXfL_18ethereum_da_client36___mock_MockEthereumDaClient_DaClient20___max_bytes_per_blobNtB5_11Expectation3new
FN:37,_RNvMs6_NtNtCscm20NoNPXfL_18ethereum_da_client36___mock_MockEthereumDaClient_DaClient20___max_bytes_per_blobNtB5_11Expectation4once
FN:37,_RINvMs6_NtNtCscm20NoNPXfL_18ethereum_da_client36___mock_MockEthereumDaClient_DaClient20___max_bytes_per_blobNtB6_11Expectation5timespEBa_
FN:37,_RNvMs6_NtNtCscm20NoNPXfL_18ethereum_da_client36___mock_MockEthereumDaClient_DaClient20___max_bytes_per_blobNtB5_11Expectation4with
FN:37,_RINvMs6_NtNtCscm20NoNPXfL_18ethereum_da_client36___mock_MockEthereumDaClient_DaClient20___max_bytes_per_blobNtB6_11Expectation5withfpEBa_
FN:37,_RINvMs6_NtNtCscm20NoNPXfL_18ethereum_da_client36___mock_MockEthereumDaClient_DaClient20___max_bytes_per_blobNtB6_11Expectation8withf_stpEBa_
FN:37,_RNvXs7_NtNtCscm20NoNPXfL_18ethereum_da_client36___mock_MockEthereumDaClient_DaClient20___max_bytes_per_blobNtB5_11ExpectationNtNtCsl82brYPINY5_4core7default7Default7default
FN:37,_RNvMs8_NtNtCscm20NoNPXfL_18ethereum_da_client36___mock_MockEthereumDaClient_DaClient20___max_bytes_per_blobNtB5_12Expectations10checkpoint
FN:37,_RNvMs8_NtNtCscm20NoNPXfL_18ethereum_da_client36___mock_MockEthereumDaClient_DaClient20___max_bytes_per_blobNtB5_12Expectations6expect
FN:37,_RNvMs8_NtNtCscm20NoNPXfL_18ethereum_da_client36___mock_MockEthereumDaClient_DaClient20___max_bytes_per_blobNtB5_12Expectations3new
FN:37,_RNvXs9_NtNtCscm20NoNPXfL_18ethereum_da_client36___mock_MockEthereumDaClient_DaClient20___max_bytes_per_blobNtB5_12ExpectationsNtNtCsl82brYPINY5_4core7default7Default7default
FN:37,_RNvMsa_NtNtCscm20NoNPXfL_18ethereum_da_client36___mock_MockEthereumDaClient_DaClient20___max_bytes_per_blobNtB5_12Expectations4call
FN:37,_RNCNvMsa_NtNtCscm20NoNPXfL_18ethereum_da_client36___mock_MockEthereumDaClient_DaClient20___max_bytes_per_blobNtB7_12Expectations4call0Bb_
FN:37,_RNCNvMsa_NtNtCscm20NoNPXfL_18ethereum_da_client36___mock_MockEthereumDaClient_DaClient20___max_bytes_per_blobNtB7_12Expectations4calls_0Bb_
FN:37,_RNvXs1_Cscm20NoNPXfL_18ethereum_da_clientNtB5_29MockEthereumDaClient_DaClientNtNtCsl82brYPINY5_4core7default7Default7default
FN:37,_RNvMs2_Cscm20NoNPXfL_18ethereum_da_clientNtB5_29MockEthereumDaClient_DaClient10checkpoint
FN:37,_RNvMs3_Cscm20NoNPXfL_18ethereum_da_clientNtB5_20MockEthereumDaClient10checkpoint
FN:37,_RNvMs3_Cscm20NoNPXfL_18ethereum_da_clientNtB5_20MockEthereumDaClient3new
FN:37,_RNvXs6_Cscm20NoNPXfL_18ethereum_da_clientNtB5_20MockEthereumDaClientNtCsd2a39Kes4Ul_19da_client_interface8DaClient18publish_state_diff
FN:37,_RNCNvXs6_Cscm20NoNPXfL_18ethereum_da_clientNtB7_20MockEthereumDaClientNtCsd2a39Kes4Ul_19da_client_interface8DaClient18publish_state_diff0B7_
FN:37,_RNvXs6_Cscm20NoNPXfL_18ethereum_da_clientNtB5_20MockEthereumDaClientNtCsd2a39Kes4Ul_19da_client_interface8DaClient16verify_inclusion
FN:37,_RNCNvXs6_Cscm20NoNPXfL_18ethereum_da_clientNtB7_20MockEthereumDaClientNtCsd2a39Kes4Ul_19da_client_interface8DaClient16verify_inclusion0B7_
FN:37,_RNvXs6_Cscm20NoNPXfL_18ethereum_da_clientNtB5_20MockEthereumDaClientNtCsd2a39Kes4Ul_19da_client_interface8DaClient16max_blob_per_txn
FN:37,_RNCNvXs6_Cscm20NoNPXfL_18ethereum_da_clientNtB7_20MockEthereumDaClientNtCsd2a39Kes4Ul_19da_client_interface8DaClient16max_blob_per_txn0B7_
FN:37,_RNvXs6_Cscm20NoNPXfL_18ethereum_da_clientNtB5_20MockEthereumDaClientNtCsd2a39Kes4Ul_19da_client_interface8DaClient18max_bytes_per_blob
FN:37,_RNCNvXs6_Cscm20NoNPXfL_18ethereum_da_clientNtB7_20MockEthereumDaClientNtCsd2a39Kes4Ul_19da_client_interface8DaClient18max_bytes_per_blob0B7_
FN:37,_RNvMs4_Cscm20NoNPXfL_18ethereum_da_clientNtB5_20MockEthereumDaClient25expect_publish_state_diff
FN:37,_RNvMs4_Cscm20NoNPXfL_18ethereum_da_clientNtB5_20MockEthereumDaClient23expect_verify_inclusion
FN:37,_RNvMs4_Cscm20NoNPXfL_18ethereum_da_clientNtB5_20MockEthereumDaClient23expect_max_blob_per_txn
FN:37,_RNvMs4_Cscm20NoNPXfL_18ethereum_da_clientNtB5_20MockEthereumDaClient25expect_max_bytes_per_blob
FN:113,_RNvXCscm20NoNPXfL_18ethereum_da_clientNtB2_16EthereumDaClientINtNtCsl82brYPINY5_4core7convert4FromNtNtB2_6config16EthereumDaConfigE4from
FN:218,_RNvNtCscm20NoNPXfL_18ethereum_da_client5tests21__vec_u8_to_hex_string
FN:219,_RNCNvNtCscm20NoNPXfL_18ethereum_da_client5tests21__vec_u8_to_hex_string0B5_
FN:37,_RNvMNtNtCsaXXtEBL21yp_18ethereum_da_client36___mock_MockEthereumDaClient_DaClient20___publish_state_diffNtB2_5Rfunc8call_mut
FN:37,_RNvMs0_NtNtCsaXXtEBL21yp_18ethereum_da_client36___mock_MockEthereumDaClient_DaClient20___publish_state_diffNtB5_7Matcher7matches
FN:37,_RNCNvMs0_NtNtCsaXXtEBL21yp_18ethereum_da_client36___mock_MockEthereumDaClient_DaClient20___publish_state_diffNtB7_7Matcher7matches0Bb_
FN:37,_RNvXs2_NtNtCsaXXtEBL21yp_18ethereum_da_client36___mock_MockEthereumDaClient_DaClient20___publish_state_diffNtB5_7MatcherNtNtCsl82brYPINY5_4core3fmt7Display3fmt
FN:37,_RNvMs4_NtNtCsaXXtEBL21yp_18ethereum_da_client36___mock_MockEthereumDaClient_DaClient20___publish_state_diffNtB5_6Common4call
FN:37,_RNvMs4_NtNtCsaXXtEBL21yp_18ethereum_da_client36___mock_MockEthereumDaClient_DaClient20___publish_state_diffNtB5_6Common11in_sequence
FN:37,_RNvMs4_NtNtCsaXXtEBL21yp_18ethereum_da_client36___mock_MockEthereumDaClient_DaClient20___publish_state_diffNtB5_6Common7is_done
FN:37,_RNvMs4_NtNtCsaXXtEBL21yp_18ethereum_da_client36___mock_MockEthereumDaClient_DaClient20___publish_state_diffNtB5_6Common7matches
FN:37,_RNvMs4_NtNtCsaXXtEBL21yp_18ethereum_da_client36___mock_MockEthereumDaClient_DaClient20___publish_state_diffNtB5_6Common16satisfy_sequence
FN:37,_RNvMs4_NtNtCsaXXtEBL21yp_18ethereum_da_client36___mock_MockEthereumDaClient_DaClient20___publish_state_diffNtB5_6Common15verify_sequence
FN:37,_RNvXs5_NtNtCsaXXtEBL21yp_18ethereum_da_client36___mock_MockEthereumDaClient_DaClient20___publish_state_diffNtB5_6CommonNtNtNtCsl82brYPINY5_4core3ops4drop4Drop4drop
FN:37,_RNvMs6_NtNtCsaXXtEBL21yp_18ethereum_da_client36___mock_MockEthereumDaClient_DaClient20___publish_state_diffNtB5_11Expectation4call
FN:37,_RNvMs6_NtNtCsaXXtEBL21yp_18ethereum_da_client36___mock_MockEthereumDaClient_DaClient20___publish_state_diffNtB5_11Expectation11in_sequence
FN:37,_RNvMs6_NtNtCsaXXtEBL21yp_18ethereum_da_client36___mock_MockEthereumDaClient_DaClient20___publish_state_diffNtB5_11Expectation7is_done
FN:37,_RNvMs6_NtNtCsaXXtEBL21yp_18ethereum_da_client36___mock_MockEthereumDaClient_DaClient20___publish_state_diffNtB5_11Expectation7matches
FN:37,_RNvMs6_NtNtCsaXXtEBL21yp_18ethereum_da_client36___mock_MockEthereumDaClient_DaClient20___publish_state_diffNtB5_11Expectation3new
FN:37,_RNvMs6_NtNtCsaXXtEBL21yp_18ethereum_da_client36___mock_MockEthereumDaClient_DaClient20___publish_state_diffNtB5_11Expectation4once
FN:37,_RINvMs6_NtNtCsaXXtEBL21yp_18ethereum_da_client36___mock_MockEthereumDaClient_DaClient20___publish_state_diffNtB6_11Expectation5timesjEBa_
FN:37,_RINvMs4_NtNtCsaXXtEBL21yp_18ethereum_da_client36___mock_MockEthereumDaClient_DaClient20___publish_state_diffNtB6_6Common5timesjEBa_
FN:37,_RNvXs7_NtNtCsaXXtEBL21yp_18ethereum_da_client36___mock_MockEthereumDaClient_DaClient20___publish_state_diffNtB5_11ExpectationNtNtCsl82brYPINY5_4core7default7Default7default
FN:37,_RNvXs3_NtNtCsaXXtEBL21yp_18ethereum_da_client36___mock_MockEthereumDaClient_DaClient20___publish_state_diffNtB5_6CommonNtNtCsl82brYPINY5_4core7default7Default7default
FN:37,_RNvXs1_NtNtCsaXXtEBL21yp_18ethereum_da_client36___mock_MockEthereumDaClient_DaClient20___publish_state_diffNtB5_7MatcherNtNtCsl82brYPINY5_4core7default7Default7default
FN:37,_RNvXs_NtNtCsaXXtEBL21yp_18ethereum_da_client36___mock_MockEthereumDaClient_DaClient20___publish_state_diffNtB4_5RfuncNtNtCsl82brYPINY5_4core7default7Default7default
FN:37,_RNvMs8_NtNtCsaXXtEBL21yp_18ethereum_da_client36___mock_MockEthereumDaClient_DaClient20___publish_state_diffNtB5_12Expectations10checkpoint
FN:37,_RNvMs8_NtNtCsaXXtEBL21yp_18ethereum_da_client36___mock_MockEthereumDaClient_DaClient20___publish_state_diffNtB5_12Expectations6expect
FN:37,_RNvMsa_NtNtCsaXXtEBL21yp_18ethereum_da_client36___mock_MockEthereumDaClient_DaClient20___publish_state_diffNtB5_12Expectations4call
FN:37,_RNCNvMsa_NtNtCsaXXtEBL21yp_18ethereum_da_client36___mock_MockEthereumDaClient_DaClient20___publish_state_diffNtB7_12Expectations4calls_0Bb_
FN:37,_RNCNvMsa_NtNtCsaXXtEBL21yp_18ethereum_da_client36___mock_MockEthereumDaClient_DaClient20___publish_state_diffNtB7_12Expectations4call0Bb_
FN:37,_RNvMNtNtCsaXXtEBL21yp_18ethereum_da_client36___mock_MockEthereumDaClient_DaClient18___max_blob_per_txnNtB2_5Rfunc8call_mut
FN:37,_RNvMs0_NtNtCsaXXtEBL21yp_18ethereum_da_client36___mock_MockEthereumDaClient_DaClient18___max_blob_per_txnNtB5_7Matcher7matches
FN:37,_RNCNvMs0_NtNtCsaXXtEBL21yp_18ethereum_da_client36___mock_MockEthereumDaClient_DaClient18___max_blob_per_txnNtB7_7Matcher7matches0Bb_
FN:37,_RNvXs2_NtNtCsaXXtEBL21yp_18ethereum_da_client36___mock_MockEthereumDaClient_DaClient18___max_blob_per_txnNtB5_7MatcherNtNtCsl82brYPINY5_4core3fmt7Display3fmt
FN:37,_RNvMs4_NtNtCsaXXtEBL21yp_18ethereum_da_client36___mock_MockEthereumDaClient_DaClient18___max_blob_per_txnNtB5_6Common4call
FN:37,_RNvMs4_NtNtCsaXXtEBL21yp_18ethereum_da_client36___mock_MockEthereumDaClient_DaClient18___max_blob_per_txnNtB5_6Common11in_sequence
FN:37,_RNvMs4_NtNtCsaXXtEBL21yp_18ethereum_da_client36___mock_MockEthereumDaClient_DaClient18___max_blob_per_txnNtB5_6Common7is_done
FN:37,_RNvMs4_NtNtCsaXXtEBL21yp_18ethereum_da_client36___mock_MockEthereumDaClient_DaClient18___max_blob_per_txnNtB5_6Common7matches
FN:37,_RNvMs4_NtNtCsaXXtEBL21yp_18ethereum_da_client36___mock_MockEthereumDaClient_DaClient18___max_blob_per_txnNtB5_6Common16satisfy_sequence
FN:37,_RNvMs4_NtNtCsaXXtEBL21yp_18ethereum_da_client36___mock_MockEthereumDaClient_DaClient18___max_blob_per_txnNtB5_6Common4with
FN:37,_RNvMs4_NtNtCsaXXtEBL21yp_18ethereum_da_client36___mock_MockEthereumDaClient_DaClient18___max_blob_per_txnNtB5_6Common15verify_sequence
FN:37,_RNvXs5_NtNtCsaXXtEBL21yp_18ethereum_da_client36___mock_MockEthereumDaClient_DaClient18___max_blob_per_txnNtB5_6CommonNtNtNtCsl82brYPINY5_4core3ops4drop4Drop4drop
FN:37,_RNvMs6_NtNtCsaXXtEBL21yp_18ethereum_da_client36___mock_MockEthereumDaClient_DaClient18___max_blob_per_txnNtB5_11Expectation4call
FN:37,_RNvMs6_NtNtCsaXXtEBL21yp_18ethereum_da_client36___mock_MockEthereumDaClient_DaClient18___max_blob_per_txnNtB5_11Expectation11in_sequence
FN:37,_RNvMs6_NtNtCsaXXtEBL21yp_18ethereum_da_client36___mock_MockEthereumDaClient_DaClient18___max_blob_per_txnNtB5_11Expectation7is_done
FN:37,_RNvMs6_NtNtCsaXXtEBL21yp_18ethereum_da_client36___mock_MockEthereumDaClient_DaClient18___max_blob_per_txnNtB5_11Expectation7matches
FN:37,_RNvMs6_NtNtCsaXXtEBL21yp_18ethereum_da_client36___mock_MockEthereumDaClient_DaClient18___max_blob_per_txnNtB5_11Expectation3new
FN:37,_RNvMs6_NtNtCsaXXtEBL21yp_18ethereum_da_client36___mock_MockEthereumDaClient_DaClient18___max_blob_per_txnNtB5_11Expectation4once
FN:37,_RINvMs6_NtNtCsaXXtEBL21yp_18ethereum_da_client36___mock_MockEthereumDaClient_DaClient18___max_blob_per_txnNtB6_11Expectation5timesjEBa_
FN:37,_RINvMs4_NtNtCsaXXtEBL21yp_18ethereum_da_client36___mock_MockEthereumDaClient_DaClient18___max_blob_per_txnNtB6_6Common5timesjEBa_
FN:37,_RNvMs6_NtNtCsaXXtEBL21yp_18ethereum_da_client36___mock_MockEthereumDaClient_DaClient18___max_blob_per_txnNtB5_11Expectation4with
FN:37,_RNvXs7_NtNtCsaXXtEBL21yp_18ethereum_da_client36___mock_MockEthereumDaClient_DaClient18___max_blob_per_txnNtB5_11ExpectationNtNtCsl82brYPINY5_4core7default7Default7default
FN:37,_RNvXs3_NtNtCsaXXtEBL21yp_18ethereum_da_client36___mock_MockEthereumDaClient_DaClient18___max_blob_per_txnNtB5_6CommonNtNtCsl82brYPINY5_4core7default7Default7default
FN:37,_RNvXs1_NtNtCsaXXtEBL21yp_18ethereum_da_client36___mock_MockEthereumDaClient_DaClient18___max_blob_per_txnNtB5_7MatcherNtNtCsl82brYPINY5_4core7default7Default7default
FN:37,_RNvXs_NtNtCsaXXtEBL21yp_18ethereum_da_client36___mock_MockEthereumDaClient_DaClient18___max_blob_per_txnNtB4_5RfuncNtNtCsl82brYPINY5_4core7default7Default7default
FN:37,_RNvMs8_NtNtCsaXXtEBL21yp_18ethereum_da_client36___mock_MockEthereumDaClient_DaClient18___max_blob_per_txnNtB5_12Expectations10checkpoint
FN:37,_RNvMs8_NtNtCsaXXtEBL21yp_18ethereum_da_client36___mock_MockEthereumDaClient_DaClient18___max_blob_per_txnNtB5_12Expectations6expect
FN:37,_RNvMsa_NtNtCsaXXtEBL21yp_18ethereum_da_client36___mock_MockEthereumDaClient_DaClient18___max_blob_per_txnNtB5_12Expectations4call
FN:37,_RNCNvMsa_NtNtCsaXXtEBL21yp_18ethereum_da_client36___mock_MockEthereumDaClient_DaClient18___max_blob_per_txnNtB7_12Expectations4calls_0Bb_
FN:37,_RNCNvMsa_NtNtCsaXXtEBL21yp_18ethereum_da_client36___mock_MockEthereumDaClient_DaClient18___max_blob_per_txnNtB7_12Expectations4call0Bb_
FN:113,_RNvXCsaXXtEBL21yp_18ethereum_da_clientNtB2_16EthereumDaClientINtNtCsl82brYPINY5_4core7convert4FromNtNtB2_6config16EthereumDaConfigE4from
FN:125,_RNvCsaXXtEBL21yp_18ethereum_da_client15prepare_sidecar
FN:128,_RNCNvCsaXXtEBL21yp_18ethereum_da_client15prepare_sidecar0B3_
FN:37,_RNvXs_CsaXXtEBL21yp_18ethereum_da_clientNtB4_20MockEthereumDaClientNtNtCsl82brYPINY5_4core3fmt5Debug3fmt
FN:37,_RNvMs2_CsaXXtEBL21yp_18ethereum_da_clientNtB5_29MockEthereumDaClient_DaClient10checkpoint
FN:37,_RNvMs3_CsaXXtEBL21yp_18ethereum_da_clientNtB5_20MockEthereumDaClient10checkpoint
FN:37,_RNvMs4_CsaXXtEBL21yp_18ethereum_da_clientNtB5_20MockEthereumDaClient25expect_publish_state_diff
FN:37,_RNvMs4_CsaXXtEBL21yp_18ethereum_da_clientNtB5_20MockEthereumDaClient23expect_verify_inclusion
FN:37,_RNvMs4_CsaXXtEBL21yp_18ethereum_da_clientNtB5_20MockEthereumDaClient23expect_max_blob_per_txn
FN:37,_RNvMs4_CsaXXtEBL21yp_18ethereum_da_clientNtB5_20MockEthereumDaClient25expect_max_bytes_per_blob
FN:40,_RNvXs5_CsaXXtEBL21yp_18ethereum_da_clientNtB5_16EthereumDaClientNtCsd2a39Kes4Ul_19da_client_interface8DaClient18publish_state_diff
FN:40,_RNCNvXs5_CsaXXtEBL21yp_18ethereum_da_clientNtB7_16EthereumDaClientNtCsd2a39Kes4Ul_19da_client_interface8DaClient18publish_state_diff0B7_
FN:86,_RNvXs5_CsaXXtEBL21yp_18ethereum_da_clientNtB5_16EthereumDaClientNtCsd2a39Kes4Ul_19da_client_interface8DaClient16verify_inclusion
FN:86,_RNCNvXs5_CsaXXtEBL21yp_18ethereum_da_clientNtB7_16EthereumDaClientNtCsd2a39Kes4Ul_19da_client_interface8DaClient16verify_inclusion0B7_
FN:103,_RNvXs5_CsaXXtEBL21yp_18ethereum_da_clientNtB5_16EthereumDaClientNtCsd2a39Kes4Ul_19da_client_interface8DaClient16max_blob_per_txn
FN:103,_RNCNvXs5_CsaXXtEBL21yp_18ethereum_da_clientNtB7_16EthereumDaClientNtCsd2a39Kes4Ul_19da_client_interface8DaClient16max_blob_per_txn0B7_
FN:107,_RNvXs5_CsaXXtEBL21yp_18ethereum_da_clientNtB5_16EthereumDaClientNtCsd2a39Kes4Ul_19da_client_interface8DaClient18max_bytes_per_blob
FN:107,_RNCNvXs5_CsaXXtEBL21yp_18ethereum_da_clientNtB7_16EthereumDaClientNtCsd2a39Kes4Ul_19da_client_interface8DaClient18max_bytes_per_blob0B7_
FN:37,_RNvXs6_CsaXXtEBL21yp_18ethereum_da_clientNtB5_20MockEthereumDaClientNtCsd2a39Kes4Ul_19da_client_interface8DaClient18publish_state_diff
FN:37,_RNCNvXs6_CsaXXtEBL21yp_18ethereum_da_clientNtB7_20MockEthereumDaClientNtCsd2a39Kes4Ul_19da_client_interface8DaClient18publish_state_diff0B7_
FN:37,_RNvXs6_CsaXXtEBL21yp_18ethereum_da_clientNtB5_20MockEthereumDaClientNtCsd2a39Kes4Ul_19da_client_interface8DaClient16verify_inclusion
FN:37,_RNCNvXs6_CsaXXtEBL21yp_18ethereum_da_clientNtB7_20MockEthereumDaClientNtCsd2a39Kes4Ul_19da_client_interface8DaClient16verify_inclusion0B7_
FN:37,_RNvXs6_CsaXXtEBL21yp_18ethereum_da_clientNtB5_20MockEthereumDaClientNtCsd2a39Kes4Ul_19da_client_interface8DaClient16max_blob_per_txn
FN:37,_RNCNvXs6_CsaXXtEBL21yp_18ethereum_da_clientNtB7_20MockEthereumDaClientNtCsd2a39Kes4Ul_19da_client_interface8DaClient16max_blob_per_txn0B7_
FN:37,_RNvXs6_CsaXXtEBL21yp_18ethereum_da_clientNtB5_20MockEthereumDaClientNtCsd2a39Kes4Ul_19da_client_interface8DaClient18max_bytes_per_blob
FN:37,_RNCNvXs6_CsaXXtEBL21yp_18ethereum_da_clientNtB7_20MockEthereumDaClientNtCsd2a39Kes4Ul_19da_client_interface8DaClient18max_bytes_per_blob0B7_
FN:37,_RNvMNtNtCsaXXtEBL21yp_18ethereum_da_client36___mock_MockEthereumDaClient_DaClient20___max_bytes_per_blobNtB2_5Rfunc8call_mut
FN:37,_RNvMs0_NtNtCsaXXtEBL21yp_18ethereum_da_client36___mock_MockEthereumDaClient_DaClient20___max_bytes_per_blobNtB5_7Matcher7matches
FN:37,_RNCNvMs0_NtNtCsaXXtEBL21yp_18ethereum_da_client36___mock_MockEthereumDaClient_DaClient20___max_bytes_per_blobNtB7_7Matcher7matches0Bb_
FN:37,_RNvXs2_NtNtCsaXXtEBL21yp_18ethereum_da_client36___mock_MockEthereumDaClient_DaClient20___max_bytes_per_blobNtB5_7MatcherNtNtCsl82brYPINY5_4core3fmt7Display3fmt
FN:37,_RNvMs4_NtNtCsaXXtEBL21yp_18ethereum_da_client36___mock_MockEthereumDaClient_DaClient20___max_bytes_per_blobNtB5_6Common4call
FN:37,_RNvMs4_NtNtCsaXXtEBL21yp_18ethereum_da_client36___mock_MockEthereumDaClient_DaClient20___max_bytes_per_blobNtB5_6Common11in_sequence
FN:37,_RNvMs4_NtNtCsaXXtEBL21yp_18ethereum_da_client36___mock_MockEthereumDaClient_DaClient20___max_bytes_per_blobNtB5_6Common7is_done
FN:37,_RNvMs4_NtNtCsaXXtEBL21yp_18ethereum_da_client36___mock_MockEthereumDaClient_DaClient20___max_bytes_per_blobNtB5_6Common7matches
FN:37,_RNvMs4_NtNtCsaXXtEBL21yp_18ethereum_da_client36___mock_MockEthereumDaClient_DaClient20___max_bytes_per_blobNtB5_6Common16satisfy_sequence
FN:37,_RNvMs4_NtNtCsaXXtEBL21yp_18ethereum_da_client36___mock_MockEthereumDaClient_DaClient20___max_bytes_per_blobNtB5_6Common4with
FN:37,_RNvMs4_NtNtCsaXXtEBL21yp_18ethereum_da_client36___mock_MockEthereumDaClient_DaClient20___max_bytes_per_blobNtB5_6Common15verify_sequence
FN:37,_RNvXs5_NtNtCsaXXtEBL21yp_18ethereum_da_client36___mock_MockEthereumDaClient_DaClient20___max_bytes_per_blobNtB5_6CommonNtNtNtCsl82brYPINY5_4core3ops4drop4Drop4drop
FN:37,_RNvMs6_NtNtCsaXXtEBL21yp_18ethereum_da_client36___mock_MockEthereumDaClient_DaClient20___max_bytes_per_blobNtB5_11Expectation4call
FN:37,_RNvMs6_NtNtCsaXXtEBL21yp_18ethereum_da_client36___mock_MockEthereumDaClient_DaClient20___max_bytes_per_blobNtB5_11Expectation11in_sequence
FN:37,_RNvMs6_NtNtCsaXXtEBL21yp_18ethereum_da_client36___mock_MockEthereumDaClient_DaClient20___max_bytes_per_blobNtB5_11Expectation7is_done
FN:37,_RNvMs6_NtNtCsaXXtEBL21yp_18ethereum_da_client36___mock_MockEthereumDaClient_DaClient20___max_bytes_per_blobNtB5_11Expectation7matches
FN:37,_RNvMs6_NtNtCsaXXtEBL21yp_18ethereum_da_client36___mock_MockEthereumDaClient_DaClient20___max_bytes_per_blobNtB5_11Expectation3new
FN:37,_RNvMs6_NtNtCsaXXtEBL21yp_18ethereum_da_client36___mock_MockEthereumDaClient_DaClient20___max_bytes_per_blobNtB5_11Expectation4once
FN:37,_RINvMs6_NtNtCsaXXtEBL21yp_18ethereum_da_client36___mock_MockEthereumDaClient_DaClient20___max_bytes_per_blobNtB6_11Expectation5timesjEBa_
FN:37,_RINvMs4_NtNtCsaXXtEBL21yp_18ethereum_da_client36___mock_MockEthereumDaClient_DaClient20___max_bytes_per_blobNtB6_6Common5timesjEBa_
FN:37,_RNvMs6_NtNtCsaXXtEBL21yp_18ethereum_da_client36___mock_MockEthereumDaClient_DaClient20___max_bytes_per_blobNtB5_11Expectation4with
FN:37,_RNvXs7_NtNtCsaXXtEBL21yp_18ethereum_da_client36___mock_MockEthereumDaClient_DaClient20___max_bytes_per_blobNtB5_11ExpectationNtNtCsl82brYPINY5_4core7default7Default7default
FN:37,_RNvXs3_NtNtCsaXXtEBL21yp_18ethereum_da_client36___mock_MockEthereumDaClient_DaClient20___max_bytes_per_blobNtB5_6CommonNtNtCsl82brYPINY5_4core7default7Default7default
FN:37,_RNvXs1_NtNtCsaXXtEBL21yp_18ethereum_da_client36___mock_MockEthereumDaClient_DaClient20___max_bytes_per_blobNtB5_7MatcherNtNtCsl82brYPINY5_4core7default7Default7default
FN:37,_RNvXs_NtNtCsaXXtEBL21yp_18ethereum_da_client36___mock_MockEthereumDaClient_DaClient20___max_bytes_per_blobNtB4_5RfuncNtNtCsl82brYPINY5_4core7default7Default7default
FN:37,_RNvMs8_NtNtCsaXXtEBL21yp_18ethereum_da_client36___mock_MockEthereumDaClient_DaClient20___max_bytes_per_blobNtB5_12Expectations10checkpoint
FN:37,_RNvMs8_NtNtCsaXXtEBL21yp_18ethereum_da_client36___mock_MockEthereumDaClient_DaClient20___max_bytes_per_blobNtB5_12Expectations6expect
FN:37,_RNvMsa_NtNtCsaXXtEBL21yp_18ethereum_da_client36___mock_MockEthereumDaClient_DaClient20___max_bytes_per_blobNtB5_12Expectations4call
FN:37,_RNCNvMsa_NtNtCsaXXtEBL21yp_18ethereum_da_client36___mock_MockEthereumDaClient_DaClient20___max_bytes_per_blobNtB7_12Expectations4calls_0Bb_
FN:37,_RNCNvMsa_NtNtCsaXXtEBL21yp_18ethereum_da_client36___mock_MockEthereumDaClient_DaClient20___max_bytes_per_blobNtB7_12Expectations4call0Bb_
FN:37,_RNvMNtNtCsaXXtEBL21yp_18ethereum_da_client36___mock_MockEthereumDaClient_DaClient18___verify_inclusionNtB2_5Rfunc8call_mut
FN:37,_RNvMs0_NtNtCsaXXtEBL21yp_18ethereum_da_client36___mock_MockEthereumDaClient_DaClient18___verify_inclusionNtB5_7Matcher7matches
FN:37,_RNCNvMs0_NtNtCsaXXtEBL21yp_18ethereum_da_client36___mock_MockEthereumDaClient_DaClient18___verify_inclusionNtB7_7Matcher7matches0Bb_
FN:37,_RNvXs2_NtNtCsaXXtEBL21yp_18ethereum_da_client36___mock_MockEthereumDaClient_DaClient18___verify_inclusionNtB5_7MatcherNtNtCsl82brYPINY5_4core3fmt7Display3fmt
FN:37,_RNvMs4_NtNtCsaXXtEBL21yp_18ethereum_da_client36___mock_MockEthereumDaClient_DaClient18___verify_inclusionNtB5_6Common4call
FN:37,_RNvMs4_NtNtCsaXXtEBL21yp_18ethereum_da_client36___mock_MockEthereumDaClient_DaClient18___verify_inclusionNtB5_6Common11in_sequence
FN:37,_RNvMs4_NtNtCsaXXtEBL21yp_18ethereum_da_client36___mock_MockEthereumDaClient_DaClient18___verify_inclusionNtB5_6Common7is_done
FN:37,_RNvMs4_NtNtCsaXXtEBL21yp_18ethereum_da_client36___mock_MockEthereumDaClient_DaClient18___verify_inclusionNtB5_6Common7matches
FN:37,_RNvMs4_NtNtCsaXXtEBL21yp_18ethereum_da_client36___mock_MockEthereumDaClient_DaClient18___verify_inclusionNtB5_6Common16satisfy_sequence
FN:37,_RNvMs4_NtNtCsaXXtEBL21yp_18ethereum_da_client36___mock_MockEthereumDaClient_DaClient18___verify_inclusionNtB5_6Common15verify_sequence
FN:37,_RNvXs5_NtNtCsaXXtEBL21yp_18ethereum_da_client36___mock_MockEthereumDaClient_DaClient18___verify_inclusionNtB5_6CommonNtNtNtCsl82brYPINY5_4core3ops4drop4Drop4drop
FN:37,_RNvMs6_NtNtCsaXXtEBL21yp_18ethereum_da_client36___mock_MockEthereumDaClient_DaClient18___verify_inclusionNtB5_11Expectation4call
FN:37,_RNvMs6_NtNtCsaXXtEBL21yp_18ethereum_da_client36___mock_MockEthereumDaClient_DaClient18___verify_inclusionNtB5_11Expectation11in_sequence
FN:37,_RNvMs6_NtNtCsaXXtEBL21yp_18ethereum_da_client36___mock_MockEthereumDaClient_DaClient18___verify_inclusionNtB5_11Expectation7is_done
FN:37,_RNvMs6_NtNtCsaXXtEBL21yp_18ethereum_da_client36___mock_MockEthereumDaClient_DaClient18___verify_inclusionNtB5_11Expectation7matches
FN:37,_RNvMs6_NtNtCsaXXtEBL21yp_18ethereum_da_client36___mock_MockEthereumDaClient_DaClient18___verify_inclusionNtB5_11Expectation3new
FN:37,_RNvMs6_NtNtCsaXXtEBL21yp_18ethereum_da_client36___mock_MockEthereumDaClient_DaClient18___verify_inclusionNtB5_11Expectation4once
FN:37,_RINvMs6_NtNtCsaXXtEBL21yp_18ethereum_da_client36___mock_MockEthereumDaClient_DaClient18___verify_inclusionNtB6_11Expectation5timesjEBa_
FN:37,_RINvMs4_NtNtCsaXXtEBL21yp_18ethereum_da_client36___mock_MockEthereumDaClient_DaClient18___verify_inclusionNtB6_6Common5timesjEBa_
FN:37,_RNvXs7_NtNtCsaXXtEBL21yp_18ethereum_da_client36___mock_MockEthereumDaClient_DaClient18___verify_inclusionNtB5_11ExpectationNtNtCsl82brYPINY5_4core7default7Default7default
FN:37,_RNvXs3_NtNtCsaXXtEBL21yp_18ethereum_da_client36___mock_MockEthereumDaClient_DaClient18___verify_inclusionNtB5_6CommonNtNtCsl82brYPINY5_4core7default7Default7default
FN:37,_RNvXs1_NtNtCsaXXtEBL21yp_18ethereum_da_client36___mock_MockEthereumDaClient_DaClient18___verify_inclusionNtB5_7MatcherNtNtCsl82brYPINY5_4core7default7Default7default
FN:37,_RNvXs_NtNtCsaXXtEBL21yp_18ethereum_da_client36___mock_MockEthereumDaClient_DaClient18___verify_inclusionNtB4_5RfuncNtNtCsl82brYPINY5_4core7default7Default7default
FN:37,_RNvMs8_NtNtCsaXXtEBL21yp_18ethereum_da_client36___mock_MockEthereumDaClient_DaClient18___verify_inclusionNtB5_12Expectations10checkpoint
FN:37,_RNvMs8_NtNtCsaXXtEBL21yp_18ethereum_da_client36___mock_MockEthereumDaClient_DaClient18___verify_inclusionNtB5_12Expectations6expect
FN:37,_RNvMsa_NtNtCsaXXtEBL21yp_18ethereum_da_client36___mock_MockEthereumDaClient_DaClient18___verify_inclusionNtB5_12Expectations4call
FN:37,_RNCNvMsa_NtNtCsaXXtEBL21yp_18ethereum_da_client36___mock_MockEthereumDaClient_DaClient18___verify_inclusionNtB7_12Expectations4calls_0Bb_
FN:37,_RNCNvMsa_NtNtCsaXXtEBL21yp_18ethereum_da_client36___mock_MockEthereumDaClient_DaClient18___verify_inclusionNtB7_12Expectations4call0Bb_
FN:37,_RNvXs0_CsaXXtEBL21yp_18ethereum_da_clientNtB5_20MockEthereumDaClientNtNtCsl82brYPINY5_4core7default7Default7default
FN:37,_RNvMs4_NtNtCsaXXtEBL21yp_18ethereum_da_client36___mock_MockEthereumDaClient_DaClient20___publish_state_diffNtB5_6Common5never
FN:37,_RINvMs4_NtNtCsaXXtEBL21yp_18ethereum_da_client36___mock_MockEthereumDaClient_DaClient20___publish_state_diffNtB6_6Common4withppEBa_
FN:37,_RINvMs4_NtNtCsaXXtEBL21yp_18ethereum_da_client36___mock_MockEthereumDaClient_DaClient20___publish_state_diffNtB6_6Common5withfpEBa_
FN:37,_RINvMs4_NtNtCsaXXtEBL21yp_18ethereum_da_client36___mock_MockEthereumDaClient_DaClient20___publish_state_diffNtB6_6Common8withf_stpEBa_
FN:37,_RINvMs6_NtNtCsaXXtEBL21yp_18ethereum_da_client36___mock_MockEthereumDaClient_DaClient20___publish_state_diffNtB6_11Expectation12return_constpEBa_
FN:37,_RNCINvMs6_NtNtCsaXXtEBL21yp_18ethereum_da_client36___mock_MockEthereumDaClient_DaClient20___publish_state_diffNtB8_11Expectation12return_constpE0Bc_
FN:37,_RINvMs6_NtNtCsaXXtEBL21yp_18ethereum_da_client36___mock_MockEthereumDaClient_DaClient20___publish_state_diffNtB6_11Expectation15return_const_stpEBa_
FN:37,_RNCINvMs6_NtNtCsaXXtEBL21yp_18ethereum_da_client36___mock_MockEthereumDaClient_DaClient20___publish_state_diffNtB8_11Expectation15return_const_stpE0Bc_
FN:37,_RINvMs6_NtNtCsaXXtEBL21yp_18ethereum_da_client36___mock_MockEthereumDaClient_DaClient20___publish_state_diffNtB6_11Expectation11return_oncepEBa_
FN:37,_RINvMs6_NtNtCsaXXtEBL21yp_18ethereum_da_client36___mock_MockEthereumDaClient_DaClient20___publish_state_diffNtB6_11Expectation14return_once_stpEBa_
FN:37,_RINvMs6_NtNtCsaXXtEBL21yp_18ethereum_da_client36___mock_MockEthereumDaClient_DaClient20___publish_state_diffNtB6_11Expectation9returningpEBa_
FN:37,_RINvMs6_NtNtCsaXXtEBL21yp_18ethereum_da_client36___mock_MockEthereumDaClient_DaClient20___publish_state_diffNtB6_11Expectation12returning_stpEBa_
FN:37,_RNvMs6_NtNtCsaXXtEBL21yp_18ethereum_da_client36___mock_MockEthereumDaClient_DaClient20___publish_state_diffNtB5_11Expectation5never
FN:37,_RINvMs6_NtNtCsaXXtEBL21yp_18ethereum_da_client36___mock_MockEthereumDaClient_DaClient20___publish_state_diffNtB6_11Expectation4withppEBa_
FN:37,_RINvMs6_NtNtCsaXXtEBL21yp_18ethereum_da_client36___mock_MockEthereumDaClient_DaClient20___publish_state_diffNtB6_11Expectation5withfpEBa_
FN:37,_RINvMs6_NtNtCsaXXtEBL21yp_18ethereum_da_client36___mock_MockEthereumDaClient_DaClient20___publish_state_diffNtB6_11Expectation8withf_stpEBa_
FN:37,_RNvMs8_NtNtCsaXXtEBL21yp_18ethereum_da_client36___mock_MockEthereumDaClient_DaClient20___publish_state_diffNtB5_12Expectations3new
FN:37,_RNvXs9_NtNtCsaXXtEBL21yp_18ethereum_da_client36___mock_MockEthereumDaClient_DaClient20___publish_state_diffNtB5_12ExpectationsNtNtCsl82brYPINY5_4core7default7Default7default
FN:37,_RNvMs4_NtNtCsaXXtEBL21yp_18ethereum_da_client36___mock_MockEthereumDaClient_DaClient18___verify_inclusionNtB5_6Common5never
FN:37,_RINvMs4_NtNtCsaXXtEBL21yp_18ethereum_da_client36___mock_MockEthereumDaClient_DaClient18___verify_inclusionNtB6_6Common4withpEBa_
FN:37,_RINvMs4_NtNtCsaXXtEBL21yp_18ethereum_da_client36___mock_MockEthereumDaClient_DaClient18___verify_inclusionNtB6_6Common5withfpEBa_
FN:37,_RINvMs4_NtNtCsaXXtEBL21yp_18ethereum_da_client36___mock_MockEthereumDaClient_DaClient18___verify_inclusionNtB6_6Common8withf_stpEBa_
FN:37,_RINvMs6_NtNtCsaXXtEBL21yp_18ethereum_da_client36___mock_MockEthereumDaClient_DaClient18___verify_inclusionNtB6_11Expectation12return_constpEBa_
FN:37,_RNCINvMs6_NtNtCsaXXtEBL21yp_18ethereum_da_client36___mock_MockEthereumDaClient_DaClient18___verify_inclusionNtB8_11Expectation12return_constpE0Bc_
FN:37,_RINvMs6_NtNtCsaXXtEBL21yp_18ethereum_da_client36___mock_MockEthereumDaClient_DaClient18___verify_inclusionNtB6_11Expectation15return_const_stpEBa_
FN:37,_RNCINvMs6_NtNtCsaXXtEBL21yp_18ethereum_da_client36___mock_MockEthereumDaClient_DaClient18___verify_inclusionNtB8_11Expectation15return_const_stpE0Bc_
FN:37,_RINvMs6_NtNtCsaXXtEBL21yp_18ethereum_da_client36___mock_MockEthereumDaClient_DaClient18___verify_inclusionNtB6_11Expectation11return_oncepEBa_
FN:37,_RINvMs6_NtNtCsaXXtEBL21yp_18ethereum_da_client36___mock_MockEthereumDaClient_DaClient18___verify_inclusionNtB6_11Expectation14return_once_stpEBa_
FN:37,_RINvMs6_NtNtCsaXXtEBL21yp_18ethereum_da_client36___mock_MockEthereumDaClient_DaClient18___verify_inclusionNtB6_11Expectation9returningpEBa_
FN:37,_RINvMs6_NtNtCsaXXtEBL21yp_18ethereum_da_client36___mock_MockEthereumDaClient_DaClient18___verify_inclusionNtB6_11Expectation12returning_stpEBa_
FN:37,_RNvMs6_NtNtCsaXXtEBL21yp_18ethereum_da_client36___mock_MockEthereumDaClient_DaClient18___verify_inclusionNtB5_11Expectation5never
FN:37,_RINvMs6_NtNtCsaXXtEBL21yp_18ethereum_da_client36___mock_MockEthereumDaClient_DaClient18___verify_inclusionNtB6_11Expectation4withpEBa_
FN:37,_RINvMs6_NtNtCsaXXtEBL21yp_18ethereum_da_client36___mock_MockEthereumDaClient_DaClient18___verify_inclusionNtB6_11Expectation5withfpEBa_
FN:37,_RINvMs6_NtNtCsaXXtEBL21yp_18ethereum_da_client36___mock_MockEthereumDaClient_DaClient18___verify_inclusionNtB6_11Expectation8withf_stpEBa_
FN:37,_RNvMs8_NtNtCsaXXtEBL21yp_18ethereum_da_client36___mock_MockEthereumDaClient_DaClient18___verify_inclusionNtB5_12Expectations3new
FN:37,_RNvXs9_NtNtCsaXXtEBL21yp_18ethereum_da_client36___mock_MockEthereumDaClient_DaClient18___verify_inclusionNtB5_12ExpectationsNtNtCsl82brYPINY5_4core7default7Default7default
FN:37,_RNvMs4_NtNtCsaXXtEBL21yp_18ethereum_da_client36___mock_MockEthereumDaClient_DaClient18___max_blob_per_txnNtB5_6Common5never
FN:37,_RINvMs4_NtNtCsaXXtEBL21yp_18ethereum_da_client36___mock_MockEthereumDaClient_DaClient18___max_blob_per_txnNtB6_6Common5withfpEBa_
FN:37,_RINvMs4_NtNtCsaXXtEBL21yp_18ethereum_da_client36___mock_MockEthereumDaClient_DaClient18___max_blob_per_txnNtB6_6Common8withf_stpEBa_
FN:37,_RINvMs6_NtNtCsaXXtEBL21yp_18ethereum_da_client36___mock_MockEthereumDaClient_DaClient18___max_blob_per_txnNtB6_11Expectation12return_constpEBa_
FN:37,_RNCINvMs6_NtNtCsaXXtEBL21yp_18ethereum_da_client36___mock_MockEthereumDaClient_DaClient18___max_blob_per_txnNtB8_11Expectation12return_constpE0Bc_
FN:37,_RINvMs6_NtNtCsaXXtEBL21yp_18ethereum_da_client36___mock_MockEthereumDaClient_DaClient18___max_blob_per_txnNtB6_11Expectation15return_const_stpEBa_
FN:37,_RNCINvMs6_NtNtCsaXXtEBL21yp_18ethereum_da_client36___mock_MockEthereumDaClient_DaClient18___max_blob_per_txnNtB8_11Expectation15return_const_stpE0Bc_
FN:37,_RINvMs6_NtNtCsaXXtEBL21yp_18ethereum_da_client36___mock_MockEthereumDaClient_DaClient18___max_blob_per_txnNtB6_11Expectation11return_oncepEBa_
FN:37,_RINvMs6_NtNtCsaXXtEBL21yp_18ethereum_da_client36___mock_MockEthereumDaClient_DaClient18___max_blob_per_txnNtB6_11Expectation14return_once_stpEBa_
FN:37,_RINvMs6_NtNtCsaXXtEBL21yp_18ethereum_da_client36___mock_MockEthereumDaClient_DaClient18___max_blob_per_txnNtB6_11Expectation9returningpEBa_
FN:37,_RINvMs6_NtNtCsaXXtEBL21yp_18ethereum_da_client36___mock_MockEthereumDaClient_DaClient18___max_blob_per_txnNtB6_11Expectation12returning_stpEBa_
FN:37,_RNvMs6_NtNtCsaXXtEBL21yp_18ethereum_da_client36___mock_MockEthereumDaClient_DaClient18___max_blob_per_txnNtB5_11Expectation5never
FN:37,_RINvMs6_NtNtCsaXXtEBL21yp_18ethereum_da_client36___mock_MockEthereumDaClient_DaClient18___max_blob_per_txnNtB6_11Expectation5withfpEBa_
FN:37,_RINvMs6_NtNtCsaXXtEBL21yp_18ethereum_da_client36___mock_MockEthereumDaClient_DaClient18___max_blob_per_txnNtB6_11Expectation8withf_stpEBa_
FN:37,_RNvMs8_NtNtCsaXXtEBL21yp_18ethereum_da_client36___mock_MockEthereumDaClient_DaClient18___max_blob_per_txnNtB5_12Expectations3new
FN:37,_RNvXs9_NtNtCsaXXtEBL21yp_18ethereum_da_client36___mock_MockEthereumDaClient_DaClient18___max_blob_per_txnNtB5_12ExpectationsNtNtCsl82brYPINY5_4core7default7Default7default
FN:37,_RNvMs4_NtNtCsaXXtEBL21yp_18ethereum_da_client36___mock_MockEthereumDaClient_DaClient20___max_bytes_per_blobNtB5_6Common5never
FN:37,_RINvMs4_NtNtCsaXXtEBL21yp_18ethereum_da_client36___mock_MockEthereumDaClient_DaClient20___max_bytes_per_blobNtB6_6Common5withfpEBa_
FN:37,_RINvMs4_NtNtCsaXXtEBL21yp_18ethereum_da_client36___mock_MockEthereumDaClient_DaClient20___max_bytes_per_blobNtB6_6Common8withf_stpEBa_
FN:37,_RINvMs6_NtNtCsaXXtEBL21yp_18ethereum_da_client36___mock_MockEthereumDaClient_DaClient20___max_bytes_per_blobNtB6_11Expectation12return_constpEBa_
FN:37,_RNCINvMs6_NtNtCsaXXtEBL21yp_18ethereum_da_client36___mock_MockEthereumDaClient_DaClient20___max_bytes_per_blobNtB8_11Expectation12return_constpE0Bc_
FN:37,_RINvMs6_NtNtCsaXXtEBL21yp_18ethereum_da_client36___mock_MockEthereumDaClient_DaClient20___max_bytes_per_blobNtB6_11Expectation15return_const_stpEBa_
FN:37,_RNCINvMs6_NtNtCsaXXtEBL21yp_18ethereum_da_client36___mock_MockEthereumDaClient_DaClient20___max_bytes_per_blobNtB8_11Expectation15return_const_stpE0Bc_
FN:37,_RINvMs6_NtNtCsaXXtEBL21yp_18ethereum_da_client36___mock_MockEthereumDaClient_DaClient20___max_bytes_per_blobNtB6_11Expectation11return_oncepEBa_
FN:37,_RINvMs6_NtNtCsaXXtEBL21yp_18ethereum_da_client36___mock_MockEthereumDaClient_DaClient20___max_bytes_per_blobNtB6_11Expectation14return_once_stpEBa_
FN:37,_RINvMs6_NtNtCsaXXtEBL21yp_18ethereum_da_client36___mock_MockEthereumDaClient_DaClient20___max_bytes_per_blobNtB6_11Expectation9returningpEBa_
FN:37,_RINvMs6_NtNtCsaXXtEBL21yp_18ethereum_da_client36___mock_MockEthereumDaClient_DaClient20___max_bytes_per_blobNtB6_11Expectation12returning_stpEBa_
FN:37,_RNvMs6_NtNtCsaXXtEBL21yp_18ethereum_da_client36___mock_MockEthereumDaClient_DaClient20___max_bytes_per_blobNtB5_11Expectation5never
FN:37,_RINvMs6_NtNtCsaXXtEBL21yp_18ethereum_da_client36___mock_MockEthereumDaClient_DaClient20___max_bytes_per_blobNtB6_11Expectation5withfpEBa_
FN:37,_RINvMs6_NtNtCsaXXtEBL21yp_18ethereum_da_client36___mock_MockEthereumDaClient_DaClient20___max_bytes_per_blobNtB6_11Expectation8withf_stpEBa_
FN:37,_RNvMs8_NtNtCsaXXtEBL21yp_18ethereum_da_client36___mock_MockEthereumDaClient_DaClient20___max_bytes_per_blobNtB5_12Expectations3new
FN:37,_RNvXs9_NtNtCsaXXtEBL21yp_18ethereum_da_client36___mock_MockEthereumDaClient_DaClient20___max_bytes_per_blobNtB5_12ExpectationsNtNtCsl82brYPINY5_4core7default7Default7default
FN:37,_RNvXs1_CsaXXtEBL21yp_18ethereum_da_clientNtB5_29MockEthereumDaClient_DaClientNtNtCsl82brYPINY5_4core7default7Default7default
FN:37,_RNvMs3_CsaXXtEBL21yp_18ethereum_da_clientNtB5_20MockEthereumDaClient3new
FNDA:1,_RNvCscm20NoNPXfL_18ethereum_da_client15prepare_sidecar
FNDA:1,_RNCNvCscm20NoNPXfL_18ethereum_da_client15prepare_sidecar0B3_
FNDA:3,_RNvNtCscm20NoNPXfL_18ethereum_da_client5tests20hex_string_to_u8_vec
FNDA:1,_RNvNtCscm20NoNPXfL_18ethereum_da_client5testss_8test_kzg
FNDA:1,_RNCNvNtCscm20NoNPXfL_18ethereum_da_client5testss_8test_kzg0B5_
FNDA:262336,_RNCNvNtCscm20NoNPXfL_18ethereum_da_client5tests20hex_string_to_u8_vec0B5_
FNDA:0,_RNvXs5_Cscm20NoNPXfL_18ethereum_da_clientNtB5_16EthereumDaClientNtCsd2a39Kes4Ul_19da_client_interface8DaClient18publish_state_diff
FNDA:0,_RNCNvXs5_Cscm20NoNPXfL_18ethereum_da_clientNtB7_16EthereumDaClientNtCsd2a39Kes4Ul_19da_client_interface8DaClient18publish_state_diff0B7_
FNDA:0,_RNvXs5_Cscm20NoNPXfL_18ethereum_da_clientNtB5_16EthereumDaClientNtCsd2a39Kes4Ul_19da_client_interface8DaClient16verify_inclusion
FNDA:0,_RNCNvXs5_Cscm20NoNPXfL_18ethereum_da_clientNtB7_16EthereumDaClientNtCsd2a39Kes4Ul_19da_client_interface8DaClient16verify_inclusion0B7_
FNDA:0,_RNvXs5_Cscm20NoNPXfL_18ethereum_da_clientNtB5_16EthereumDaClientNtCsd2a39Kes4Ul_19da_client_interface8DaClient16max_blob_per_txn
FNDA:0,_RNCNvXs5_Cscm20NoNPXfL_18ethereum_da_clientNtB7_16EthereumDaClientNtCsd2a39Kes4Ul_19da_client_interface8DaClient16max_blob_per_txn0B7_
FNDA:0,_RNvXs5_Cscm20NoNPXfL_18ethereum_da_clientNtB5_16EthereumDaClientNtCsd2a39Kes4Ul_19da_client_interface8DaClient18max_bytes_per_blob
FNDA:0,_RNCNvXs5_Cscm20NoNPXfL_18ethereum_da_clientNtB7_16EthereumDaClientNtCsd2a39Kes4Ul_19da_client_interface8DaClient18max_bytes_per_blob0B7_
FNDA:0,_RNvXs_Cscm20NoNPXfL_18ethereum_da_clientNtB4_20MockEthereumDaClientNtNtCsl82brYPINY5_4core3fmt5Debug3fmt
FNDA:0,_RNvXs0_Cscm20NoNPXfL_18ethereum_da_clientNtB5_20MockEthereumDaClientNtNtCsl82brYPINY5_4core7default7Default7default
FNDA:0,_RNvMNtNtCscm20NoNPXfL_18ethereum_da_client36___mock_MockEthereumDaClient_DaClient20___publish_state_diffNtB2_5Rfunc8call_mut
FNDA:0,_RNvXs_NtNtCscm20NoNPXfL_18ethereum_da_client36___mock_MockEthereumDaClient_DaClient20___publish_state_diffNtB4_5RfuncNtNtCsl82brYPINY5_4core7default7Default7default
FNDA:0,_RNvMs0_NtNtCscm20NoNPXfL_18ethereum_da_client36___mock_MockEthereumDaClient_DaClient20___publish_state_diffNtB5_7Matcher7matches
FNDA:0,_RNCNvMs0_NtNtCscm20NoNPXfL_18ethereum_da_client36___mock_MockEthereumDaClient_DaClient20___publish_state_diffNtB7_7Matcher7matches0Bb_
FNDA:0,_RNvXs1_NtNtCscm20NoNPXfL_18ethereum_da_client36___mock_MockEthereumDaClient_DaClient20___publish_state_diffNtB5_7MatcherNtNtCsl82brYPINY5_4core7default7Default7default
FNDA:0,_RNvXs2_NtNtCscm20NoNPXfL_18ethereum_da_client36___mock_MockEthereumDaClient_DaClient20___publish_state_diffNtB5_7MatcherNtNtCsl82brYPINY5_4core3fmt7Display3fmt
FNDA:0,_RNvXs3_NtNtCscm20NoNPXfL_18ethereum_da_client36___mock_MockEthereumDaClient_DaClient20___publish_state_diffNtB5_6CommonNtNtCsl82brYPINY5_4core7default7Default7default
FNDA:0,_RNvMs4_NtNtCscm20NoNPXfL_18ethereum_da_client36___mock_MockEthereumDaClient_DaClient20___publish_state_diffNtB5_6Common4call
FNDA:0,_RNvMs4_NtNtCscm20NoNPXfL_18ethereum_da_client36___mock_MockEthereumDaClient_DaClient20___publish_state_diffNtB5_6Common11in_sequence
FNDA:0,_RNvMs4_NtNtCscm20NoNPXfL_18ethereum_da_client36___mock_MockEthereumDaClient_DaClient20___publish_state_diffNtB5_6Common7is_done
FNDA:0,_RNvMs4_NtNtCscm20NoNPXfL_18ethereum_da_client36___mock_MockEthereumDaClient_DaClient20___publish_state_diffNtB5_6Common7matches
FNDA:0,_RNvMs4_NtNtCscm20NoNPXfL_18ethereum_da_client36___mock_MockEthereumDaClient_DaClient20___publish_state_diffNtB5_6Common5never
FNDA:0,_RNvMs4_NtNtCscm20NoNPXfL_18ethereum_da_client36___mock_MockEthereumDaClient_DaClient20___publish_state_diffNtB5_6Common16satisfy_sequence
FNDA:0,_RINvMs4_NtNtCscm20NoNPXfL_18ethereum_da_client36___mock_MockEthereumDaClient_DaClient20___publish_state_diffNtB6_6Common5timespEBa_
FNDA:0,_RINvMs4_NtNtCscm20NoNPXfL_18ethereum_da_client36___mock_MockEthereumDaClient_DaClient20___publish_state_diffNtB6_6Common4withppEBa_
FNDA:0,_RINvMs4_NtNtCscm20NoNPXfL_18ethereum_da_client36___mock_MockEthereumDaClient_DaClient20___publish_state_diffNtB6_6Common5withfpEBa_
FNDA:0,_RINvMs4_NtNtCscm20NoNPXfL_18ethereum_da_client36___mock_MockEthereumDaClient_DaClient20___publish_state_diffNtB6_6Common8withf_stpEBa_
FNDA:0,_RNvMs4_NtNtCscm20NoNPXfL_18ethereum_da_client36___mock_MockEthereumDaClient_DaClient20___publish_state_diffNtB5_6Common15verify_sequence
FNDA:0,_RNvXs5_NtNtCscm20NoNPXfL_18ethereum_da_client36___mock_MockEthereumDaClient_DaClient20___publish_state_diffNtB5_6CommonNtNtNtCsl82brYPINY5_4core3ops4drop4Drop4drop
FNDA:0,_RNvMs6_NtNtCscm20NoNPXfL_18ethereum_da_client36___mock_MockEthereumDaClient_DaClient20___publish_state_diffNtB5_11Expectation4call
FNDA:0,_RINvMs6_NtNtCscm20NoNPXfL_18ethereum_da_client36___mock_MockEthereumDaClient_DaClient20___publish_state_diffNtB6_11Expectation12return_constpEBa_
FNDA:0,_RNCINvMs6_NtNtCscm20NoNPXfL_18ethereum_da_client36___mock_MockEthereumDaClient_DaClient20___publish_state_diffNtB8_11Expectation12return_constpE0Bc_
FNDA:0,_RINvMs6_NtNtCscm20NoNPXfL_18ethereum_da_client36___mock_MockEthereumDaClient_DaClient20___publish_state_diffNtB6_11Expectation15return_const_stpEBa_
FNDA:0,_RNCINvMs6_NtNtCscm20NoNPXfL_18ethereum_da_client36___mock_MockEthereumDaClient_DaClient20___publish_state_diffNtB8_11Expectation15return_const_stpE0Bc_
FNDA:0,_RINvMs6_NtNtCscm20NoNPXfL_18ethereum_da_client36___mock_MockEthereumDaClient_DaClient20___publish_state_diffNtB6_11Expectation11return_oncepEBa_
FNDA:0,_RINvMs6_NtNtCscm20NoNPXfL_18ethereum_da_client36___mock_MockEthereumDaClient_DaClient20___publish_state_diffNtB6_11Expectation14return_once_stpEBa_
FNDA:0,_RINvMs6_NtNtCscm20NoNPXfL_18ethereum_da_client36___mock_MockEthereumDaClient_DaClient20___publish_state_diffNtB6_11Expectation9returningpEBa_
FNDA:0,_RINvMs6_NtNtCscm20NoNPXfL_18ethereum_da_client36___mock_MockEthereumDaClient_DaClient20___publish_state_diffNtB6_11Expectation12returning_stpEBa_
FNDA:0,_RNvMs6_NtNtCscm20NoNPXfL_18ethereum_da_client36___mock_MockEthereumDaClient_DaClient20___publish_state_diffNtB5_11Expectation11in_sequence
FNDA:0,_RNvMs6_NtNtCscm20NoNPXfL_18ethereum_da_client36___mock_MockEthereumDaClient_DaClient20___publish_state_diffNtB5_11Expectation7is_done
FNDA:0,_RNvMs6_NtNtCscm20NoNPXfL_18ethereum_da_client36___mock_MockEthereumDaClient_DaClient20___publish_state_diffNtB5_11Expectation7matches
FNDA:0,_RNvMs6_NtNtCscm20NoNPXfL_18ethereum_da_client36___mock_MockEthereumDaClient_DaClient20___publish_state_diffNtB5_11Expectation5never
FNDA:0,_RNvMs6_NtNtCscm20NoNPXfL_18ethereum_da_client36___mock_MockEthereumDaClient_DaClient20___publish_state_diffNtB5_11Expectation3new
FNDA:0,_RNvMs6_NtNtCscm20NoNPXfL_18ethereum_da_client36___mock_MockEthereumDaClient_DaClient20___publish_state_diffNtB5_11Expectation4once
FNDA:0,_RINvMs6_NtNtCscm20NoNPXfL_18ethereum_da_client36___mock_MockEthereumDaClient_DaClient20___publish_state_diffNtB6_11Expectation5timespEBa_
FNDA:0,_RINvMs6_NtNtCscm20NoNPXfL_18ethereum_da_client36___mock_MockEthereumDaClient_DaClient20___publish_state_diffNtB6_11Expectation4withppEBa_
FNDA:0,_RINvMs6_NtNtCscm20NoNPXfL_18ethereum_da_client36___mock_MockEthereumDaClient_DaClient20___publish_state_diffNtB6_11Expectation5withfpEBa_
FNDA:0,_RINvMs6_NtNtCscm20NoNPXfL_18ethereum_da_client36___mock_MockEthereumDaClient_DaClient20___publish_state_diffNtB6_11Expectation8withf_stpEBa_
FNDA:0,_RNvXs7_NtNtCscm20NoNPXfL_18ethereum_da_client36___mock_MockEthereumDaClient_DaClient20___publish_state_diffNtB5_11ExpectationNtNtCsl82brYPINY5_4core7default7Default7default
FNDA:0,_RNvMs8_NtNtCscm20NoNPXfL_18ethereum_da_client36___mock_MockEthereumDaClient_DaClient20___publish_state_diffNtB5_12Expectations10checkpoint
FNDA:0,_RNvMs8_NtNtCscm20NoNPXfL_18ethereum_da_client36___mock_MockEthereumDaClient_DaClient20___publish_state_diffNtB5_12Expectations6expect
FNDA:0,_RNvMs8_NtNtCscm20NoNPXfL_18ethereum_da_client36___mock_MockEthereumDaClient_DaClient20___publish_state_diffNtB5_12Expectations3new
FNDA:0,_RNvXs9_NtNtCscm20NoNPXfL_18ethereum_da_client36___mock_MockEthereumDaClient_DaClient20___publish_state_diffNtB5_12ExpectationsNtNtCsl82brYPINY5_4core7default7Default7default
FNDA:0,_RNvMsa_NtNtCscm20NoNPXfL_18ethereum_da_client36___mock_MockEthereumDaClient_DaClient20___publish_state_diffNtB5_12Expectations4call
FNDA:0,_RNCNvMsa_NtNtCscm20NoNPXfL_18ethereum_da_client36___mock_MockEthereumDaClient_DaClient20___publish_state_diffNtB7_12Expectations4call0Bb_
FNDA:0,_RNCNvMsa_NtNtCscm20NoNPXfL_18ethereum_da_client36___mock_MockEthereumDaClient_DaClient20___publish_state_diffNtB7_12Expectations4calls_0Bb_
FNDA:0,_RNvMNtNtCscm20NoNPXfL_18ethereum_da_client36___mock_MockEthereumDaClient_DaClient18___verify_inclusionNtB2_5Rfunc8call_mut
FNDA:0,_RNvXs_NtNtCscm20NoNPXfL_18ethereum_da_client36___mock_MockEthereumDaClient_DaClient18___verify_inclusionNtB4_5RfuncNtNtCsl82brYPINY5_4core7default7Default7default
FNDA:0,_RNvMs0_NtNtCscm20NoNPXfL_18ethereum_da_client36___mock_MockEthereumDaClient_DaClient18___verify_inclusionNtB5_7Matcher7matches
FNDA:0,_RNCNvMs0_NtNtCscm20NoNPXfL_18ethereum_da_client36___mock_MockEthereumDaClient_DaClient18___verify_inclusionNtB7_7Matcher7matches0Bb_
FNDA:0,_RNvXs1_NtNtCscm20NoNPXfL_18ethereum_da_client36___mock_MockEthereumDaClient_DaClient18___verify_inclusionNtB5_7MatcherNtNtCsl82brYPINY5_4core7default7Default7default
FNDA:0,_RNvXs2_NtNtCscm20NoNPXfL_18ethereum_da_client36___mock_MockEthereumDaClient_DaClient18___verify_inclusionNtB5_7MatcherNtNtCsl82brYPINY5_4core3fmt7Display3fmt
FNDA:0,_RNvXs3_NtNtCscm20NoNPXfL_18ethereum_da_client36___mock_MockEthereumDaClient_DaClient18___verify_inclusionNtB5_6CommonNtNtCsl82brYPINY5_4core7default7Default7default
FNDA:0,_RNvMs4_NtNtCscm20NoNPXfL_18ethereum_da_client36___mock_MockEthereumDaClient_DaClient18___verify_inclusionNtB5_6Common4call
FNDA:0,_RNvMs4_NtNtCscm20NoNPXfL_18ethereum_da_client36___mock_MockEthereumDaClient_DaClient18___verify_inclusionNtB5_6Common11in_sequence
FNDA:0,_RNvMs4_NtNtCscm20NoNPXfL_18ethereum_da_client36___mock_MockEthereumDaClient_DaClient18___verify_inclusionNtB5_6Common7is_done
FNDA:0,_RNvMs4_NtNtCscm20NoNPXfL_18ethereum_da_client36___mock_MockEthereumDaClient_DaClient18___verify_inclusionNtB5_6Common7matches
FNDA:0,_RNvMs4_NtNtCscm20NoNPXfL_18ethereum_da_client36___mock_MockEthereumDaClient_DaClient18___verify_inclusionNtB5_6Common5never
FNDA:0,_RNvMs4_NtNtCscm20NoNPXfL_18ethereum_da_client36___mock_MockEthereumDaClient_DaClient18___verify_inclusionNtB5_6Common16satisfy_sequence
FNDA:0,_RINvMs4_NtNtCscm20NoNPXfL_18ethereum_da_client36___mock_MockEthereumDaClient_DaClient18___verify_inclusionNtB6_6Common5timespEBa_
FNDA:0,_RINvMs4_NtNtCscm20NoNPXfL_18ethereum_da_client36___mock_MockEthereumDaClient_DaClient18___verify_inclusionNtB6_6Common4withpEBa_
FNDA:0,_RINvMs4_NtNtCscm20NoNPXfL_18ethereum_da_client36___mock_MockEthereumDaClient_DaClient18___verify_inclusionNtB6_6Common5withfpEBa_
FNDA:0,_RINvMs4_NtNtCscm20NoNPXfL_18ethereum_da_client36___mock_MockEthereumDaClient_DaClient18___verify_inclusionNtB6_6Common8withf_stpEBa_
FNDA:0,_RNvMs4_NtNtCscm20NoNPXfL_18ethereum_da_client36___mock_MockEthereumDaClient_DaClient18___verify_inclusionNtB5_6Common15verify_sequence
FNDA:0,_RNvXs5_NtNtCscm20NoNPXfL_18ethereum_da_client36___mock_MockEthereumDaClient_DaClient18___verify_inclusionNtB5_6CommonNtNtNtCsl82brYPINY5_4core3ops4drop4Drop4drop
FNDA:0,_RNvMs6_NtNtCscm20NoNPXfL_18ethereum_da_client36___mock_MockEthereumDaClient_DaClient18___verify_inclusionNtB5_11Expectation4call
FNDA:0,_RINvMs6_NtNtCscm20NoNPXfL_18ethereum_da_client36___mock_MockEthereumDaClient_DaClient18___verify_inclusionNtB6_11Expectation12return_constpEBa_
FNDA:0,_RNCINvMs6_NtNtCscm20NoNPXfL_18ethereum_da_client36___mock_MockEthereumDaClient_DaClient18___verify_inclusionNtB8_11Expectation12return_constpE0Bc_
FNDA:0,_RINvMs6_NtNtCscm20NoNPXfL_18ethereum_da_client36___mock_MockEthereumDaClient_DaClient18___verify_inclusionNtB6_11Expectation15return_const_stpEBa_
FNDA:0,_RNCINvMs6_NtNtCscm20NoNPXfL_18ethereum_da_client36___mock_MockEthereumDaClient_DaClient18___verify_inclusionNtB8_11Expectation15return_const_stpE0Bc_
FNDA:0,_RINvMs6_NtNtCscm20NoNPXfL_18ethereum_da_client36___mock_MockEthereumDaClient_DaClient18___verify_inclusionNtB6_11Expectation11return_oncepEBa_
FNDA:0,_RINvMs6_NtNtCscm20NoNPXfL_18ethereum_da_client36___mock_MockEthereumDaClient_DaClient18___verify_inclusionNtB6_11Expectation14return_once_stpEBa_
FNDA:0,_RINvMs6_NtNtCscm20NoNPXfL_18ethereum_da_client36___mock_MockEthereumDaClient_DaClient18___verify_inclusionNtB6_11Expectation9returningpEBa_
FNDA:0,_RINvMs6_NtNtCscm20NoNPXfL_18ethereum_da_client36___mock_MockEthereumDaClient_DaClient18___verify_inclusionNtB6_11Expectation12returning_stpEBa_
FNDA:0,_RNvMs6_NtNtCscm20NoNPXfL_18ethereum_da_client36___mock_MockEthereumDaClient_DaClient18___verify_inclusionNtB5_11Expectation11in_sequence
FNDA:0,_RNvMs6_NtNtCscm20NoNPXfL_18ethereum_da_client36___mock_MockEthereumDaClient_DaClient18___verify_inclusionNtB5_11Expectation7is_done
FNDA:0,_RNvMs6_NtNtCscm20NoNPXfL_18ethereum_da_client36___mock_MockEthereumDaClient_DaClient18___verify_inclusionNtB5_11Expectation7matches
FNDA:0,_RNvMs6_NtNtCscm20NoNPXfL_18ethereum_da_client36___mock_MockEthereumDaClient_DaClient18___verify_inclusionNtB5_11Expectation5never
FNDA:0,_RNvMs6_NtNtCscm20NoNPXfL_18ethereum_da_client36___mock_MockEthereumDaClient_DaClient18___verify_inclusionNtB5_11Expectation3new
FNDA:0,_RNvMs6_NtNtCscm20NoNPXfL_18ethereum_da_client36___mock_MockEthereumDaClient_DaClient18___verify_inclusionNtB5_11Expectation4once
FNDA:0,_RINvMs6_NtNtCscm20NoNPXfL_18ethereum_da_client36___mock_MockEthereumDaClient_DaClient18___verify_inclusionNtB6_11Expectation5timespEBa_
FNDA:0,_RINvMs6_NtNtCscm20NoNPXfL_18ethereum_da_client36___mock_MockEthereumDaClient_DaClient18___verify_inclusionNtB6_11Expectation4withpEBa_
FNDA:0,_RINvMs6_NtNtCscm20NoNPXfL_18ethereum_da_client36___mock_MockEthereumDaClient_DaClient18___verify_inclusionNtB6_11Expectation5withfpEBa_
FNDA:0,_RINvMs6_NtNtCscm20NoNPXfL_18ethereum_da_client36___mock_MockEthereumDaClient_DaClient18___verify_inclusionNtB6_11Expectation8withf_stpEBa_
FNDA:0,_RNvXs7_NtNtCscm20NoNPXfL_18ethereum_da_client36___mock_MockEthereumDaClient_DaClient18___verify_inclusionNtB5_11ExpectationNtNtCsl82brYPINY5_4core7default7Default7default
FNDA:0,_RNvMs8_NtNtCscm20NoNPXfL_18ethereum_da_client36___mock_MockEthereumDaClient_DaClient18___verify_inclusionNtB5_12Expectations10checkpoint
FNDA:0,_RNvMs8_NtNtCscm20NoNPXfL_18ethereum_da_client36___mock_MockEthereumDaClient_DaClient18___verify_inclusionNtB5_12Expectations6expect
FNDA:0,_RNvMs8_NtNtCscm20NoNPXfL_18ethereum_da_client36___mock_MockEthereumDaClient_DaClient18___verify_inclusionNtB5_12Expectations3new
FNDA:0,_RNvXs9_NtNtCscm20NoNPXfL_18ethereum_da_client36___mock_MockEthereumDaClient_DaClient18___verify_inclusionNtB5_12ExpectationsNtNtCsl82brYPINY5_4core7default7Default7default
FNDA:0,_RNvMsa_NtNtCscm20NoNPXfL_18ethereum_da_client36___mock_MockEthereumDaClient_DaClient18___verify_inclusionNtB5_12Expectations4call
FNDA:0,_RNCNvMsa_NtNtCscm20NoNPXfL_18ethereum_da_client36___mock_MockEthereumDaClient_DaClient18___verify_inclusionNtB7_12Expectations4call0Bb_
FNDA:0,_RNCNvMsa_NtNtCscm20NoNPXfL_18ethereum_da_client36___mock_MockEthereumDaClient_DaClient18___verify_inclusionNtB7_12Expectations4calls_0Bb_
FNDA:0,_RNvMNtNtCscm20NoNPXfL_18ethereum_da_client36___mock_MockEthereumDaClient_DaClient18___max_blob_per_txnNtB2_5Rfunc8call_mut
FNDA:0,_RNvXs_NtNtCscm20NoNPXfL_18ethereum_da_client36___mock_MockEthereumDaClient_DaClient18___max_blob_per_txnNtB4_5RfuncNtNtCsl82brYPINY5_4core7default7Default7default
FNDA:0,_RNvMs0_NtNtCscm20NoNPXfL_18ethereum_da_client36___mock_MockEthereumDaClient_DaClient18___max_blob_per_txnNtB5_7Matcher7matches
FNDA:0,_RNCNvMs0_NtNtCscm20NoNPXfL_18ethereum_da_client36___mock_MockEthereumDaClient_DaClient18___max_blob_per_txnNtB7_7Matcher7matches0Bb_
FNDA:0,_RNvXs1_NtNtCscm20NoNPXfL_18ethereum_da_client36___mock_MockEthereumDaClient_DaClient18___max_blob_per_txnNtB5_7MatcherNtNtCsl82brYPINY5_4core7default7Default7default
FNDA:0,_RNvXs2_NtNtCscm20NoNPXfL_18ethereum_da_client36___mock_MockEthereumDaClient_DaClient18___max_blob_per_txnNtB5_7MatcherNtNtCsl82brYPINY5_4core3fmt7Display3fmt
FNDA:0,_RNvXs3_NtNtCscm20NoNPXfL_18ethereum_da_client36___mock_MockEthereumDaClient_DaClient18___max_blob_per_txnNtB5_6CommonNtNtCsl82brYPINY5_4core7default7Default7default
FNDA:0,_RNvMs4_NtNtCscm20NoNPXfL_18ethereum_da_client36___mock_MockEthereumDaClient_DaClient18___max_blob_per_txnNtB5_6Common4call
FNDA:0,_RNvMs4_NtNtCscm20NoNPXfL_18ethereum_da_client36___mock_MockEthereumDaClient_DaClient18___max_blob_per_txnNtB5_6Common11in_sequence
FNDA:0,_RNvMs4_NtNtCscm20NoNPXfL_18ethereum_da_client36___mock_MockEthereumDaClient_DaClient18___max_blob_per_txnNtB5_6Common7is_done
FNDA:0,_RNvMs4_NtNtCscm20NoNPXfL_18ethereum_da_client36___mock_MockEthereumDaClient_DaClient18___max_blob_per_txnNtB5_6Common7matches
FNDA:0,_RNvMs4_NtNtCscm20NoNPXfL_18ethereum_da_client36___mock_MockEthereumDaClient_DaClient18___max_blob_per_txnNtB5_6Common5never
FNDA:0,_RNvMs4_NtNtCscm20NoNPXfL_18ethereum_da_client36___mock_MockEthereumDaClient_DaClient18___max_blob_per_txnNtB5_6Common16satisfy_sequence
FNDA:0,_RINvMs4_NtNtCscm20NoNPXfL_18ethereum_da_client36___mock_MockEthereumDaClient_DaClient18___max_blob_per_txnNtB6_6Common5timespEBa_
FNDA:0,_RNvMs4_NtNtCscm20NoNPXfL_18ethereum_da_client36___mock_MockEthereumDaClient_DaClient18___max_blob_per_txnNtB5_6Common4with
FNDA:0,_RINvMs4_NtNtCscm20NoNPXfL_18ethereum_da_client36___mock_MockEthereumDaClient_DaClient18___max_blob_per_txnNtB6_6Common5withfpEBa_
FNDA:0,_RINvMs4_NtNtCscm20NoNPXfL_18ethereum_da_client36___mock_MockEthereumDaClient_DaClient18___max_blob_per_txnNtB6_6Common8withf_stpEBa_
FNDA:0,_RNvMs4_NtNtCscm20NoNPXfL_18ethereum_da_client36___mock_MockEthereumDaClient_DaClient18___max_blob_per_txnNtB5_6Common15verify_sequence
FNDA:0,_RNvXs5_NtNtCscm20NoNPXfL_18ethereum_da_client36___mock_MockEthereumDaClient_DaClient18___max_blob_per_txnNtB5_6CommonNtNtNtCsl82brYPINY5_4core3ops4drop4Drop4drop
FNDA:0,_RNvMs6_NtNtCscm20NoNPXfL_18ethereum_da_client36___mock_MockEthereumDaClient_DaClient18___max_blob_per_txnNtB5_11Expectation4call
FNDA:0,_RINvMs6_NtNtCscm20NoNPXfL_18ethereum_da_client36___mock_MockEthereumDaClient_DaClient18___max_blob_per_txnNtB6_11Expectation12return_constpEBa_
FNDA:0,_RNCINvMs6_NtNtCscm20NoNPXfL_18ethereum_da_client36___mock_MockEthereumDaClient_DaClient18___max_blob_per_txnNtB8_11Expectation12return_constpE0Bc_
FNDA:0,_RINvMs6_NtNtCscm20NoNPXfL_18ethereum_da_client36___mock_MockEthereumDaClient_DaClient18___max_blob_per_txnNtB6_11Expectation15return_const_stpEBa_
FNDA:0,_RNCINvMs6_NtNtCscm20NoNPXfL_18ethereum_da_client36___mock_MockEthereumDaClient_DaClient18___max_blob_per_txnNtB8_11Expectation15return_const_stpE0Bc_
FNDA:0,_RINvMs6_NtNtCscm20NoNPXfL_18ethereum_da_client36___mock_MockEthereumDaClient_DaClient18___max_blob_per_txnNtB6_11Expectation11return_oncepEBa_
FNDA:0,_RINvMs6_NtNtCscm20NoNPXfL_18ethereum_da_client36___mock_MockEthereumDaClient_DaClient18___max_blob_per_txnNtB6_11Expectation14return_once_stpEBa_
FNDA:0,_RINvMs6_NtNtCscm20NoNPXfL_18ethereum_da_client36___mock_MockEthereumDaClient_DaClient18___max_blob_per_txnNtB6_11Expectation9returningpEBa_
FNDA:0,_RINvMs6_NtNtCscm20NoNPXfL_18ethereum_da_client36___mock_MockEthereumDaClient_DaClient18___max_blob_per_txnNtB6_11Expectation12returning_stpEBa_
FNDA:0,_RNvMs6_NtNtCscm20NoNPXfL_18ethereum_da_client36___mock_MockEthereumDaClient_DaClient18___max_blob_per_txnNtB5_11Expectation11in_sequence
FNDA:0,_RNvMs6_NtNtCscm20NoNPXfL_18ethereum_da_client36___mock_MockEthereumDaClient_DaClient18___max_blob_per_txnNtB5_11Expectation7is_done
FNDA:0,_RNvMs6_NtNtCscm20NoNPXfL_18ethereum_da_client36___mock_MockEthereumDaClient_DaClient18___max_blob_per_txnNtB5_11Expectation7matches
FNDA:0,_RNvMs6_NtNtCscm20NoNPXfL_18ethereum_da_client36___mock_MockEthereumDaClient_DaClient18___max_blob_per_txnNtB5_11Expectation5never
FNDA:0,_RNvMs6_NtNtCscm20NoNPXfL_18ethereum_da_client36___mock_MockEthereumDaClient_DaClient18___max_blob_per_txnNtB5_11Expectation3new
FNDA:0,_RNvMs6_NtNtCscm20NoNPXfL_18ethereum_da_client36___mock_MockEthereumDaClient_DaClient18___max_blob_per_txnNtB5_11Expectation4once
FNDA:0,_RINvMs6_NtNtCscm20NoNPXfL_18ethereum_da_client36___mock_MockEthereumDaClient_DaClient18___max_blob_per_txnNtB6_11Expectation5timespEBa_
FNDA:0,_RNvMs6_NtNtCscm20NoNPXfL_18ethereum_da_client36___mock_MockEthereumDaClient_DaClient18___max_blob_per_txnNtB5_11Expectation4with
FNDA:0,_RINvMs6_NtNtCscm20NoNPXfL_18ethereum_da_client36___mock_MockEthereumDaClient_DaClient18___max_blob_per_txnNtB6_11Expectation5withfpEBa_
FNDA:0,_RINvMs6_NtNtCscm20NoNPXfL_18ethereum_da_client36___mock_MockEthereumDaClient_DaClient18___max_blob_per_txnNtB6_11Expectation8withf_stpEBa_
FNDA:0,_RNvXs7_NtNtCscm20NoNPXfL_18ethereum_da_client36___mock_MockEthereumDaClient_DaClient18___max_blob_per_txnNtB5_11ExpectationNtNtCsl82brYPINY5_4core7default7Default7default
FNDA:0,_RNvMs8_NtNtCscm20NoNPXfL_18ethereum_da_client36___mock_MockEthereumDaClient_DaClient18___max_blob_per_txnNtB5_12Expectations10checkpoint
FNDA:0,_RNvMs8_NtNtCscm20NoNPXfL_18ethereum_da_client36___mock_MockEthereumDaClient_DaClient18___max_blob_per_txnNtB5_12Expectations6expect
FNDA:0,_RNvMs8_NtNtCscm20NoNPXfL_18ethereum_da_client36___mock_MockEthereumDaClient_DaClient18___max_blob_per_txnNtB5_12Expectations3new
FNDA:0,_RNvXs9_NtNtCscm20NoNPXfL_18ethereum_da_client36___mock_MockEthereumDaClient_DaClient18___max_blob_per_txnNtB5_12ExpectationsNtNtCsl82brYPINY5_4core7default7Default7default
FNDA:0,_RNvMsa_NtNtCscm20NoNPXfL_18ethereum_da_client36___mock_MockEthereumDaClient_DaClient18___max_blob_per_txnNtB5_12Expectations4call
FNDA:0,_RNCNvMsa_NtNtCscm20NoNPXfL_18ethereum_da_client36___mock_MockEthereumDaClient_DaClient18___max_blob_per_txnNtB7_12Expectations4call0Bb_
FNDA:0,_RNCNvMsa_NtNtCscm20NoNPXfL_18ethereum_da_client36___mock_MockEthereumDaClient_DaClient18___max_blob_per_txnNtB7_12Expectations4calls_0Bb_
FNDA:0,_RNvMNtNtCscm20NoNPXfL_18ethereum_da_client36___mock_MockEthereumDaClient_DaClient20___max_bytes_per_blobNtB2_5Rfunc8call_mut
FNDA:0,_RNvXs_NtNtCscm20NoNPXfL_18ethereum_da_client36___mock_MockEthereumDaClient_DaClient20___max_bytes_per_blobNtB4_5RfuncNtNtCsl82brYPINY5_4core7default7Default7default
FNDA:0,_RNvMs0_NtNtCscm20NoNPXfL_18ethereum_da_client36___mock_MockEthereumDaClient_DaClient20___max_bytes_per_blobNtB5_7Matcher7matches
FNDA:0,_RNCNvMs0_NtNtCscm20NoNPXfL_18ethereum_da_client36___mock_MockEthereumDaClient_DaClient20___max_bytes_per_blobNtB7_7Matcher7matches0Bb_
FNDA:0,_RNvXs1_NtNtCscm20NoNPXfL_18ethereum_da_client36___mock_MockEthereumDaClient_DaClient20___max_bytes_per_blobNtB5_7MatcherNtNtCsl82brYPINY5_4core7default7Default7default
FNDA:0,_RNvXs2_NtNtCscm20NoNPXfL_18ethereum_da_client36___mock_MockEthereumDaClient_DaClient20___max_bytes_per_blobNtB5_7MatcherNtNtCsl82brYPINY5_4core3fmt7Display3fmt
FNDA:0,_RNvXs3_NtNtCscm20NoNPXfL_18ethereum_da_client36___mock_MockEthereumDaClient_DaClient20___max_bytes_per_blobNtB5_6CommonNtNtCsl82brYPINY5_4core7default7Default7default
FNDA:0,_RNvMs4_NtNtCscm20NoNPXfL_18ethereum_da_client36___mock_MockEthereumDaClient_DaClient20___max_bytes_per_blobNtB5_6Common4call
FNDA:0,_RNvMs4_NtNtCscm20NoNPXfL_18ethereum_da_client36___mock_MockEthereumDaClient_DaClient20___max_bytes_per_blobNtB5_6Common11in_sequence
FNDA:0,_RNvMs4_NtNtCscm20NoNPXfL_18ethereum_da_client36___mock_MockEthereumDaClient_DaClient20___max_bytes_per_blobNtB5_6Common7is_done
FNDA:0,_RNvMs4_NtNtCscm20NoNPXfL_18ethereum_da_client36___mock_MockEthereumDaClient_DaClient20___max_bytes_per_blobNtB5_6Common7matches
FNDA:0,_RNvMs4_NtNtCscm20NoNPXfL_18ethereum_da_client36___mock_MockEthereumDaClient_DaClient20___max_bytes_per_blobNtB5_6Common5never
FNDA:0,_RNvMs4_NtNtCscm20NoNPXfL_18ethereum_da_client36___mock_MockEthereumDaClient_DaClient20___max_bytes_per_blobNtB5_6Common16satisfy_sequence
FNDA:0,_RINvMs4_NtNtCscm20NoNPXfL_18ethereum_da_client36___mock_MockEthereumDaClient_DaClient20___max_bytes_per_blobNtB6_6Common5timespEBa_
FNDA:0,_RNvMs4_NtNtCscm20NoNPXfL_18ethereum_da_client36___mock_MockEthereumDaClient_DaClient20___max_bytes_per_blobNtB5_6Common4with
FNDA:0,_RINvMs4_NtNtCscm20NoNPXfL_18ethereum_da_client36___mock_MockEthereumDaClient_DaClient20___max_bytes_per_blobNtB6_6Common5withfpEBa_
FNDA:0,_RINvMs4_NtNtCscm20NoNPXfL_18ethereum_da_client36___mock_MockEthereumDaClient_DaClient20___max_bytes_per_blobNtB6_6Common8withf_stpEBa_
FNDA:0,_RNvMs4_NtNtCscm20NoNPXfL_18ethereum_da_client36___mock_MockEthereumDaClient_DaClient20___max_bytes_per_blobNtB5_6Common15verify_sequence
FNDA:0,_RNvXs5_NtNtCscm20NoNPXfL_18ethereum_da_client36___mock_MockEthereumDaClient_DaClient20___max_bytes_per_blobNtB5_6CommonNtNtNtCsl82brYPINY5_4core3ops4drop4Drop4drop
FNDA:0,_RNvMs6_NtNtCscm20NoNPXfL_18ethereum_da_client36___mock_MockEthereumDaClient_DaClient20___max_bytes_per_blobNtB5_11Expectation4call
FNDA:0,_RINvMs6_NtNtCscm20NoNPXfL_18ethereum_da_client36___mock_MockEthereumDaClient_DaClient20___max_bytes_per_blobNtB6_11Expectation12return_constpEBa_
FNDA:0,_RNCINvMs6_NtNtCscm20NoNPXfL_18ethereum_da_client36___mock_MockEthereumDaClient_DaClient20___max_bytes_per_blobNtB8_11Expectation12return_constpE0Bc_
FNDA:0,_RINvMs6_NtNtCscm20NoNPXfL_18ethereum_da_client36___mock_MockEthereumDaClient_DaClient20___max_bytes_per_blobNtB6_11Expectation15return_const_stpEBa_
FNDA:0,_RNCINvMs6_NtNtCscm20NoNPXfL_18ethereum_da_client36___mock_MockEthereumDaClient_DaClient20___max_bytes_per_blobNtB8_11Expectation15return_const_stpE0Bc_
FNDA:0,_RINvMs6_NtNtCscm20NoNPXfL_18ethereum_da_client36___mock_MockEthereumDaClient_DaClient20___max_bytes_per_blobNtB6_11Expectation11return_oncepEBa_
FNDA:0,_RINvMs6_NtNtCscm20NoNPXfL_18ethereum_da_client36___mock_MockEthereumDaClient_DaClient20___max_bytes_per_blobNtB6_11Expectation14return_once_stpEBa_
FNDA:0,_RINvMs6_NtNtCscm20NoNPXfL_18ethereum_da_client36___mock_MockEthereumDaClient_DaClient20___max_bytes_per_blobNtB6_11Expectation9returningpEBa_
FNDA:0,_RINvMs6_NtNtCscm20NoNPXfL_18ethereum_da_client36___mock_MockEthereumDaClient_DaClient20___max_bytes_per_blobNtB6_11Expectation12returning_stpEBa_
FNDA:0,_RNvMs6_NtNtCscm20NoNPXfL_18ethereum_da_client36___mock_MockEthereumDaClient_DaClient20___max_bytes_per_blobNtB5_11Expectation11in_sequence
FNDA:0,_RNvMs6_NtNtCscm20NoNPXfL_18ethereum_da_client36___mock_MockEthereumDaClient_DaClient20___max_bytes_per_blobNtB5_11Expectation7is_done
FNDA:0,_RNvMs6_NtNtCscm20NoNPXfL_18ethereum_da_client36___mock_MockEthereumDaClient_DaClient20___max_bytes_per_blobNtB5_11Expectation7matches
FNDA:0,_RNvMs6_NtNtCscm20NoNPXfL_18ethereum_da_client36___mock_MockEthereumDaClient_DaClient20___max_bytes_per_blobNtB5_11Expectation5never
FNDA:0,_RNvMs6_NtNtCscm20NoNPXfL_18ethereum_da_client36___mock_MockEthereumDaClient_DaClient20___max_bytes_per_blobNtB5_11Expectation3new
FNDA:0,_RNvMs6_NtNtCscm20NoNPXfL_18ethereum_da_client36___mock_MockEthereumDaClient_DaClient20___max_bytes_per_blobNtB5_11Expectation4once
FNDA:0,_RINvMs6_NtNtCscm20NoNPXfL_18ethereum_da_client36___mock_MockEthereumDaClient_DaClient20___max_bytes_per_blobNtB6_11Expectation5timespEBa_
FNDA:0,_RNvMs6_NtNtCscm20NoNPXfL_18ethereum_da_client36___mock_MockEthereumDaClient_DaClient20___max_bytes_per_blobNtB5_11Expectation4with
FNDA:0,_RINvMs6_NtNtCscm20NoNPXfL_18ethereum_da_client36___mock_MockEthereumDaClient_DaClient20___max_bytes_per_blobNtB6_11Expectation5withfpEBa_
FNDA:0,_RINvMs6_NtNtCscm20NoNPXfL_18ethereum_da_client36___mock_MockEthereumDaClient_DaClient20___max_bytes_per_blobNtB6_11Expectation8withf_stpEBa_
FNDA:0,_RNvXs7_NtNtCscm20NoNPXfL_18ethereum_da_client36___mock_MockEthereumDaClient_DaClient20___max_bytes_per_blobNtB5_11ExpectationNtNtCsl82brYPINY5_4core7default7Default7default
FNDA:0,_RNvMs8_NtNtCscm20NoNPXfL_18ethereum_da_client36___mock_MockEthereumDaClient_DaClient20___max_bytes_per_blobNtB5_12Expectations10checkpoint
FNDA:0,_RNvMs8_NtNtCscm20NoNPXfL_18ethereum_da_client36___mock_MockEthereumDaClient_DaClient20___max_bytes_per_blobNtB5_12Expectations6expect
FNDA:0,_RNvMs8_NtNtCscm20NoNPXfL_18ethereum_da_client36___mock_MockEthereumDaClient_DaClient20___max_bytes_per_blobNtB5_12Expectations3new
FNDA:0,_RNvXs9_NtNtCscm20NoNPXfL_18ethereum_da_client36___mock_MockEthereumDaClient_DaClient20___max_bytes_per_blobNtB5_12ExpectationsNtNtCsl82brYPINY5_4core7default7Default7default
FNDA:0,_RNvMsa_NtNtCscm20NoNPXfL_18ethereum_da_client36___mock_MockEthereumDaClient_DaClient20___max_bytes_per_blobNtB5_12Expectations4call
FNDA:0,_RNCNvMsa_NtNtCscm20NoNPXfL_18ethereum_da_client36___mock_MockEthereumDaClient_DaClient20___max_bytes_per_blobNtB7_12Expectations4call0Bb_
FNDA:0,_RNCNvMsa_NtNtCscm20NoNPXfL_18ethereum_da_client36___mock_MockEthereumDaClient_DaClient20___max_bytes_per_blobNtB7_12Expectations4calls_0Bb_
FNDA:0,_RNvXs1_Cscm20NoNPXfL_18ethereum_da_clientNtB5_29MockEthereumDaClient_DaClientNtNtCsl82brYPINY5_4core7default7Default7default
FNDA:0,_RNvMs2_Cscm20NoNPXfL_18ethereum_da_clientNtB5_29MockEthereumDaClient_DaClient10checkpoint
FNDA:0,_RNvMs3_Cscm20NoNPXfL_18ethereum_da_clientNtB5_20MockEthereumDaClient10checkpoint
FNDA:0,_RNvMs3_Cscm20NoNPXfL_18ethereum_da_clientNtB5_20MockEthereumDaClient3new
FNDA:0,_RNvXs6_Cscm20NoNPXfL_18ethereum_da_clientNtB5_20MockEthereumDaClientNtCsd2a39Kes4Ul_19da_client_interface8DaClient18publish_state_diff
FNDA:0,_RNCNvXs6_Cscm20NoNPXfL_18ethereum_da_clientNtB7_20MockEthereumDaClientNtCsd2a39Kes4Ul_19da_client_interface8DaClient18publish_state_diff0B7_
FNDA:0,_RNvXs6_Cscm20NoNPXfL_18ethereum_da_clientNtB5_20MockEthereumDaClientNtCsd2a39Kes4Ul_19da_client_interface8DaClient16verify_inclusion
FNDA:0,_RNCNvXs6_Cscm20NoNPXfL_18ethereum_da_clientNtB7_20MockEthereumDaClientNtCsd2a39Kes4Ul_19da_client_interface8DaClient16verify_inclusion0B7_
FNDA:0,_RNvXs6_Cscm20NoNPXfL_18ethereum_da_clientNtB5_20MockEthereumDaClientNtCsd2a39Kes4Ul_19da_client_interface8DaClient16max_blob_per_txn
FNDA:0,_RNCNvXs6_Cscm20NoNPXfL_18ethereum_da_clientNtB7_20MockEthereumDaClientNtCsd2a39Kes4Ul_19da_client_interface8DaClient16max_blob_per_txn0B7_
FNDA:0,_RNvXs6_Cscm20NoNPXfL_18ethereum_da_clientNtB5_20MockEthereumDaClientNtCsd2a39Kes4Ul_19da_client_interface8DaClient18max_bytes_per_blob
FNDA:0,_RNCNvXs6_Cscm20NoNPXfL_18ethereum_da_clientNtB7_20MockEthereumDaClientNtCsd2a39Kes4Ul_19da_client_interface8DaClient18max_bytes_per_blob0B7_
FNDA:0,_RNvMs4_Cscm20NoNPXfL_18ethereum_da_clientNtB5_20MockEthereumDaClient25expect_publish_state_diff
FNDA:0,_RNvMs4_Cscm20NoNPXfL_18ethereum_da_clientNtB5_20MockEthereumDaClient23expect_verify_inclusion
FNDA:0,_RNvMs4_Cscm20NoNPXfL_18ethereum_da_clientNtB5_20MockEthereumDaClient23expect_max_blob_per_txn
FNDA:0,_RNvMs4_Cscm20NoNPXfL_18ethereum_da_clientNtB5_20MockEthereumDaClient25expect_max_bytes_per_blob
FNDA:0,_RNvXCscm20NoNPXfL_18ethereum_da_clientNtB2_16EthereumDaClientINtNtCsl82brYPINY5_4core7convert4FromNtNtB2_6config16EthereumDaConfigE4from
FNDA:0,_RNvNtCscm20NoNPXfL_18ethereum_da_client5tests21__vec_u8_to_hex_string
FNDA:0,_RNCNvNtCscm20NoNPXfL_18ethereum_da_client5tests21__vec_u8_to_hex_string0B5_
FNDA:0,_RNvMNtNtCsaXXtEBL21yp_18ethereum_da_client36___mock_MockEthereumDaClient_DaClient20___publish_state_diffNtB2_5Rfunc8call_mut
FNDA:0,_RNvMs0_NtNtCsaXXtEBL21yp_18ethereum_da_client36___mock_MockEthereumDaClient_DaClient20___publish_state_diffNtB5_7Matcher7matches
FNDA:0,_RNCNvMs0_NtNtCsaXXtEBL21yp_18ethereum_da_client36___mock_MockEthereumDaClient_DaClient20___publish_state_diffNtB7_7Matcher7matches0Bb_
FNDA:0,_RNvXs2_NtNtCsaXXtEBL21yp_18ethereum_da_client36___mock_MockEthereumDaClient_DaClient20___publish_state_diffNtB5_7MatcherNtNtCsl82brYPINY5_4core3fmt7Display3fmt
FNDA:0,_RNvMs4_NtNtCsaXXtEBL21yp_18ethereum_da_client36___mock_MockEthereumDaClient_DaClient20___publish_state_diffNtB5_6Common4call
FNDA:0,_RNvMs4_NtNtCsaXXtEBL21yp_18ethereum_da_client36___mock_MockEthereumDaClient_DaClient20___publish_state_diffNtB5_6Common11in_sequence
FNDA:0,_RNvMs4_NtNtCsaXXtEBL21yp_18ethereum_da_client36___mock_MockEthereumDaClient_DaClient20___publish_state_diffNtB5_6Common7is_done
FNDA:0,_RNvMs4_NtNtCsaXXtEBL21yp_18ethereum_da_client36___mock_MockEthereumDaClient_DaClient20___publish_state_diffNtB5_6Common7matches
FNDA:0,_RNvMs4_NtNtCsaXXtEBL21yp_18ethereum_da_client36___mock_MockEthereumDaClient_DaClient20___publish_state_diffNtB5_6Common16satisfy_sequence
FNDA:0,_RNvMs4_NtNtCsaXXtEBL21yp_18ethereum_da_client36___mock_MockEthereumDaClient_DaClient20___publish_state_diffNtB5_6Common15verify_sequence
FNDA:0,_RNvXs5_NtNtCsaXXtEBL21yp_18ethereum_da_client36___mock_MockEthereumDaClient_DaClient20___publish_state_diffNtB5_6CommonNtNtNtCsl82brYPINY5_4core3ops4drop4Drop4drop
FNDA:0,_RNvMs6_NtNtCsaXXtEBL21yp_18ethereum_da_client36___mock_MockEthereumDaClient_DaClient20___publish_state_diffNtB5_11Expectation4call
FNDA:0,_RNvMs6_NtNtCsaXXtEBL21yp_18ethereum_da_client36___mock_MockEthereumDaClient_DaClient20___publish_state_diffNtB5_11Expectation11in_sequence
FNDA:0,_RNvMs6_NtNtCsaXXtEBL21yp_18ethereum_da_client36___mock_MockEthereumDaClient_DaClient20___publish_state_diffNtB5_11Expectation7is_done
FNDA:0,_RNvMs6_NtNtCsaXXtEBL21yp_18ethereum_da_client36___mock_MockEthereumDaClient_DaClient20___publish_state_diffNtB5_11Expectation7matches
FNDA:0,_RNvMs6_NtNtCsaXXtEBL21yp_18ethereum_da_client36___mock_MockEthereumDaClient_DaClient20___publish_state_diffNtB5_11Expectation3new
FNDA:0,_RNvMs6_NtNtCsaXXtEBL21yp_18ethereum_da_client36___mock_MockEthereumDaClient_DaClient20___publish_state_diffNtB5_11Expectation4once
FNDA:0,_RINvMs6_NtNtCsaXXtEBL21yp_18ethereum_da_client36___mock_MockEthereumDaClient_DaClient20___publish_state_diffNtB6_11Expectation5timesjEBa_
FNDA:0,_RINvMs4_NtNtCsaXXtEBL21yp_18ethereum_da_client36___mock_MockEthereumDaClient_DaClient20___publish_state_diffNtB6_6Common5timesjEBa_
FNDA:0,_RNvXs7_NtNtCsaXXtEBL21yp_18ethereum_da_client36___mock_MockEthereumDaClient_DaClient20___publish_state_diffNtB5_11ExpectationNtNtCsl82brYPINY5_4core7default7Default7default
FNDA:0,_RNvXs3_NtNtCsaXXtEBL21yp_18ethereum_da_client36___mock_MockEthereumDaClient_DaClient20___publish_state_diffNtB5_6CommonNtNtCsl82brYPINY5_4core7default7Default7default
FNDA:0,_RNvXs1_NtNtCsaXXtEBL21yp_18ethereum_da_client36___mock_MockEthereumDaClient_DaClient20___publish_state_diffNtB5_7MatcherNtNtCsl82brYPINY5_4core7default7Default7default
FNDA:0,_RNvXs_NtNtCsaXXtEBL21yp_18ethereum_da_client36___mock_MockEthereumDaClient_DaClient20___publish_state_diffNtB4_5RfuncNtNtCsl82brYPINY5_4core7default7Default7default
FNDA:0,_RNvMs8_NtNtCsaXXtEBL21yp_18ethereum_da_client36___mock_MockEthereumDaClient_DaClient20___publish_state_diffNtB5_12Expectations10checkpoint
FNDA:0,_RNvMs8_NtNtCsaXXtEBL21yp_18ethereum_da_client36___mock_MockEthereumDaClient_DaClient20___publish_state_diffNtB5_12Expectations6expect
FNDA:0,_RNvMsa_NtNtCsaXXtEBL21yp_18ethereum_da_client36___mock_MockEthereumDaClient_DaClient20___publish_state_diffNtB5_12Expectations4call
FNDA:0,_RNCNvMsa_NtNtCsaXXtEBL21yp_18ethereum_da_client36___mock_MockEthereumDaClient_DaClient20___publish_state_diffNtB7_12Expectations4calls_0Bb_
FNDA:0,_RNCNvMsa_NtNtCsaXXtEBL21yp_18ethereum_da_client36___mock_MockEthereumDaClient_DaClient20___publish_state_diffNtB7_12Expectations4call0Bb_
FNDA:0,_RNvMNtNtCsaXXtEBL21yp_18ethereum_da_client36___mock_MockEthereumDaClient_DaClient18___max_blob_per_txnNtB2_5Rfunc8call_mut
FNDA:0,_RNvMs0_NtNtCsaXXtEBL21yp_18ethereum_da_client36___mock_MockEthereumDaClient_DaClient18___max_blob_per_txnNtB5_7Matcher7matches
FNDA:0,_RNCNvMs0_NtNtCsaXXtEBL21yp_18ethereum_da_client36___mock_MockEthereumDaClient_DaClient18___max_blob_per_txnNtB7_7Matcher7matches0Bb_
FNDA:0,_RNvXs2_NtNtCsaXXtEBL21yp_18ethereum_da_client36___mock_MockEthereumDaClient_DaClient18___max_blob_per_txnNtB5_7MatcherNtNtCsl82brYPINY5_4core3fmt7Display3fmt
FNDA:0,_RNvMs4_NtNtCsaXXtEBL21yp_18ethereum_da_client36___mock_MockEthereumDaClient_DaClient18___max_blob_per_txnNtB5_6Common4call
FNDA:0,_RNvMs4_NtNtCsaXXtEBL21yp_18ethereum_da_client36___mock_MockEthereumDaClient_DaClient18___max_blob_per_txnNtB5_6Common11in_sequence
FNDA:0,_RNvMs4_NtNtCsaXXtEBL21yp_18ethereum_da_client36___mock_MockEthereumDaClient_DaClient18___max_blob_per_txnNtB5_6Common7is_done
FNDA:0,_RNvMs4_NtNtCsaXXtEBL21yp_18ethereum_da_client36___mock_MockEthereumDaClient_DaClient18___max_blob_per_txnNtB5_6Common7matches
FNDA:0,_RNvMs4_NtNtCsaXXtEBL21yp_18ethereum_da_client36___mock_MockEthereumDaClient_DaClient18___max_blob_per_txnNtB5_6Common16satisfy_sequence
FNDA:0,_RNvMs4_NtNtCsaXXtEBL21yp_18ethereum_da_client36___mock_MockEthereumDaClient_DaClient18___max_blob_per_txnNtB5_6Common4with
FNDA:0,_RNvMs4_NtNtCsaXXtEBL21yp_18ethereum_da_client36___mock_MockEthereumDaClient_DaClient18___max_blob_per_txnNtB5_6Common15verify_sequence
FNDA:0,_RNvXs5_NtNtCsaXXtEBL21yp_18ethereum_da_client36___mock_MockEthereumDaClient_DaClient18___max_blob_per_txnNtB5_6CommonNtNtNtCsl82brYPINY5_4core3ops4drop4Drop4drop
FNDA:0,_RNvMs6_NtNtCsaXXtEBL21yp_18ethereum_da_client36___mock_MockEthereumDaClient_DaClient18___max_blob_per_txnNtB5_11Expectation4call
FNDA:0,_RNvMs6_NtNtCsaXXtEBL21yp_18ethereum_da_client36___mock_MockEthereumDaClient_DaClient18___max_blob_per_txnNtB5_11Expectation11in_sequence
FNDA:0,_RNvMs6_NtNtCsaXXtEBL21yp_18ethereum_da_client36___mock_MockEthereumDaClient_DaClient18___max_blob_per_txnNtB5_11Expectation7is_done
FNDA:0,_RNvMs6_NtNtCsaXXtEBL21yp_18ethereum_da_client36___mock_MockEthereumDaClient_DaClient18___max_blob_per_txnNtB5_11Expectation7matches
FNDA:0,_RNvMs6_NtNtCsaXXtEBL21yp_18ethereum_da_client36___mock_MockEthereumDaClient_DaClient18___max_blob_per_txnNtB5_11Expectation3new
FNDA:0,_RNvMs6_NtNtCsaXXtEBL21yp_18ethereum_da_client36___mock_MockEthereumDaClient_DaClient18___max_blob_per_txnNtB5_11Expectation4once
FNDA:0,_RINvMs6_NtNtCsaXXtEBL21yp_18ethereum_da_client36___mock_MockEthereumDaClient_DaClient18___max_blob_per_txnNtB6_11Expectation5timesjEBa_
FNDA:0,_RINvMs4_NtNtCsaXXtEBL21yp_18ethereum_da_client36___mock_MockEthereumDaClient_DaClient18___max_blob_per_txnNtB6_6Common5timesjEBa_
FNDA:0,_RNvMs6_NtNtCsaXXtEBL21yp_18ethereum_da_client36___mock_MockEthereumDaClient_DaClient18___max_blob_per_txnNtB5_11Expectation4with
FNDA:0,_RNvXs7_NtNtCsaXXtEBL21yp_18ethereum_da_client36___mock_MockEthereumDaClient_DaClient18___max_blob_per_txnNtB5_11ExpectationNtNtCsl82brYPINY5_4core7default7Default7default
FNDA:0,_RNvXs3_NtNtCsaXXtEBL21yp_18ethereum_da_client36___mock_MockEthereumDaClient_DaClient18___max_blob_per_txnNtB5_6CommonNtNtCsl82brYPINY5_4core7default7Default7default
FNDA:0,_RNvXs1_NtNtCsaXXtEBL21yp_18ethereum_da_client36___mock_MockEthereumDaClient_DaClient18___max_blob_per_txnNtB5_7MatcherNtNtCsl82brYPINY5_4core7default7Default7default
FNDA:0,_RNvXs_NtNtCsaXXtEBL21yp_18ethereum_da_client36___mock_MockEthereumDaClient_DaClient18___max_blob_per_txnNtB4_5RfuncNtNtCsl82brYPINY5_4core7default7Default7default
FNDA:0,_RNvMs8_NtNtCsaXXtEBL21yp_18ethereum_da_client36___mock_MockEthereumDaClient_DaClient18___max_blob_per_txnNtB5_12Expectations10checkpoint
FNDA:0,_RNvMs8_NtNtCsaXXtEBL21yp_18ethereum_da_client36___mock_MockEthereumDaClient_DaClient18___max_blob_per_txnNtB5_12Expectations6expect
FNDA:0,_RNvMsa_NtNtCsaXXtEBL21yp_18ethereum_da_client36___mock_MockEthereumDaClient_DaClient18___max_blob_per_txnNtB5_12Expectations4call
FNDA:0,_RNCNvMsa_NtNtCsaXXtEBL21yp_18ethereum_da_client36___mock_MockEthereumDaClient_DaClient18___max_blob_per_txnNtB7_12Expectations4calls_0Bb_
FNDA:0,_RNCNvMsa_NtNtCsaXXtEBL21yp_18ethereum_da_client36___mock_MockEthereumDaClient_DaClient18___max_blob_per_txnNtB7_12Expectations4call0Bb_
FNDA:0,_RNvXCsaXXtEBL21yp_18ethereum_da_clientNtB2_16EthereumDaClientINtNtCsl82brYPINY5_4core7convert4FromNtNtB2_6config16EthereumDaConfigE4from
FNDA:0,_RNvCsaXXtEBL21yp_18ethereum_da_client15prepare_sidecar
FNDA:0,_RNCNvCsaXXtEBL21yp_18ethereum_da_client15prepare_sidecar0B3_
FNDA:0,_RNvXs_CsaXXtEBL21yp_18ethereum_da_clientNtB4_20MockEthereumDaClientNtNtCsl82brYPINY5_4core3fmt5Debug3fmt
FNDA:0,_RNvMs2_CsaXXtEBL21yp_18ethereum_da_clientNtB5_29MockEthereumDaClient_DaClient10checkpoint
FNDA:0,_RNvMs3_CsaXXtEBL21yp_18ethereum_da_clientNtB5_20MockEthereumDaClient10checkpoint
FNDA:0,_RNvMs4_CsaXXtEBL21yp_18ethereum_da_clientNtB5_20MockEthereumDaClient25expect_publish_state_diff
FNDA:0,_RNvMs4_CsaXXtEBL21yp_18ethereum_da_clientNtB5_20MockEthereumDaClient23expect_verify_inclusion
FNDA:0,_RNvMs4_CsaXXtEBL21yp_18ethereum_da_clientNtB5_20MockEthereumDaClient23expect_max_blob_per_txn
FNDA:0,_RNvMs4_CsaXXtEBL21yp_18ethereum_da_clientNtB5_20MockEthereumDaClient25expect_max_bytes_per_blob
FNDA:0,_RNvXs5_CsaXXtEBL21yp_18ethereum_da_clientNtB5_16EthereumDaClientNtCsd2a39Kes4Ul_19da_client_interface8DaClient18publish_state_diff
FNDA:0,_RNCNvXs5_CsaXXtEBL21yp_18ethereum_da_clientNtB7_16EthereumDaClientNtCsd2a39Kes4Ul_19da_client_interface8DaClient18publish_state_diff0B7_
FNDA:0,_RNvXs5_CsaXXtEBL21yp_18ethereum_da_clientNtB5_16EthereumDaClientNtCsd2a39Kes4Ul_19da_client_interface8DaClient16verify_inclusion
FNDA:0,_RNCNvXs5_CsaXXtEBL21yp_18ethereum_da_clientNtB7_16EthereumDaClientNtCsd2a39Kes4Ul_19da_client_interface8DaClient16verify_inclusion0B7_
FNDA:0,_RNvXs5_CsaXXtEBL21yp_18ethereum_da_clientNtB5_16EthereumDaClientNtCsd2a39Kes4Ul_19da_client_interface8DaClient16max_blob_per_txn
FNDA:0,_RNCNvXs5_CsaXXtEBL21yp_18ethereum_da_clientNtB7_16EthereumDaClientNtCsd2a39Kes4Ul_19da_client_interface8DaClient16max_blob_per_txn0B7_
FNDA:0,_RNvXs5_CsaXXtEBL21yp_18ethereum_da_clientNtB5_16EthereumDaClientNtCsd2a39Kes4Ul_19da_client_interface8DaClient18max_bytes_per_blob
FNDA:0,_RNCNvXs5_CsaXXtEBL21yp_18ethereum_da_clientNtB7_16EthereumDaClientNtCsd2a39Kes4Ul_19da_client_interface8DaClient18max_bytes_per_blob0B7_
FNDA:0,_RNvXs6_CsaXXtEBL21yp_18ethereum_da_clientNtB5_20MockEthereumDaClientNtCsd2a39Kes4Ul_19da_client_interface8DaClient18publish_state_diff
FNDA:0,_RNCNvXs6_CsaXXtEBL21yp_18ethereum_da_clientNtB7_20MockEthereumDaClientNtCsd2a39Kes4Ul_19da_client_interface8DaClient18publish_state_diff0B7_
FNDA:0,_RNvXs6_CsaXXtEBL21yp_18ethereum_da_clientNtB5_20MockEthereumDaClientNtCsd2a39Kes4Ul_19da_client_interface8DaClient16verify_inclusion
FNDA:0,_RNCNvXs6_CsaXXtEBL21yp_18ethereum_da_clientNtB7_20MockEthereumDaClientNtCsd2a39Kes4Ul_19da_client_interface8DaClient16verify_inclusion0B7_
FNDA:0,_RNvXs6_CsaXXtEBL21yp_18ethereum_da_clientNtB5_20MockEthereumDaClientNtCsd2a39Kes4Ul_19da_client_interface8DaClient16max_blob_per_txn
FNDA:0,_RNCNvXs6_CsaXXtEBL21yp_18ethereum_da_clientNtB7_20MockEthereumDaClientNtCsd2a39Kes4Ul_19da_client_interface8DaClient16max_blob_per_txn0B7_
FNDA:0,_RNvXs6_CsaXXtEBL21yp_18ethereum_da_clientNtB5_20MockEthereumDaClientNtCsd2a39Kes4Ul_19da_client_interface8DaClient18max_bytes_per_blob
FNDA:0,_RNCNvXs6_CsaXXtEBL21yp_18ethereum_da_clientNtB7_20MockEthereumDaClientNtCsd2a39Kes4Ul_19da_client_interface8DaClient18max_bytes_per_blob0B7_
FNDA:0,_RNvMNtNtCsaXXtEBL21yp_18ethereum_da_client36___mock_MockEthereumDaClient_DaClient20___max_bytes_per_blobNtB2_5Rfunc8call_mut
FNDA:0,_RNvMs0_NtNtCsaXXtEBL21yp_18ethereum_da_client36___mock_MockEthereumDaClient_DaClient20___max_bytes_per_blobNtB5_7Matcher7matches
FNDA:0,_RNCNvMs0_NtNtCsaXXtEBL21yp_18ethereum_da_client36___mock_MockEthereumDaClient_DaClient20___max_bytes_per_blobNtB7_7Matcher7matches0Bb_
FNDA:0,_RNvXs2_NtNtCsaXXtEBL21yp_18ethereum_da_client36___mock_MockEthereumDaClient_DaClient20___max_bytes_per_blobNtB5_7MatcherNtNtCsl82brYPINY5_4core3fmt7Display3fmt
FNDA:0,_RNvMs4_NtNtCsaXXtEBL21yp_18ethereum_da_client36___mock_MockEthereumDaClient_DaClient20___max_bytes_per_blobNtB5_6Common4call
FNDA:0,_RNvMs4_NtNtCsaXXtEBL21yp_18ethereum_da_client36___mock_MockEthereumDaClient_DaClient20___max_bytes_per_blobNtB5_6Common11in_sequence
FNDA:0,_RNvMs4_NtNtCsaXXtEBL21yp_18ethereum_da_client36___mock_MockEthereumDaClient_DaClient20___max_bytes_per_blobNtB5_6Common7is_done
FNDA:0,_RNvMs4_NtNtCsaXXtEBL21yp_18ethereum_da_client36___mock_MockEthereumDaClient_DaClient20___max_bytes_per_blobNtB5_6Common7matches
FNDA:0,_RNvMs4_NtNtCsaXXtEBL21yp_18ethereum_da_client36___mock_MockEthereumDaClient_DaClient20___max_bytes_per_blobNtB5_6Common16satisfy_sequence
FNDA:0,_RNvMs4_NtNtCsaXXtEBL21yp_18ethereum_da_client36___mock_MockEthereumDaClient_DaClient20___max_bytes_per_blobNtB5_6Common4with
FNDA:0,_RNvMs4_NtNtCsaXXtEBL21yp_18ethereum_da_client36___mock_MockEthereumDaClient_DaClient20___max_bytes_per_blobNtB5_6Common15verify_sequence
FNDA:0,_RNvXs5_NtNtCsaXXtEBL21yp_18ethereum_da_client36___mock_MockEthereumDaClient_DaClient20___max_bytes_per_blobNtB5_6CommonNtNtNtCsl82brYPINY5_4core3ops4drop4Drop4drop
FNDA:0,_RNvMs6_NtNtCsaXXtEBL21yp_18ethereum_da_client36___mock_MockEthereumDaClient_DaClient20___max_bytes_per_blobNtB5_11Expectation4call
FNDA:0,_RNvMs6_NtNtCsaXXtEBL21yp_18ethereum_da_client36___mock_MockEthereumDaClient_DaClient20___max_bytes_per_blobNtB5_11Expectation11in_sequence
FNDA:0,_RNvMs6_NtNtCsaXXtEBL21yp_18ethereum_da_client36___mock_MockEthereumDaClient_DaClient20___max_bytes_per_blobNtB5_11Expectation7is_done
FNDA:0,_RNvMs6_NtNtCsaXXtEBL21yp_18ethereum_da_client36___mock_MockEthereumDaClient_DaClient20___max_bytes_per_blobNtB5_11Expectation7matches
FNDA:0,_RNvMs6_NtNtCsaXXtEBL21yp_18ethereum_da_client36___mock_MockEthereumDaClient_DaClient20___max_bytes_per_blobNtB5_11Expectation3new
FNDA:0,_RNvMs6_NtNtCsaXXtEBL21yp_18ethereum_da_client36___mock_MockEthereumDaClient_DaClient20___max_bytes_per_blobNtB5_11Expectation4once
FNDA:0,_RINvMs6_NtNtCsaXXtEBL21yp_18ethereum_da_client36___mock_MockEthereumDaClient_DaClient20___max_bytes_per_blobNtB6_11Expectation5timesjEBa_
FNDA:0,_RINvMs4_NtNtCsaXXtEBL21yp_18ethereum_da_client36___mock_MockEthereumDaClient_DaClient20___max_bytes_per_blobNtB6_6Common5timesjEBa_
FNDA:0,_RNvMs6_NtNtCsaXXtEBL21yp_18ethereum_da_client36___mock_MockEthereumDaClient_DaClient20___max_bytes_per_blobNtB5_11Expectation4with
FNDA:0,_RNvXs7_NtNtCsaXXtEBL21yp_18ethereum_da_client36___mock_MockEthereumDaClient_DaClient20___max_bytes_per_blobNtB5_11ExpectationNtNtCsl82brYPINY5_4core7default7Default7default
FNDA:0,_RNvXs3_NtNtCsaXXtEBL21yp_18ethereum_da_client36___mock_MockEthereumDaClient_DaClient20___max_bytes_per_blobNtB5_6CommonNtNtCsl82brYPINY5_4core7default7Default7default
FNDA:0,_RNvXs1_NtNtCsaXXtEBL21yp_18ethereum_da_client36___mock_MockEthereumDaClient_DaClient20___max_bytes_per_blobNtB5_7MatcherNtNtCsl82brYPINY5_4core7default7Default7default
FNDA:0,_RNvXs_NtNtCsaXXtEBL21yp_18ethereum_da_client36___mock_MockEthereumDaClient_DaClient20___max_bytes_per_blobNtB4_5RfuncNtNtCsl82brYPINY5_4core7default7Default7default
FNDA:0,_RNvMs8_NtNtCsaXXtEBL21yp_18ethereum_da_client36___mock_MockEthereumDaClient_DaClient20___max_bytes_per_blobNtB5_12Expectations10checkpoint
FNDA:0,_RNvMs8_NtNtCsaXXtEBL21yp_18ethereum_da_client36___mock_MockEthereumDaClient_DaClient20___max_bytes_per_blobNtB5_12Expectations6expect
FNDA:0,_RNvMsa_NtNtCsaXXtEBL21yp_18ethereum_da_client36___mock_MockEthereumDaClient_DaClient20___max_bytes_per_blobNtB5_12Expectations4call
FNDA:0,_RNCNvMsa_NtNtCsaXXtEBL21yp_18ethereum_da_client36___mock_MockEthereumDaClient_DaClient20___max_bytes_per_blobNtB7_12Expectations4calls_0Bb_
FNDA:0,_RNCNvMsa_NtNtCsaXXtEBL21yp_18ethereum_da_client36___mock_MockEthereumDaClient_DaClient20___max_bytes_per_blobNtB7_12Expectations4call0Bb_
FNDA:0,_RNvMNtNtCsaXXtEBL21yp_18ethereum_da_client36___mock_MockEthereumDaClient_DaClient18___verify_inclusionNtB2_5Rfunc8call_mut
FNDA:0,_RNvMs0_NtNtCsaXXtEBL21yp_18ethereum_da_client36___mock_MockEthereumDaClient_DaClient18___verify_inclusionNtB5_7Matcher7matches
FNDA:0,_RNCNvMs0_NtNtCsaXXtEBL21yp_18ethereum_da_client36___mock_MockEthereumDaClient_DaClient18___verify_inclusionNtB7_7Matcher7matches0Bb_
FNDA:0,_RNvXs2_NtNtCsaXXtEBL21yp_18ethereum_da_client36___mock_MockEthereumDaClient_DaClient18___verify_inclusionNtB5_7MatcherNtNtCsl82brYPINY5_4core3fmt7Display3fmt
FNDA:0,_RNvMs4_NtNtCsaXXtEBL21yp_18ethereum_da_client36___mock_MockEthereumDaClient_DaClient18___verify_inclusionNtB5_6Common4call
FNDA:0,_RNvMs4_NtNtCsaXXtEBL21yp_18ethereum_da_client36___mock_MockEthereumDaClient_DaClient18___verify_inclusionNtB5_6Common11in_sequence
FNDA:0,_RNvMs4_NtNtCsaXXtEBL21yp_18ethereum_da_client36___mock_MockEthereumDaClient_DaClient18___verify_inclusionNtB5_6Common7is_done
FNDA:0,_RNvMs4_NtNtCsaXXtEBL21yp_18ethereum_da_client36___mock_MockEthereumDaClient_DaClient18___verify_inclusionNtB5_6Common7matches
FNDA:0,_RNvMs4_NtNtCsaXXtEBL21yp_18ethereum_da_client36___mock_MockEthereumDaClient_DaClient18___verify_inclusionNtB5_6Common16satisfy_sequence
FNDA:0,_RNvMs4_NtNtCsaXXtEBL21yp_18ethereum_da_client36___mock_MockEthereumDaClient_DaClient18___verify_inclusionNtB5_6Common15verify_sequence
FNDA:0,_RNvXs5_NtNtCsaXXtEBL21yp_18ethereum_da_client36___mock_MockEthereumDaClient_DaClient18___verify_inclusionNtB5_6CommonNtNtNtCsl82brYPINY5_4core3ops4drop4Drop4drop
FNDA:0,_RNvMs6_NtNtCsaXXtEBL21yp_18ethereum_da_client36___mock_MockEthereumDaClient_DaClient18___verify_inclusionNtB5_11Expectation4call
FNDA:0,_RNvMs6_NtNtCsaXXtEBL21yp_18ethereum_da_client36___mock_MockEthereumDaClient_DaClient18___verify_inclusionNtB5_11Expectation11in_sequence
FNDA:0,_RNvMs6_NtNtCsaXXtEBL21yp_18ethereum_da_client36___mock_MockEthereumDaClient_DaClient18___verify_inclusionNtB5_11Expectation7is_done
FNDA:0,_RNvMs6_NtNtCsaXXtEBL21yp_18ethereum_da_client36___mock_MockEthereumDaClient_DaClient18___verify_inclusionNtB5_11Expectation7matches
FNDA:0,_RNvMs6_NtNtCsaXXtEBL21yp_18ethereum_da_client36___mock_MockEthereumDaClient_DaClient18___verify_inclusionNtB5_11Expectation3new
FNDA:0,_RNvMs6_NtNtCsaXXtEBL21yp_18ethereum_da_client36___mock_MockEthereumDaClient_DaClient18___verify_inclusionNtB5_11Expectation4once
FNDA:0,_RINvMs6_NtNtCsaXXtEBL21yp_18ethereum_da_client36___mock_MockEthereumDaClient_DaClient18___verify_inclusionNtB6_11Expectation5timesjEBa_
FNDA:0,_RINvMs4_NtNtCsaXXtEBL21yp_18ethereum_da_client36___mock_MockEthereumDaClient_DaClient18___verify_inclusionNtB6_6Common5timesjEBa_
FNDA:0,_RNvXs7_NtNtCsaXXtEBL21yp_18ethereum_da_client36___mock_MockEthereumDaClient_DaClient18___verify_inclusionNtB5_11ExpectationNtNtCsl82brYPINY5_4core7default7Default7default
FNDA:0,_RNvXs3_NtNtCsaXXtEBL21yp_18ethereum_da_client36___mock_MockEthereumDaClient_DaClient18___verify_inclusionNtB5_6CommonNtNtCsl82brYPINY5_4core7default7Default7default
FNDA:0,_RNvXs1_NtNtCsaXXtEBL21yp_18ethereum_da_client36___mock_MockEthereumDaClient_DaClient18___verify_inclusionNtB5_7MatcherNtNtCsl82brYPINY5_4core7default7Default7default
FNDA:0,_RNvXs_NtNtCsaXXtEBL21yp_18ethereum_da_client36___mock_MockEthereumDaClient_DaClient18___verify_inclusionNtB4_5RfuncNtNtCsl82brYPINY5_4core7default7Default7default
FNDA:0,_RNvMs8_NtNtCsaXXtEBL21yp_18ethereum_da_client36___mock_MockEthereumDaClient_DaClient18___verify_inclusionNtB5_12Expectations10checkpoint
FNDA:0,_RNvMs8_NtNtCsaXXtEBL21yp_18ethereum_da_client36___mock_MockEthereumDaClient_DaClient18___verify_inclusionNtB5_12Expectations6expect
FNDA:0,_RNvMsa_NtNtCsaXXtEBL21yp_18ethereum_da_client36___mock_MockEthereumDaClient_DaClient18___verify_inclusionNtB5_12Expectations4call
FNDA:0,_RNCNvMsa_NtNtCsaXXtEBL21yp_18ethereum_da_client36___mock_MockEthereumDaClient_DaClient18___verify_inclusionNtB7_12Expectations4calls_0Bb_
FNDA:0,_RNCNvMsa_NtNtCsaXXtEBL21yp_18ethereum_da_client36___mock_MockEthereumDaClient_DaClient18___verify_inclusionNtB7_12Expectations4call0Bb_
FNDA:0,_RNvXs0_CsaXXtEBL21yp_18ethereum_da_clientNtB5_20MockEthereumDaClientNtNtCsl82brYPINY5_4core7default7Default7default
FNDA:0,_RNvMs4_NtNtCsaXXtEBL21yp_18ethereum_da_client36___mock_MockEthereumDaClient_DaClient20___publish_state_diffNtB5_6Common5never
FNDA:0,_RINvMs4_NtNtCsaXXtEBL21yp_18ethereum_da_client36___mock_MockEthereumDaClient_DaClient20___publish_state_diffNtB6_6Common4withppEBa_
FNDA:0,_RINvMs4_NtNtCsaXXtEBL21yp_18ethereum_da_client36___mock_MockEthereumDaClient_DaClient20___publish_state_diffNtB6_6Common5withfpEBa_
FNDA:0,_RINvMs4_NtNtCsaXXtEBL21yp_18ethereum_da_client36___mock_MockEthereumDaClient_DaClient20___publish_state_diffNtB6_6Common8withf_stpEBa_
FNDA:0,_RINvMs6_NtNtCsaXXtEBL21yp_18ethereum_da_client36___mock_MockEthereumDaClient_DaClient20___publish_state_diffNtB6_11Expectation12return_constpEBa_
FNDA:0,_RNCINvMs6_NtNtCsaXXtEBL21yp_18ethereum_da_client36___mock_MockEthereumDaClient_DaClient20___publish_state_diffNtB8_11Expectation12return_constpE0Bc_
FNDA:0,_RINvMs6_NtNtCsaXXtEBL21yp_18ethereum_da_client36___mock_MockEthereumDaClient_DaClient20___publish_state_diffNtB6_11Expectation15return_const_stpEBa_
FNDA:0,_RNCINvMs6_NtNtCsaXXtEBL21yp_18ethereum_da_client36___mock_MockEthereumDaClient_DaClient20___publish_state_diffNtB8_11Expectation15return_const_stpE0Bc_
FNDA:0,_RINvMs6_NtNtCsaXXtEBL21yp_18ethereum_da_client36___mock_MockEthereumDaClient_DaClient20___publish_state_diffNtB6_11Expectation11return_oncepEBa_
FNDA:0,_RINvMs6_NtNtCsaXXtEBL21yp_18ethereum_da_client36___mock_MockEthereumDaClient_DaClient20___publish_state_diffNtB6_11Expectation14return_once_stpEBa_
FNDA:0,_RINvMs6_NtNtCsaXXtEBL21yp_18ethereum_da_client36___mock_MockEthereumDaClient_DaClient20___publish_state_diffNtB6_11Expectation9returningpEBa_
FNDA:0,_RINvMs6_NtNtCsaXXtEBL21yp_18ethereum_da_client36___mock_MockEthereumDaClient_DaClient20___publish_state_diffNtB6_11Expectation12returning_stpEBa_
FNDA:0,_RNvMs6_NtNtCsaXXtEBL21yp_18ethereum_da_client36___mock_MockEthereumDaClient_DaClient20___publish_state_diffNtB5_11Expectation5never
FNDA:0,_RINvMs6_NtNtCsaXXtEBL21yp_18ethereum_da_client36___mock_MockEthereumDaClient_DaClient20___publish_state_diffNtB6_11Expectation4withppEBa_
FNDA:0,_RINvMs6_NtNtCsaXXtEBL21yp_18ethereum_da_client36___mock_MockEthereumDaClient_DaClient20___publish_state_diffNtB6_11Expectation5withfpEBa_
FNDA:0,_RINvMs6_NtNtCsaXXtEBL21yp_18ethereum_da_client36___mock_MockEthereumDaClient_DaClient20___publish_state_diffNtB6_11Expectation8withf_stpEBa_
FNDA:0,_RNvMs8_NtNtCsaXXtEBL21yp_18ethereum_da_client36___mock_MockEthereumDaClient_DaClient20___publish_state_diffNtB5_12Expectations3new
FNDA:0,_RNvXs9_NtNtCsaXXtEBL21yp_18ethereum_da_client36___mock_MockEthereumDaClient_DaClient20___publish_state_diffNtB5_12ExpectationsNtNtCsl82brYPINY5_4core7default7Default7default
FNDA:0,_RNvMs4_NtNtCsaXXtEBL21yp_18ethereum_da_client36___mock_MockEthereumDaClient_DaClient18___verify_inclusionNtB5_6Common5never
FNDA:0,_RINvMs4_NtNtCsaXXtEBL21yp_18ethereum_da_client36___mock_MockEthereumDaClient_DaClient18___verify_inclusionNtB6_6Common4withpEBa_
FNDA:0,_RINvMs4_NtNtCsaXXtEBL21yp_18ethereum_da_client36___mock_MockEthereumDaClient_DaClient18___verify_inclusionNtB6_6Common5withfpEBa_
FNDA:0,_RINvMs4_NtNtCsaXXtEBL21yp_18ethereum_da_client36___mock_MockEthereumDaClient_DaClient18___verify_inclusionNtB6_6Common8withf_stpEBa_
FNDA:0,_RINvMs6_NtNtCsaXXtEBL21yp_18ethereum_da_client36___mock_MockEthereumDaClient_DaClient18___verify_inclusionNtB6_11Expectation12return_constpEBa_
FNDA:0,_RNCINvMs6_NtNtCsaXXtEBL21yp_18ethereum_da_client36___mock_MockEthereumDaClient_DaClient18___verify_inclusionNtB8_11Expectation12return_constpE0Bc_
FNDA:0,_RINvMs6_NtNtCsaXXtEBL21yp_18ethereum_da_client36___mock_MockEthereumDaClient_DaClient18___verify_inclusionNtB6_11Expectation15return_const_stpEBa_
FNDA:0,_RNCINvMs6_NtNtCsaXXtEBL21yp_18ethereum_da_client36___mock_MockEthereumDaClient_DaClient18___verify_inclusionNtB8_11Expectation15return_const_stpE0Bc_
FNDA:0,_RINvMs6_NtNtCsaXXtEBL21yp_18ethereum_da_client36___mock_MockEthereumDaClient_DaClient18___verify_inclusionNtB6_11Expectation11return_oncepEBa_
FNDA:0,_RINvMs6_NtNtCsaXXtEBL21yp_18ethereum_da_client36___mock_MockEthereumDaClient_DaClient18___verify_inclusionNtB6_11Expectation14return_once_stpEBa_
FNDA:0,_RINvMs6_NtNtCsaXXtEBL21yp_18ethereum_da_client36___mock_MockEthereumDaClient_DaClient18___verify_inclusionNtB6_11Expectation9returningpEBa_
FNDA:0,_RINvMs6_NtNtCsaXXtEBL21yp_18ethereum_da_client36___mock_MockEthereumDaClient_DaClient18___verify_inclusionNtB6_11Expectation12returning_stpEBa_
FNDA:0,_RNvMs6_NtNtCsaXXtEBL21yp_18ethereum_da_client36___mock_MockEthereumDaClient_DaClient18___verify_inclusionNtB5_11Expectation5never
FNDA:0,_RINvMs6_NtNtCsaXXtEBL21yp_18ethereum_da_client36___mock_MockEthereumDaClient_DaClient18___verify_inclusionNtB6_11Expectation4withpEBa_
FNDA:0,_RINvMs6_NtNtCsaXXtEBL21yp_18ethereum_da_client36___mock_MockEthereumDaClient_DaClient18___verify_inclusionNtB6_11Expectation5withfpEBa_
FNDA:0,_RINvMs6_NtNtCsaXXtEBL21yp_18ethereum_da_client36___mock_MockEthereumDaClient_DaClient18___verify_inclusionNtB6_11Expectation8withf_stpEBa_
FNDA:0,_RNvMs8_NtNtCsaXXtEBL21yp_18ethereum_da_client36___mock_MockEthereumDaClient_DaClient18___verify_inclusionNtB5_12Expectations3new
FNDA:0,_RNvXs9_NtNtCsaXXtEBL21yp_18ethereum_da_client36___mock_MockEthereumDaClient_DaClient18___verify_inclusionNtB5_12ExpectationsNtNtCsl82brYPINY5_4core7default7Default7default
FNDA:0,_RNvMs4_NtNtCsaXXtEBL21yp_18ethereum_da_client36___mock_MockEthereumDaClient_DaClient18___max_blob_per_txnNtB5_6Common5never
FNDA:0,_RINvMs4_NtNtCsaXXtEBL21yp_18ethereum_da_client36___mock_MockEthereumDaClient_DaClient18___max_blob_per_txnNtB6_6Common5withfpEBa_
FNDA:0,_RINvMs4_NtNtCsaXXtEBL21yp_18ethereum_da_client36___mock_MockEthereumDaClient_DaClient18___max_blob_per_txnNtB6_6Common8withf_stpEBa_
FNDA:0,_RINvMs6_NtNtCsaXXtEBL21yp_18ethereum_da_client36___mock_MockEthereumDaClient_DaClient18___max_blob_per_txnNtB6_11Expectation12return_constpEBa_
FNDA:0,_RNCINvMs6_NtNtCsaXXtEBL21yp_18ethereum_da_client36___mock_MockEthereumDaClient_DaClient18___max_blob_per_txnNtB8_11Expectation12return_constpE0Bc_
FNDA:0,_RINvMs6_NtNtCsaXXtEBL21yp_18ethereum_da_client36___mock_MockEthereumDaClient_DaClient18___max_blob_per_txnNtB6_11Expectation15return_const_stpEBa_
FNDA:0,_RNCINvMs6_NtNtCsaXXtEBL21yp_18ethereum_da_client36___mock_MockEthereumDaClient_DaClient18___max_blob_per_txnNtB8_11Expectation15return_const_stpE0Bc_
FNDA:0,_RINvMs6_NtNtCsaXXtEBL21yp_18ethereum_da_client36___mock_MockEthereumDaClient_DaClient18___max_blob_per_txnNtB6_11Expectation11return_oncepEBa_
FNDA:0,_RINvMs6_NtNtCsaXXtEBL21yp_18ethereum_da_client36___mock_MockEthereumDaClient_DaClient18___max_blob_per_txnNtB6_11Expectation14return_once_stpEBa_
FNDA:0,_RINvMs6_NtNtCsaXXtEBL21yp_18ethereum_da_client36___mock_MockEthereumDaClient_DaClient18___max_blob_per_txnNtB6_11Expectation9returningpEBa_
FNDA:0,_RINvMs6_NtNtCsaXXtEBL21yp_18ethereum_da_client36___mock_MockEthereumDaClient_DaClient18___max_blob_per_txnNtB6_11Expectation12returning_stpEBa_
FNDA:0,_RNvMs6_NtNtCsaXXtEBL21yp_18ethereum_da_client36___mock_MockEthereumDaClient_DaClient18___max_blob_per_txnNtB5_11Expectation5never
FNDA:0,_RINvMs6_NtNtCsaXXtEBL21yp_18ethereum_da_client36___mock_MockEthereumDaClient_DaClient18___max_blob_per_txnNtB6_11Expectation5withfpEBa_
FNDA:0,_RINvMs6_NtNtCsaXXtEBL21yp_18ethereum_da_client36___mock_MockEthereumDaClient_DaClient18___max_blob_per_txnNtB6_11Expectation8withf_stpEBa_
FNDA:0,_RNvMs8_NtNtCsaXXtEBL21yp_18ethereum_da_client36___mock_MockEthereumDaClient_DaClient18___max_blob_per_txnNtB5_12Expectations3new
FNDA:0,_RNvXs9_NtNtCsaXXtEBL21yp_18ethereum_da_client36___mock_MockEthereumDaClient_DaClient18___max_blob_per_txnNtB5_12ExpectationsNtNtCsl82brYPINY5_4core7default7Default7default
FNDA:0,_RNvMs4_NtNtCsaXXtEBL21yp_18ethereum_da_client36___mock_MockEthereumDaClient_DaClient20___max_bytes_per_blobNtB5_6Common5never
FNDA:0,_RINvMs4_NtNtCsaXXtEBL21yp_18ethereum_da_client36___mock_MockEthereumDaClient_DaClient20___max_bytes_per_blobNtB6_6Common5withfpEBa_
FNDA:0,_RINvMs4_NtNtCsaXXtEBL21yp_18ethereum_da_client36___mock_MockEthereumDaClient_DaClient20___max_bytes_per_blobNtB6_6Common8withf_stpEBa_
FNDA:0,_RINvMs6_NtNtCsaXXtEBL21yp_18ethereum_da_client36___mock_MockEthereumDaClient_DaClient20___max_bytes_per_blobNtB6_11Expectation12return_constpEBa_
FNDA:0,_RNCINvMs6_NtNtCsaXXtEBL21yp_18ethereum_da_client36___mock_MockEthereumDaClient_DaClient20___max_bytes_per_blobNtB8_11Expectation12return_constpE0Bc_
FNDA:0,_RINvMs6_NtNtCsaXXtEBL21yp_18ethereum_da_client36___mock_MockEthereumDaClient_DaClient20___max_bytes_per_blobNtB6_11Expectation15return_const_stpEBa_
FNDA:0,_RNCINvMs6_NtNtCsaXXtEBL21yp_18ethereum_da_client36___mock_MockEthereumDaClient_DaClient20___max_bytes_per_blobNtB8_11Expectation15return_const_stpE0Bc_
FNDA:0,_RINvMs6_NtNtCsaXXtEBL21yp_18ethereum_da_client36___mock_MockEthereumDaClient_DaClient20___max_bytes_per_blobNtB6_11Expectation11return_oncepEBa_
FNDA:0,_RINvMs6_NtNtCsaXXtEBL21yp_18ethereum_da_client36___mock_MockEthereumDaClient_DaClient20___max_bytes_per_blobNtB6_11Expectation14return_once_stpEBa_
FNDA:0,_RINvMs6_NtNtCsaXXtEBL21yp_18ethereum_da_client36___mock_MockEthereumDaClient_DaClient20___max_bytes_per_blobNtB6_11Expectation9returningpEBa_
FNDA:0,_RINvMs6_NtNtCsaXXtEBL21yp_18ethereum_da_client36___mock_MockEthereumDaClient_DaClient20___max_bytes_per_blobNtB6_11Expectation12returning_stpEBa_
FNDA:0,_RNvMs6_NtNtCsaXXtEBL21yp_18ethereum_da_client36___mock_MockEthereumDaClient_DaClient20___max_bytes_per_blobNtB5_11Expectation5never
FNDA:0,_RINvMs6_NtNtCsaXXtEBL21yp_18ethereum_da_client36___mock_MockEthereumDaClient_DaClient20___max_bytes_per_blobNtB6_11Expectation5withfpEBa_
FNDA:0,_RINvMs6_NtNtCsaXXtEBL21yp_18ethereum_da_client36___mock_MockEthereumDaClient_DaClient20___max_bytes_per_blobNtB6_11Expectation8withf_stpEBa_
FNDA:0,_RNvMs8_NtNtCsaXXtEBL21yp_18ethereum_da_client36___mock_MockEthereumDaClient_DaClient20___max_bytes_per_blobNtB5_12Expectations3new
FNDA:0,_RNvXs9_NtNtCsaXXtEBL21yp_18ethereum_da_client36___mock_MockEthereumDaClient_DaClient20___max_bytes_per_blobNtB5_12ExpectationsNtNtCsl82brYPINY5_4core7default7Default7default
FNDA:0,_RNvXs1_CsaXXtEBL21yp_18ethereum_da_clientNtB5_29MockEthereumDaClient_DaClientNtNtCsl82brYPINY5_4core7default7Default7default
FNDA:0,_RNvMs3_CsaXXtEBL21yp_18ethereum_da_clientNtB5_20MockEthereumDaClient3new
FNF:14
FNH:6
DA:37,0
DA:40,0
DA:41,0
DA:42,0
DA:43,0
DA:44,0
DA:45,0
DA:46,0
DA:47,0
DA:48,0
DA:49,0
DA:50,0
DA:51,0
DA:52,0
DA:53,0
DA:54,0
DA:55,0
DA:56,0
DA:57,0
DA:58,0
DA:59,0
DA:60,0
DA:61,0
DA:62,0
DA:63,0
DA:64,0
DA:65,0
DA:66,0
DA:67,0
DA:68,0
DA:69,0
DA:70,0
DA:71,0
DA:72,0
DA:73,0
DA:74,0
DA:75,0
DA:76,0
DA:77,0
DA:78,0
DA:79,0
DA:80,0
DA:81,0
DA:82,0
DA:83,0
DA:84,0
DA:86,0
DA:87,0
DA:88,0
DA:89,0
DA:90,0
DA:91,0
DA:92,0
DA:93,0
DA:94,0
DA:95,0
DA:96,0
DA:97,0
DA:98,0
DA:99,0
DA:100,0
DA:101,0
DA:103,0
DA:104,0
DA:105,0
DA:107,0
DA:108,0
DA:109,0
DA:113,0
DA:114,0
DA:115,0
DA:116,0
DA:117,0
DA:118,0
DA:119,0
DA:120,0
DA:121,0
DA:122,0
DA:125,1
DA:126,1
DA:127,1
DA:128,1
DA:129,1
DA:130,1
DA:131,1
DA:133,2
DA:134,1
DA:135,1
DA:136,1
DA:137,1
DA:139,1
DA:140,1
DA:142,1
DA:143,1
DA:144,1
DA:147,1
DA:148,1
DA:158,1
DA:159,1
DA:160,1
DA:161,1
DA:162,1
DA:163,1
DA:164,1
DA:165,1
DA:166,1
DA:167,1
DA:168,1
DA:169,1
DA:170,1
DA:171,1
DA:172,1
DA:173,1
DA:174,1
DA:175,1
DA:176,1
DA:177,1
DA:178,1
DA:179,1
DA:180,1
DA:181,1
DA:182,1
DA:183,1
DA:184,1
DA:185,1
DA:186,1
DA:187,1
DA:188,1
DA:189,1
DA:190,1
DA:191,1
DA:192,1
DA:193,1
DA:194,1
DA:195,1
DA:196,1
DA:197,1
DA:198,1
DA:199,1
DA:201,3
DA:202,3
DA:203,262336
DA:204,3
DA:205,3
DA:206,3
DA:207,131168
DA:208,131168
DA:209,131168
DA:210,131168
DA:211,0
DA:214,3
DA:215,3
DA:216,3
DA:218,0
DA:219,0
DA:220,0
DA:221,0
BRF:0
BRH:0
LF:197
LH:113
end_of_record
SF:/Users/ocdbytes/Karnot/madara-orchestrator/crates/orchestrator/src/config.rs
FN:138,_RNvNtCsf72If0ieCLb_12orchestrator6config15build_da_client
FN:149,_RINvNtCsf72If0ieCLb_12orchestrator6config20build_prover_serviceNtNtNtCsgfSEKSKmNaI_5utils8settings7default23DefaultSettingsProviderEB4_
FN:90,_RNvMNtCsf72If0ieCLb_12orchestrator6configNtB2_6Config13prover_client
FN:80,_RNvMNtCsf72If0ieCLb_12orchestrator6configNtB2_6Config15starknet_client
FN:85,_RNvMNtCsf72If0ieCLb_12orchestrator6configNtB2_6Config9da_client
FN:95,_RNvMNtCsf72If0ieCLb_12orchestrator6configNtB2_6Config17settlement_client
FN:128,_RNvNtCsf72If0ieCLb_12orchestrator6config17config_force_init
FN:128,_RNCNvNtCsf72If0ieCLb_12orchestrator6config17config_force_init0B5_
FN:132,_RNCNCNvNtCsf72If0ieCLb_12orchestrator6config17config_force_init00B7_
FN:132,_RNCNCNCNvNtCsf72If0ieCLb_12orchestrator6config17config_force_init000B9_
FN:43,_RNvNtCsf72If0ieCLb_12orchestrator6config11init_config
FN:43,_RNCNvNtCsf72If0ieCLb_12orchestrator6config11init_config0B5_
FN:100,_RNvMNtCsf72If0ieCLb_12orchestrator6configNtB2_6Config8database
FN:105,_RNvMNtCsf72If0ieCLb_12orchestrator6configNtB2_6Config5queue
FN:118,_RNvNtCsf72If0ieCLb_12orchestrator6config6config
FN:118,_RNCNvNtCsf72If0ieCLb_12orchestrator6config6config0B5_
FN:119,_RNCNCNvNtCsf72If0ieCLb_12orchestrator6config6config00B7_
FN:119,_RNCNCNCNvNtCsf72If0ieCLb_12orchestrator6config6config000B9_
FN:157,_RINvNtCsf72If0ieCLb_12orchestrator6config23build_settlement_clientNtNtNtCsgfSEKSKmNaI_5utils8settings7default23DefaultSettingsProviderEB4_
FN:157,_RNCINvNtCsf72If0ieCLb_12orchestrator6config23build_settlement_clientNtNtNtCsgfSEKSKmNaI_5utils8settings7default23DefaultSettingsProviderE0B6_
FN:68,_RNvMNtCsf72If0ieCLb_12orchestrator6configNtB2_6Config3new
FNDA:0,_RNvNtCsf72If0ieCLb_12orchestrator6config15build_da_client
FNDA:0,_RINvNtCsf72If0ieCLb_12orchestrator6config20build_prover_serviceNtNtNtCsgfSEKSKmNaI_5utils8settings7default23DefaultSettingsProviderEB4_
FNDA:2,_RNvMNtCsf72If0ieCLb_12orchestrator6configNtB2_6Config13prover_client
FNDA:285,_RNvMNtCsf72If0ieCLb_12orchestrator6configNtB2_6Config15starknet_client
FNDA:4,_RNvMNtCsf72If0ieCLb_12orchestrator6configNtB2_6Config9da_client
FNDA:6,_RNvMNtCsf72If0ieCLb_12orchestrator6configNtB2_6Config17settlement_client
FNDA:6,_RNvNtCsf72If0ieCLb_12orchestrator6config17config_force_init
FNDA:6,_RNCNvNtCsf72If0ieCLb_12orchestrator6config17config_force_init0B5_
FNDA:6,_RNCNCNvNtCsf72If0ieCLb_12orchestrator6config17config_force_init00B7_
FNDA:6,_RNCNCNCNvNtCsf72If0ieCLb_12orchestrator6config17config_force_init000B9_
FNDA:0,_RNvNtCsf72If0ieCLb_12orchestrator6config11init_config
FNDA:0,_RNCNvNtCsf72If0ieCLb_12orchestrator6config11init_config0B5_
FNDA:55,_RNvMNtCsf72If0ieCLb_12orchestrator6configNtB2_6Config8database
FNDA:24,_RNvMNtCsf72If0ieCLb_12orchestrator6configNtB2_6Config5queue
FNDA:54,_RNvNtCsf72If0ieCLb_12orchestrator6config6config
FNDA:54,_RNCNvNtCsf72If0ieCLb_12orchestrator6config6config0B5_
FNDA:0,_RNCNCNvNtCsf72If0ieCLb_12orchestrator6config6config00B7_
FNDA:0,_RNCNCNCNvNtCsf72If0ieCLb_12orchestrator6config6config000B9_
FNDA:0,_RINvNtCsf72If0ieCLb_12orchestrator6config23build_settlement_clientNtNtNtCsgfSEKSKmNaI_5utils8settings7default23DefaultSettingsProviderEB4_
FNDA:0,_RNCINvNtCsf72If0ieCLb_12orchestrator6config23build_settlement_clientNtNtNtCsgfSEKSKmNaI_5utils8settings7default23DefaultSettingsProviderE0B6_
FNDA:24,_RNvMNtCsf72If0ieCLb_12orchestrator6configNtB2_6Config3new
FNF:21
FNH:13
DA:43,0
DA:44,0
DA:45,0
DA:46,0
DA:47,0
DA:48,0
DA:49,0
DA:52,0
DA:55,0
DA:56,0
DA:57,0
DA:58,0
DA:59,0
DA:60,0
DA:61,0
DA:62,0
DA:63,0
DA:64,0
DA:68,24
DA:69,24
DA:70,24
DA:71,24
DA:72,24
DA:73,24
DA:74,24
DA:75,24
DA:76,24
DA:77,24
DA:80,285
DA:81,285
DA:82,285
DA:85,4
DA:86,4
DA:87,4
DA:90,2
DA:91,2
DA:92,2
DA:95,6
DA:96,6
DA:97,6
DA:100,55
DA:101,55
DA:102,55
DA:105,24
DA:106,24
DA:107,24
DA:118,54
DA:119,54
DA:120,54
DA:121,54
DA:128,6
DA:129,6
DA:130,0
DA:132,6
DA:135,6
DA:138,0
DA:139,0
DA:140,0
DA:141,0
DA:142,0
DA:144,0
DA:146,0
DA:149,0
DA:150,0
DA:151,0
DA:152,0
DA:154,0
DA:157,0
DA:158,0
DA:159,0
DA:160,0
DA:161,0
DA:163,0
BRF:0
BRH:0
LF:81
LH:40
end_of_record
SF:/Users/ocdbytes/Karnot/madara-orchestrator/crates/orchestrator/src/controllers/errors.rs
FN:17,_RNvXNtNtCsf72If0ieCLb_12orchestrator11controllers6errorsNtB2_8AppErrorNtNtNtCsbYlLTpsqcPs_9axum_core8response13into_response12IntoResponse13into_response
FN:8,_RNvXs_NtNtCsf72If0ieCLb_12orchestrator11controllers6errorsNtB4_8AppErrorNtNtCsl82brYPINY5_4core5error5Error6source
FN:8,_RNvXs0_NtNtCsf72If0ieCLb_12orchestrator11controllers6errorsNtB5_8AppErrorNtNtCsl82brYPINY5_4core3fmt7Display3fmt
FN:8,_RNvXs1_NtNtCsf72If0ieCLb_12orchestrator11controllers6errorsNtB5_8AppErrorINtNtCsl82brYPINY5_4core7convert4FromNtCskbCn1Pb5kvX_4eyre6ReportE4from
FNDA:0,_RNvXNtNtCsf72If0ieCLb_12orchestrator11controllers6errorsNtB2_8AppErrorNtNtNtCsbYlLTpsqcPs_9axum_core8response13into_response12IntoResponse13into_response
FNDA:0,_RNvXs_NtNtCsf72If0ieCLb_12orchestrator11controllers6errorsNtB4_8AppErrorNtNtCsl82brYPINY5_4core5error5Error6source
FNDA:0,_RNvXs0_NtNtCsf72If0ieCLb_12orchestrator11controllers6errorsNtB5_8AppErrorNtNtCsl82brYPINY5_4core3fmt7Display3fmt
FNDA:0,_RNvXs1_NtNtCsf72If0ieCLb_12orchestrator11controllers6errorsNtB5_8AppErrorINtNtCsl82brYPINY5_4core7convert4FromNtCskbCn1Pb5kvX_4eyre6ReportE4from
FNF:2
FNH:0
DA:8,0
DA:17,0
DA:18,0
DA:19,0
DA:20,0
DA:21,0
DA:22,0
DA:23,0
BRF:0
BRH:0
LF:8
LH:0
end_of_record
SF:/Users/ocdbytes/Karnot/madara-orchestrator/crates/orchestrator/src/controllers/jobs_controller.rs
FN:10,_RINvXs_NvXNvNtNtCsf72If0ieCLb_12orchestrator11controllers15jobs_controller1__NtBa_16CreateJobRequestNtNtCs6LpWrqowvw4_5serde2de11Deserialize11deserializeNtB5_7___FieldB1A_11deserializeINtNtCs6VgYWKnnD2x_19serde_path_to_error2de10CaptureKeyINtNtCs7GeGMEtFxdc_10serde_json2de6MapKeyNtNtB3U_4read9SliceReadEEEBe_
FN:10,_RINvXs0_NvXNvNtNtCsf72If0ieCLb_12orchestrator11controllers15jobs_controller1__NtBb_16CreateJobRequestNtNtCs6LpWrqowvw4_5serde2de11Deserialize11deserializeNtB6_9___VisitorNtB1D_7Visitor9visit_seqINtNtCs6VgYWKnnD2x_19serde_path_to_error2de9SeqAccessINtNtCs7GeGMEtFxdc_10serde_json2de9SeqAccessNtNtB42_4read9SliceReadEEEBf_
FN:10,_RINvXs0_NvXNvNtNtCsf72If0ieCLb_12orchestrator11controllers15jobs_controller1__NtBb_16CreateJobRequestNtNtCs6LpWrqowvw4_5serde2de11Deserialize11deserializeNtB6_9___VisitorNtB1D_7Visitor9visit_mapINtNtCs6VgYWKnnD2x_19serde_path_to_error2de9MapAccessINtNtCs7GeGMEtFxdc_10serde_json2de9MapAccessNtNtB42_4read9SliceReadEEEBf_
FN:10,_RNvXNvXNvNtNtCsf72If0ieCLb_12orchestrator11controllers15jobs_controller1__NtB7_16CreateJobRequestNtNtCs6LpWrqowvw4_5serde2de11Deserialize11deserializeNtB2_14___FieldVisitorNtB1z_7Visitor9expecting
FN:10,_RINvXNvXNvNtNtCsf72If0ieCLb_12orchestrator11controllers15jobs_controller1__NtB8_16CreateJobRequestNtNtCs6LpWrqowvw4_5serde2de11Deserialize11deserializeNtB3_14___FieldVisitorNtB1A_7Visitor9visit_u64pEBc_
FN:10,_RINvXNvXNvNtNtCsf72If0ieCLb_12orchestrator11controllers15jobs_controller1__NtB8_16CreateJobRequestNtNtCs6LpWrqowvw4_5serde2de11Deserialize11deserializeNtB3_14___FieldVisitorNtB1A_7Visitor11visit_bytespEBc_
FN:21,_RNvNtNtCsf72If0ieCLb_12orchestrator11controllers15jobs_controller10create_job
FN:21,_RNCNvNtNtCsf72If0ieCLb_12orchestrator11controllers15jobs_controller10create_job0B7_
FN:10,_RINvXNvXNvNtNtCsf72If0ieCLb_12orchestrator11controllers15jobs_controller1__NtB8_16CreateJobRequestNtNtCs6LpWrqowvw4_5serde2de11Deserialize11deserializeNtB3_14___FieldVisitorNtB1A_7Visitor9visit_strNtNtCs7GeGMEtFxdc_10serde_json5error5ErrorEBc_
FN:10,_RNvXs0_NvXNvNtNtCsf72If0ieCLb_12orchestrator11controllers15jobs_controller1__NtBa_16CreateJobRequestNtNtCs6LpWrqowvw4_5serde2de11Deserialize11deserializeNtB5_9___VisitorNtB1C_7Visitor9expecting
FNDA:0,_RINvXs_NvXNvNtNtCsf72If0ieCLb_12orchestrator11controllers15jobs_controller1__NtBa_16CreateJobRequestNtNtCs6LpWrqowvw4_5serde2de11Deserialize11deserializeNtB5_7___FieldB1A_11deserializeINtNtCs6VgYWKnnD2x_19serde_path_to_error2de10CaptureKeyINtNtCs7GeGMEtFxdc_10serde_json2de6MapKeyNtNtB3U_4read9SliceReadEEEBe_
FNDA:0,_RINvXs0_NvXNvNtNtCsf72If0ieCLb_12orchestrator11controllers15jobs_controller1__NtBb_16CreateJobRequestNtNtCs6LpWrqowvw4_5serde2de11Deserialize11deserializeNtB6_9___VisitorNtB1D_7Visitor9visit_seqINtNtCs6VgYWKnnD2x_19serde_path_to_error2de9SeqAccessINtNtCs7GeGMEtFxdc_10serde_json2de9SeqAccessNtNtB42_4read9SliceReadEEEBf_
FNDA:0,_RINvXs0_NvXNvNtNtCsf72If0ieCLb_12orchestrator11controllers15jobs_controller1__NtBb_16CreateJobRequestNtNtCs6LpWrqowvw4_5serde2de11Deserialize11deserializeNtB6_9___VisitorNtB1D_7Visitor9visit_mapINtNtCs6VgYWKnnD2x_19serde_path_to_error2de9MapAccessINtNtCs7GeGMEtFxdc_10serde_json2de9MapAccessNtNtB42_4read9SliceReadEEEBf_
FNDA:0,_RNvXNvXNvNtNtCsf72If0ieCLb_12orchestrator11controllers15jobs_controller1__NtB7_16CreateJobRequestNtNtCs6LpWrqowvw4_5serde2de11Deserialize11deserializeNtB2_14___FieldVisitorNtB1z_7Visitor9expecting
FNDA:0,_RINvXNvXNvNtNtCsf72If0ieCLb_12orchestrator11controllers15jobs_controller1__NtB8_16CreateJobRequestNtNtCs6LpWrqowvw4_5serde2de11Deserialize11deserializeNtB3_14___FieldVisitorNtB1A_7Visitor9visit_u64pEBc_
FNDA:0,_RINvXNvXNvNtNtCsf72If0ieCLb_12orchestrator11controllers15jobs_controller1__NtB8_16CreateJobRequestNtNtCs6LpWrqowvw4_5serde2de11Deserialize11deserializeNtB3_14___FieldVisitorNtB1A_7Visitor11visit_bytespEBc_
FNDA:0,_RNvNtNtCsf72If0ieCLb_12orchestrator11controllers15jobs_controller10create_job
FNDA:0,_RNCNvNtNtCsf72If0ieCLb_12orchestrator11controllers15jobs_controller10create_job0B7_
FNDA:0,_RINvXNvXNvNtNtCsf72If0ieCLb_12orchestrator11controllers15jobs_controller1__NtB8_16CreateJobRequestNtNtCs6LpWrqowvw4_5serde2de11Deserialize11deserializeNtB3_14___FieldVisitorNtB1A_7Visitor9visit_strNtNtCs7GeGMEtFxdc_10serde_json5error5ErrorEBc_
FNDA:0,_RNvXs0_NvXNvNtNtCsf72If0ieCLb_12orchestrator11controllers15jobs_controller1__NtBa_16CreateJobRequestNtNtCs6LpWrqowvw4_5serde2de11Deserialize11deserializeNtB5_9___VisitorNtB1C_7Visitor9expecting
FNF:3
FNH:0
DA:10,0
DA:21,0
DA:22,0
DA:23,0
DA:24,0
BRF:0
BRH:0
LF:6
LH:0
end_of_record
SF:/Users/ocdbytes/Karnot/madara-orchestrator/crates/orchestrator/src/data_storage/aws_s3/config.rs
FN:20,_RNvXNtNtNtCsf72If0ieCLb_12orchestrator12data_storage6aws_s36configNtB2_11AWSS3ConfigNtB6_17DataStorageConfig12new_from_env
FNDA:0,_RNvXNtNtNtCsf72If0ieCLb_12orchestrator12data_storage6aws_s36configNtB2_11AWSS3ConfigNtB6_17DataStorageConfig12new_from_env
FNF:1
FNH:0
DA:20,0
DA:21,0
DA:22,0
DA:23,0
DA:24,0
DA:25,0
DA:26,0
DA:27,0
BRF:0
BRH:0
LF:8
LH:0
end_of_record
SF:/Users/ocdbytes/Karnot/madara-orchestrator/crates/orchestrator/src/data_storage/aws_s3/mod.rs
FN:25,_RNvMNtNtCsf72If0ieCLb_12orchestrator12data_storage6aws_s3NtB2_5AWSS33new
FN:25,_RNCNvMNtNtCsf72If0ieCLb_12orchestrator12data_storage6aws_s3NtB4_5AWSS33new0B8_
FN:51,_RNvXs_NtNtCsf72If0ieCLb_12orchestrator12data_storage6aws_s3NtB4_5AWSS3NtB6_11DataStorage8get_data
FN:51,_RNCNvXs_NtNtCsf72If0ieCLb_12orchestrator12data_storage6aws_s3NtB6_5AWSS3NtB8_11DataStorage8get_data0Ba_
FN:59,_RNvXs_NtNtCsf72If0ieCLb_12orchestrator12data_storage6aws_s3NtB4_5AWSS3NtB6_11DataStorage8put_data
FN:59,_RNCNvXs_NtNtCsf72If0ieCLb_12orchestrator12data_storage6aws_s3NtB6_5AWSS3NtB8_11DataStorage8put_data0Ba_
FNDA:0,_RNvMNtNtCsf72If0ieCLb_12orchestrator12data_storage6aws_s3NtB2_5AWSS33new
FNDA:0,_RNCNvMNtNtCsf72If0ieCLb_12orchestrator12data_storage6aws_s3NtB4_5AWSS33new0B8_
FNDA:0,_RNvXs_NtNtCsf72If0ieCLb_12orchestrator12data_storage6aws_s3NtB4_5AWSS3NtB6_11DataStorage8get_data
FNDA:0,_RNCNvXs_NtNtCsf72If0ieCLb_12orchestrator12data_storage6aws_s3NtB6_5AWSS3NtB8_11DataStorage8get_data0Ba_
FNDA:0,_RNvXs_NtNtCsf72If0ieCLb_12orchestrator12data_storage6aws_s3NtB4_5AWSS3NtB6_11DataStorage8put_data
FNDA:0,_RNCNvXs_NtNtCsf72If0ieCLb_12orchestrator12data_storage6aws_s3NtB6_5AWSS3NtB8_11DataStorage8put_data0Ba_
FNF:4
FNH:0
DA:25,0
DA:26,0
DA:27,0
DA:28,0
DA:29,0
DA:30,0
DA:31,0
DA:32,0
DA:33,0
DA:34,0
DA:35,0
DA:36,0
DA:37,0
DA:38,0
DA:39,0
DA:40,0
DA:41,0
DA:42,0
DA:51,0
DA:52,0
DA:53,0
DA:54,0
DA:55,0
DA:56,0
DA:59,0
DA:60,0
DA:61,0
DA:62,0
DA:63,0
DA:64,0
DA:65,0
DA:66,0
DA:67,0
DA:68,0
DA:69,0
DA:70,0
BRF:0
BRH:0
LF:37
LH:0
end_of_record
SF:/Users/ocdbytes/Karnot/madara-orchestrator/crates/orchestrator/src/data_storage/mod.rs
FN:17,_RNvXNtCsf72If0ieCLb_12orchestrator12data_storageNtB2_15MockDataStorageNtNtCsl82brYPINY5_4core3fmt5Debug3fmt
FN:17,_RNvXs_NtCsf72If0ieCLb_12orchestrator12data_storageNtB4_15MockDataStorageNtNtCsl82brYPINY5_4core7default7Default7default
FN:17,_RNvMNtNtNtCsf72If0ieCLb_12orchestrator12data_storage34___mock_MockDataStorage_DataStorage10___get_dataNtB2_5Rfunc8call_mut
FN:17,_RNvXs_NtNtNtCsf72If0ieCLb_12orchestrator12data_storage34___mock_MockDataStorage_DataStorage10___get_dataNtB4_5RfuncNtNtCsl82brYPINY5_4core7default7Default7default
FN:17,_RNvMs0_NtNtNtCsf72If0ieCLb_12orchestrator12data_storage34___mock_MockDataStorage_DataStorage10___get_dataNtB5_7Matcher7matches
FN:17,_RNCNvMs0_NtNtNtCsf72If0ieCLb_12orchestrator12data_storage34___mock_MockDataStorage_DataStorage10___get_dataNtB7_7Matcher7matches0Bd_
FN:17,_RNvXs1_NtNtNtCsf72If0ieCLb_12orchestrator12data_storage34___mock_MockDataStorage_DataStorage10___get_dataNtB5_7MatcherNtNtCsl82brYPINY5_4core7default7Default7default
FN:17,_RNvXs2_NtNtNtCsf72If0ieCLb_12orchestrator12data_storage34___mock_MockDataStorage_DataStorage10___get_dataNtB5_7MatcherNtNtCsl82brYPINY5_4core3fmt7Display3fmt
FN:17,_RNvXs3_NtNtNtCsf72If0ieCLb_12orchestrator12data_storage34___mock_MockDataStorage_DataStorage10___get_dataNtB5_6CommonNtNtCsl82brYPINY5_4core7default7Default7default
FN:17,_RNvMs4_NtNtNtCsf72If0ieCLb_12orchestrator12data_storage34___mock_MockDataStorage_DataStorage10___get_dataNtB5_6Common4call
FN:17,_RNvMs4_NtNtNtCsf72If0ieCLb_12orchestrator12data_storage34___mock_MockDataStorage_DataStorage10___get_dataNtB5_6Common11in_sequence
FN:17,_RNvMs4_NtNtNtCsf72If0ieCLb_12orchestrator12data_storage34___mock_MockDataStorage_DataStorage10___get_dataNtB5_6Common7is_done
FN:17,_RNvMs4_NtNtNtCsf72If0ieCLb_12orchestrator12data_storage34___mock_MockDataStorage_DataStorage10___get_dataNtB5_6Common7matches
FN:17,_RNvMs4_NtNtNtCsf72If0ieCLb_12orchestrator12data_storage34___mock_MockDataStorage_DataStorage10___get_dataNtB5_6Common5never
FN:17,_RNvMs4_NtNtNtCsf72If0ieCLb_12orchestrator12data_storage34___mock_MockDataStorage_DataStorage10___get_dataNtB5_6Common16satisfy_sequence
FN:17,_RINvMs4_NtNtNtCsf72If0ieCLb_12orchestrator12data_storage34___mock_MockDataStorage_DataStorage10___get_dataNtB6_6Common5timespEBc_
FN:17,_RINvMs4_NtNtNtCsf72If0ieCLb_12orchestrator12data_storage34___mock_MockDataStorage_DataStorage10___get_dataNtB6_6Common4withpEBc_
FN:17,_RINvMs4_NtNtNtCsf72If0ieCLb_12orchestrator12data_storage34___mock_MockDataStorage_DataStorage10___get_dataNtB6_6Common5withfpEBc_
FN:17,_RINvMs4_NtNtNtCsf72If0ieCLb_12orchestrator12data_storage34___mock_MockDataStorage_DataStorage10___get_dataNtB6_6Common8withf_stpEBc_
FN:17,_RNvMs4_NtNtNtCsf72If0ieCLb_12orchestrator12data_storage34___mock_MockDataStorage_DataStorage10___get_dataNtB5_6Common15verify_sequence
FN:17,_RNvXs5_NtNtNtCsf72If0ieCLb_12orchestrator12data_storage34___mock_MockDataStorage_DataStorage10___get_dataNtB5_6CommonNtNtNtCsl82brYPINY5_4core3ops4drop4Drop4drop
FN:17,_RNvMs6_NtNtNtCsf72If0ieCLb_12orchestrator12data_storage34___mock_MockDataStorage_DataStorage10___get_dataNtB5_11Expectation4call
FN:17,_RINvMs6_NtNtNtCsf72If0ieCLb_12orchestrator12data_storage34___mock_MockDataStorage_DataStorage10___get_dataNtB6_11Expectation12return_constpEBc_
FN:17,_RNCINvMs6_NtNtNtCsf72If0ieCLb_12orchestrator12data_storage34___mock_MockDataStorage_DataStorage10___get_dataNtB8_11Expectation12return_constpE0Be_
FN:17,_RINvMs6_NtNtNtCsf72If0ieCLb_12orchestrator12data_storage34___mock_MockDataStorage_DataStorage10___get_dataNtB6_11Expectation15return_const_stpEBc_
FN:17,_RNCINvMs6_NtNtNtCsf72If0ieCLb_12orchestrator12data_storage34___mock_MockDataStorage_DataStorage10___get_dataNtB8_11Expectation15return_const_stpE0Be_
FN:17,_RINvMs6_NtNtNtCsf72If0ieCLb_12orchestrator12data_storage34___mock_MockDataStorage_DataStorage10___get_dataNtB6_11Expectation11return_oncepEBc_
FN:17,_RINvMs6_NtNtNtCsf72If0ieCLb_12orchestrator12data_storage34___mock_MockDataStorage_DataStorage10___get_dataNtB6_11Expectation14return_once_stpEBc_
FN:17,_RINvMs6_NtNtNtCsf72If0ieCLb_12orchestrator12data_storage34___mock_MockDataStorage_DataStorage10___get_dataNtB6_11Expectation9returningpEBc_
FN:17,_RINvMs6_NtNtNtCsf72If0ieCLb_12orchestrator12data_storage34___mock_MockDataStorage_DataStorage10___get_dataNtB6_11Expectation12returning_stpEBc_
FN:17,_RNvMs6_NtNtNtCsf72If0ieCLb_12orchestrator12data_storage34___mock_MockDataStorage_DataStorage10___get_dataNtB5_11Expectation11in_sequence
FN:17,_RNvMs6_NtNtNtCsf72If0ieCLb_12orchestrator12data_storage34___mock_MockDataStorage_DataStorage10___get_dataNtB5_11Expectation7is_done
FN:17,_RNvMs6_NtNtNtCsf72If0ieCLb_12orchestrator12data_storage34___mock_MockDataStorage_DataStorage10___get_dataNtB5_11Expectation7matches
FN:17,_RNvMs6_NtNtNtCsf72If0ieCLb_12orchestrator12data_storage34___mock_MockDataStorage_DataStorage10___get_dataNtB5_11Expectation5never
FN:17,_RNvMs6_NtNtNtCsf72If0ieCLb_12orchestrator12data_storage34___mock_MockDataStorage_DataStorage10___get_dataNtB5_11Expectation3new
FN:17,_RNvMs6_NtNtNtCsf72If0ieCLb_12orchestrator12data_storage34___mock_MockDataStorage_DataStorage10___get_dataNtB5_11Expectation4once
FN:17,_RINvMs6_NtNtNtCsf72If0ieCLb_12orchestrator12data_storage34___mock_MockDataStorage_DataStorage10___get_dataNtB6_11Expectation5timespEBc_
FN:17,_RINvMs6_NtNtNtCsf72If0ieCLb_12orchestrator12data_storage34___mock_MockDataStorage_DataStorage10___get_dataNtB6_11Expectation4withpEBc_
FN:17,_RINvMs6_NtNtNtCsf72If0ieCLb_12orchestrator12data_storage34___mock_MockDataStorage_DataStorage10___get_dataNtB6_11Expectation5withfpEBc_
FN:17,_RINvMs6_NtNtNtCsf72If0ieCLb_12orchestrator12data_storage34___mock_MockDataStorage_DataStorage10___get_dataNtB6_11Expectation8withf_stpEBc_
FN:17,_RNvXs7_NtNtNtCsf72If0ieCLb_12orchestrator12data_storage34___mock_MockDataStorage_DataStorage10___get_dataNtB5_11ExpectationNtNtCsl82brYPINY5_4core7default7Default7default
FN:17,_RNvMs8_NtNtNtCsf72If0ieCLb_12orchestrator12data_storage34___mock_MockDataStorage_DataStorage10___get_dataNtB5_12Expectations10checkpoint
FN:17,_RNvMs8_NtNtNtCsf72If0ieCLb_12orchestrator12data_storage34___mock_MockDataStorage_DataStorage10___get_dataNtB5_12Expectations6expect
FN:17,_RNvMs8_NtNtNtCsf72If0ieCLb_12orchestrator12data_storage34___mock_MockDataStorage_DataStorage10___get_dataNtB5_12Expectations3new
FN:17,_RNvXs9_NtNtNtCsf72If0ieCLb_12orchestrator12data_storage34___mock_MockDataStorage_DataStorage10___get_dataNtB5_12ExpectationsNtNtCsl82brYPINY5_4core7default7Default7default
FN:17,_RNvMsa_NtNtNtCsf72If0ieCLb_12orchestrator12data_storage34___mock_MockDataStorage_DataStorage10___get_dataNtB5_12Expectations4call
FN:17,_RNCNvMsa_NtNtNtCsf72If0ieCLb_12orchestrator12data_storage34___mock_MockDataStorage_DataStorage10___get_dataNtB7_12Expectations4call0Bd_
FN:17,_RNCNvMsa_NtNtNtCsf72If0ieCLb_12orchestrator12data_storage34___mock_MockDataStorage_DataStorage10___get_dataNtB7_12Expectations4calls_0Bd_
FN:17,_RNvMNtNtNtCsf72If0ieCLb_12orchestrator12data_storage34___mock_MockDataStorage_DataStorage10___put_dataNtB2_5Rfunc8call_mut
FN:17,_RNvXs_NtNtNtCsf72If0ieCLb_12orchestrator12data_storage34___mock_MockDataStorage_DataStorage10___put_dataNtB4_5RfuncNtNtCsl82brYPINY5_4core7default7Default7default
FN:17,_RNvMs0_NtNtNtCsf72If0ieCLb_12orchestrator12data_storage34___mock_MockDataStorage_DataStorage10___put_dataNtB5_7Matcher7matches
FN:17,_RNCNvMs0_NtNtNtCsf72If0ieCLb_12orchestrator12data_storage34___mock_MockDataStorage_DataStorage10___put_dataNtB7_7Matcher7matches0Bd_
FN:17,_RNvXs1_NtNtNtCsf72If0ieCLb_12orchestrator12data_storage34___mock_MockDataStorage_DataStorage10___put_dataNtB5_7MatcherNtNtCsl82brYPINY5_4core7default7Default7default
FN:17,_RNvXs2_NtNtNtCsf72If0ieCLb_12orchestrator12data_storage34___mock_MockDataStorage_DataStorage10___put_dataNtB5_7MatcherNtNtCsl82brYPINY5_4core3fmt7Display3fmt
FN:17,_RNvXs3_NtNtNtCsf72If0ieCLb_12orchestrator12data_storage34___mock_MockDataStorage_DataStorage10___put_dataNtB5_6CommonNtNtCsl82brYPINY5_4core7default7Default7default
FN:17,_RNvMs4_NtNtNtCsf72If0ieCLb_12orchestrator12data_storage34___mock_MockDataStorage_DataStorage10___put_dataNtB5_6Common4call
FN:17,_RNvMs4_NtNtNtCsf72If0ieCLb_12orchestrator12data_storage34___mock_MockDataStorage_DataStorage10___put_dataNtB5_6Common11in_sequence
FN:17,_RNvMs4_NtNtNtCsf72If0ieCLb_12orchestrator12data_storage34___mock_MockDataStorage_DataStorage10___put_dataNtB5_6Common7is_done
FN:17,_RNvMs4_NtNtNtCsf72If0ieCLb_12orchestrator12data_storage34___mock_MockDataStorage_DataStorage10___put_dataNtB5_6Common7matches
FN:17,_RNvMs4_NtNtNtCsf72If0ieCLb_12orchestrator12data_storage34___mock_MockDataStorage_DataStorage10___put_dataNtB5_6Common5never
FN:17,_RNvMs4_NtNtNtCsf72If0ieCLb_12orchestrator12data_storage34___mock_MockDataStorage_DataStorage10___put_dataNtB5_6Common16satisfy_sequence
FN:17,_RINvMs4_NtNtNtCsf72If0ieCLb_12orchestrator12data_storage34___mock_MockDataStorage_DataStorage10___put_dataNtB6_6Common5timespEBc_
FN:17,_RINvMs4_NtNtNtCsf72If0ieCLb_12orchestrator12data_storage34___mock_MockDataStorage_DataStorage10___put_dataNtB6_6Common4withppEBc_
FN:17,_RINvMs4_NtNtNtCsf72If0ieCLb_12orchestrator12data_storage34___mock_MockDataStorage_DataStorage10___put_dataNtB6_6Common5withfpEBc_
FN:17,_RINvMs4_NtNtNtCsf72If0ieCLb_12orchestrator12data_storage34___mock_MockDataStorage_DataStorage10___put_dataNtB6_6Common8withf_stpEBc_
FN:17,_RNvMs4_NtNtNtCsf72If0ieCLb_12orchestrator12data_storage34___mock_MockDataStorage_DataStorage10___put_dataNtB5_6Common15verify_sequence
FN:17,_RNvXs5_NtNtNtCsf72If0ieCLb_12orchestrator12data_storage34___mock_MockDataStorage_DataStorage10___put_dataNtB5_6CommonNtNtNtCsl82brYPINY5_4core3ops4drop4Drop4drop
FN:17,_RNvMs6_NtNtNtCsf72If0ieCLb_12orchestrator12data_storage34___mock_MockDataStorage_DataStorage10___put_dataNtB5_11Expectation4call
FN:17,_RINvMs6_NtNtNtCsf72If0ieCLb_12orchestrator12data_storage34___mock_MockDataStorage_DataStorage10___put_dataNtB6_11Expectation12return_constpEBc_
FN:17,_RNCINvMs6_NtNtNtCsf72If0ieCLb_12orchestrator12data_storage34___mock_MockDataStorage_DataStorage10___put_dataNtB8_11Expectation12return_constpE0Be_
FN:17,_RINvMs6_NtNtNtCsf72If0ieCLb_12orchestrator12data_storage34___mock_MockDataStorage_DataStorage10___put_dataNtB6_11Expectation15return_const_stpEBc_
FN:17,_RNCINvMs6_NtNtNtCsf72If0ieCLb_12orchestrator12data_storage34___mock_MockDataStorage_DataStorage10___put_dataNtB8_11Expectation15return_const_stpE0Be_
FN:17,_RINvMs6_NtNtNtCsf72If0ieCLb_12orchestrator12data_storage34___mock_MockDataStorage_DataStorage10___put_dataNtB6_11Expectation11return_oncepEBc_
FN:17,_RINvMs6_NtNtNtCsf72If0ieCLb_12orchestrator12data_storage34___mock_MockDataStorage_DataStorage10___put_dataNtB6_11Expectation14return_once_stpEBc_
FN:17,_RINvMs6_NtNtNtCsf72If0ieCLb_12orchestrator12data_storage34___mock_MockDataStorage_DataStorage10___put_dataNtB6_11Expectation9returningpEBc_
FN:17,_RINvMs6_NtNtNtCsf72If0ieCLb_12orchestrator12data_storage34___mock_MockDataStorage_DataStorage10___put_dataNtB6_11Expectation12returning_stpEBc_
FN:17,_RNvMs6_NtNtNtCsf72If0ieCLb_12orchestrator12data_storage34___mock_MockDataStorage_DataStorage10___put_dataNtB5_11Expectation11in_sequence
FN:17,_RNvMs6_NtNtNtCsf72If0ieCLb_12orchestrator12data_storage34___mock_MockDataStorage_DataStorage10___put_dataNtB5_11Expectation7is_done
FN:17,_RNvMs6_NtNtNtCsf72If0ieCLb_12orchestrator12data_storage34___mock_MockDataStorage_DataStorage10___put_dataNtB5_11Expectation7matches
FN:17,_RNvMs6_NtNtNtCsf72If0ieCLb_12orchestrator12data_storage34___mock_MockDataStorage_DataStorage10___put_dataNtB5_11Expectation5never
FN:17,_RNvMs6_NtNtNtCsf72If0ieCLb_12orchestrator12data_storage34___mock_MockDataStorage_DataStorage10___put_dataNtB5_11Expectation3new
FN:17,_RNvMs6_NtNtNtCsf72If0ieCLb_12orchestrator12data_storage34___mock_MockDataStorage_DataStorage10___put_dataNtB5_11Expectation4once
FN:17,_RINvMs6_NtNtNtCsf72If0ieCLb_12orchestrator12data_storage34___mock_MockDataStorage_DataStorage10___put_dataNtB6_11Expectation5timespEBc_
FN:17,_RINvMs6_NtNtNtCsf72If0ieCLb_12orchestrator12data_storage34___mock_MockDataStorage_DataStorage10___put_dataNtB6_11Expectation4withppEBc_
FN:17,_RINvMs6_NtNtNtCsf72If0ieCLb_12orchestrator12data_storage34___mock_MockDataStorage_DataStorage10___put_dataNtB6_11Expectation5withfpEBc_
FN:17,_RINvMs6_NtNtNtCsf72If0ieCLb_12orchestrator12data_storage34___mock_MockDataStorage_DataStorage10___put_dataNtB6_11Expectation8withf_stpEBc_
FN:17,_RNvXs7_NtNtNtCsf72If0ieCLb_12orchestrator12data_storage34___mock_MockDataStorage_DataStorage10___put_dataNtB5_11ExpectationNtNtCsl82brYPINY5_4core7default7Default7default
FN:17,_RNvMs8_NtNtNtCsf72If0ieCLb_12orchestrator12data_storage34___mock_MockDataStorage_DataStorage10___put_dataNtB5_12Expectations10checkpoint
FN:17,_RNvMs8_NtNtNtCsf72If0ieCLb_12orchestrator12data_storage34___mock_MockDataStorage_DataStorage10___put_dataNtB5_12Expectations6expect
FN:17,_RNvMs8_NtNtNtCsf72If0ieCLb_12orchestrator12data_storage34___mock_MockDataStorage_DataStorage10___put_dataNtB5_12Expectations3new
FN:17,_RNvXs9_NtNtNtCsf72If0ieCLb_12orchestrator12data_storage34___mock_MockDataStorage_DataStorage10___put_dataNtB5_12ExpectationsNtNtCsl82brYPINY5_4core7default7Default7default
FN:17,_RNvMsa_NtNtNtCsf72If0ieCLb_12orchestrator12data_storage34___mock_MockDataStorage_DataStorage10___put_dataNtB5_12Expectations4call
FN:17,_RNCNvMsa_NtNtNtCsf72If0ieCLb_12orchestrator12data_storage34___mock_MockDataStorage_DataStorage10___put_dataNtB7_12Expectations4call0Bd_
FN:17,_RNCNvMsa_NtNtNtCsf72If0ieCLb_12orchestrator12data_storage34___mock_MockDataStorage_DataStorage10___put_dataNtB7_12Expectations4calls_0Bd_
FN:17,_RNvXs0_NtCsf72If0ieCLb_12orchestrator12data_storageNtB5_27MockDataStorage_DataStorageNtNtCsl82brYPINY5_4core7default7Default7default
FN:17,_RNvMs1_NtCsf72If0ieCLb_12orchestrator12data_storageNtB5_27MockDataStorage_DataStorage10checkpoint
FN:17,_RNvMs2_NtCsf72If0ieCLb_12orchestrator12data_storageNtB5_15MockDataStorage10checkpoint
FN:17,_RNvMs2_NtCsf72If0ieCLb_12orchestrator12data_storageNtB5_15MockDataStorage3new
FN:17,_RNvXs4_NtCsf72If0ieCLb_12orchestrator12data_storageNtB5_15MockDataStorageNtB5_11DataStorage8get_data
FN:17,_RNCNvXs4_NtCsf72If0ieCLb_12orchestrator12data_storageNtB7_15MockDataStorageNtB7_11DataStorage8get_data0B9_
FN:17,_RNvXs4_NtCsf72If0ieCLb_12orchestrator12data_storageNtB5_15MockDataStorageNtB5_11DataStorage8put_data
FN:17,_RNCNvXs4_NtCsf72If0ieCLb_12orchestrator12data_storageNtB7_15MockDataStorageNtB7_11DataStorage8put_data0B9_
FN:17,_RNvMs3_NtCsf72If0ieCLb_12orchestrator12data_storageNtB5_15MockDataStorage15expect_get_data
FN:17,_RNvMs3_NtCsf72If0ieCLb_12orchestrator12data_storageNtB5_15MockDataStorage15expect_put_data
FNDA:0,_RNvXNtCsf72If0ieCLb_12orchestrator12data_storageNtB2_15MockDataStorageNtNtCsl82brYPINY5_4core3fmt5Debug3fmt
FNDA:0,_RNvXs_NtCsf72If0ieCLb_12orchestrator12data_storageNtB4_15MockDataStorageNtNtCsl82brYPINY5_4core7default7Default7default
FNDA:0,_RNvMNtNtNtCsf72If0ieCLb_12orchestrator12data_storage34___mock_MockDataStorage_DataStorage10___get_dataNtB2_5Rfunc8call_mut
FNDA:0,_RNvXs_NtNtNtCsf72If0ieCLb_12orchestrator12data_storage34___mock_MockDataStorage_DataStorage10___get_dataNtB4_5RfuncNtNtCsl82brYPINY5_4core7default7Default7default
FNDA:0,_RNvMs0_NtNtNtCsf72If0ieCLb_12orchestrator12data_storage34___mock_MockDataStorage_DataStorage10___get_dataNtB5_7Matcher7matches
FNDA:0,_RNCNvMs0_NtNtNtCsf72If0ieCLb_12orchestrator12data_storage34___mock_MockDataStorage_DataStorage10___get_dataNtB7_7Matcher7matches0Bd_
FNDA:0,_RNvXs1_NtNtNtCsf72If0ieCLb_12orchestrator12data_storage34___mock_MockDataStorage_DataStorage10___get_dataNtB5_7MatcherNtNtCsl82brYPINY5_4core7default7Default7default
FNDA:0,_RNvXs2_NtNtNtCsf72If0ieCLb_12orchestrator12data_storage34___mock_MockDataStorage_DataStorage10___get_dataNtB5_7MatcherNtNtCsl82brYPINY5_4core3fmt7Display3fmt
FNDA:0,_RNvXs3_NtNtNtCsf72If0ieCLb_12orchestrator12data_storage34___mock_MockDataStorage_DataStorage10___get_dataNtB5_6CommonNtNtCsl82brYPINY5_4core7default7Default7default
FNDA:0,_RNvMs4_NtNtNtCsf72If0ieCLb_12orchestrator12data_storage34___mock_MockDataStorage_DataStorage10___get_dataNtB5_6Common4call
FNDA:0,_RNvMs4_NtNtNtCsf72If0ieCLb_12orchestrator12data_storage34___mock_MockDataStorage_DataStorage10___get_dataNtB5_6Common11in_sequence
FNDA:0,_RNvMs4_NtNtNtCsf72If0ieCLb_12orchestrator12data_storage34___mock_MockDataStorage_DataStorage10___get_dataNtB5_6Common7is_done
FNDA:0,_RNvMs4_NtNtNtCsf72If0ieCLb_12orchestrator12data_storage34___mock_MockDataStorage_DataStorage10___get_dataNtB5_6Common7matches
FNDA:0,_RNvMs4_NtNtNtCsf72If0ieCLb_12orchestrator12data_storage34___mock_MockDataStorage_DataStorage10___get_dataNtB5_6Common5never
FNDA:0,_RNvMs4_NtNtNtCsf72If0ieCLb_12orchestrator12data_storage34___mock_MockDataStorage_DataStorage10___get_dataNtB5_6Common16satisfy_sequence
FNDA:0,_RINvMs4_NtNtNtCsf72If0ieCLb_12orchestrator12data_storage34___mock_MockDataStorage_DataStorage10___get_dataNtB6_6Common5timespEBc_
FNDA:0,_RINvMs4_NtNtNtCsf72If0ieCLb_12orchestrator12data_storage34___mock_MockDataStorage_DataStorage10___get_dataNtB6_6Common4withpEBc_
FNDA:0,_RINvMs4_NtNtNtCsf72If0ieCLb_12orchestrator12data_storage34___mock_MockDataStorage_DataStorage10___get_dataNtB6_6Common5withfpEBc_
FNDA:0,_RINvMs4_NtNtNtCsf72If0ieCLb_12orchestrator12data_storage34___mock_MockDataStorage_DataStorage10___get_dataNtB6_6Common8withf_stpEBc_
FNDA:0,_RNvMs4_NtNtNtCsf72If0ieCLb_12orchestrator12data_storage34___mock_MockDataStorage_DataStorage10___get_dataNtB5_6Common15verify_sequence
FNDA:0,_RNvXs5_NtNtNtCsf72If0ieCLb_12orchestrator12data_storage34___mock_MockDataStorage_DataStorage10___get_dataNtB5_6CommonNtNtNtCsl82brYPINY5_4core3ops4drop4Drop4drop
FNDA:0,_RNvMs6_NtNtNtCsf72If0ieCLb_12orchestrator12data_storage34___mock_MockDataStorage_DataStorage10___get_dataNtB5_11Expectation4call
FNDA:0,_RINvMs6_NtNtNtCsf72If0ieCLb_12orchestrator12data_storage34___mock_MockDataStorage_DataStorage10___get_dataNtB6_11Expectation12return_constpEBc_
FNDA:0,_RNCINvMs6_NtNtNtCsf72If0ieCLb_12orchestrator12data_storage34___mock_MockDataStorage_DataStorage10___get_dataNtB8_11Expectation12return_constpE0Be_
FNDA:0,_RINvMs6_NtNtNtCsf72If0ieCLb_12orchestrator12data_storage34___mock_MockDataStorage_DataStorage10___get_dataNtB6_11Expectation15return_const_stpEBc_
FNDA:0,_RNCINvMs6_NtNtNtCsf72If0ieCLb_12orchestrator12data_storage34___mock_MockDataStorage_DataStorage10___get_dataNtB8_11Expectation15return_const_stpE0Be_
FNDA:0,_RINvMs6_NtNtNtCsf72If0ieCLb_12orchestrator12data_storage34___mock_MockDataStorage_DataStorage10___get_dataNtB6_11Expectation11return_oncepEBc_
FNDA:0,_RINvMs6_NtNtNtCsf72If0ieCLb_12orchestrator12data_storage34___mock_MockDataStorage_DataStorage10___get_dataNtB6_11Expectation14return_once_stpEBc_
FNDA:0,_RINvMs6_NtNtNtCsf72If0ieCLb_12orchestrator12data_storage34___mock_MockDataStorage_DataStorage10___get_dataNtB6_11Expectation9returningpEBc_
FNDA:0,_RINvMs6_NtNtNtCsf72If0ieCLb_12orchestrator12data_storage34___mock_MockDataStorage_DataStorage10___get_dataNtB6_11Expectation12returning_stpEBc_
FNDA:0,_RNvMs6_NtNtNtCsf72If0ieCLb_12orchestrator12data_storage34___mock_MockDataStorage_DataStorage10___get_dataNtB5_11Expectation11in_sequence
FNDA:0,_RNvMs6_NtNtNtCsf72If0ieCLb_12orchestrator12data_storage34___mock_MockDataStorage_DataStorage10___get_dataNtB5_11Expectation7is_done
FNDA:0,_RNvMs6_NtNtNtCsf72If0ieCLb_12orchestrator12data_storage34___mock_MockDataStorage_DataStorage10___get_dataNtB5_11Expectation7matches
FNDA:0,_RNvMs6_NtNtNtCsf72If0ieCLb_12orchestrator12data_storage34___mock_MockDataStorage_DataStorage10___get_dataNtB5_11Expectation5never
FNDA:0,_RNvMs6_NtNtNtCsf72If0ieCLb_12orchestrator12data_storage34___mock_MockDataStorage_DataStorage10___get_dataNtB5_11Expectation3new
FNDA:0,_RNvMs6_NtNtNtCsf72If0ieCLb_12orchestrator12data_storage34___mock_MockDataStorage_DataStorage10___get_dataNtB5_11Expectation4once
FNDA:0,_RINvMs6_NtNtNtCsf72If0ieCLb_12orchestrator12data_storage34___mock_MockDataStorage_DataStorage10___get_dataNtB6_11Expectation5timespEBc_
FNDA:0,_RINvMs6_NtNtNtCsf72If0ieCLb_12orchestrator12data_storage34___mock_MockDataStorage_DataStorage10___get_dataNtB6_11Expectation4withpEBc_
FNDA:0,_RINvMs6_NtNtNtCsf72If0ieCLb_12orchestrator12data_storage34___mock_MockDataStorage_DataStorage10___get_dataNtB6_11Expectation5withfpEBc_
FNDA:0,_RINvMs6_NtNtNtCsf72If0ieCLb_12orchestrator12data_storage34___mock_MockDataStorage_DataStorage10___get_dataNtB6_11Expectation8withf_stpEBc_
FNDA:0,_RNvXs7_NtNtNtCsf72If0ieCLb_12orchestrator12data_storage34___mock_MockDataStorage_DataStorage10___get_dataNtB5_11ExpectationNtNtCsl82brYPINY5_4core7default7Default7default
FNDA:0,_RNvMs8_NtNtNtCsf72If0ieCLb_12orchestrator12data_storage34___mock_MockDataStorage_DataStorage10___get_dataNtB5_12Expectations10checkpoint
FNDA:0,_RNvMs8_NtNtNtCsf72If0ieCLb_12orchestrator12data_storage34___mock_MockDataStorage_DataStorage10___get_dataNtB5_12Expectations6expect
FNDA:0,_RNvMs8_NtNtNtCsf72If0ieCLb_12orchestrator12data_storage34___mock_MockDataStorage_DataStorage10___get_dataNtB5_12Expectations3new
FNDA:0,_RNvXs9_NtNtNtCsf72If0ieCLb_12orchestrator12data_storage34___mock_MockDataStorage_DataStorage10___get_dataNtB5_12ExpectationsNtNtCsl82brYPINY5_4core7default7Default7default
FNDA:0,_RNvMsa_NtNtNtCsf72If0ieCLb_12orchestrator12data_storage34___mock_MockDataStorage_DataStorage10___get_dataNtB5_12Expectations4call
FNDA:0,_RNCNvMsa_NtNtNtCsf72If0ieCLb_12orchestrator12data_storage34___mock_MockDataStorage_DataStorage10___get_dataNtB7_12Expectations4call0Bd_
FNDA:0,_RNCNvMsa_NtNtNtCsf72If0ieCLb_12orchestrator12data_storage34___mock_MockDataStorage_DataStorage10___get_dataNtB7_12Expectations4calls_0Bd_
FNDA:0,_RNvMNtNtNtCsf72If0ieCLb_12orchestrator12data_storage34___mock_MockDataStorage_DataStorage10___put_dataNtB2_5Rfunc8call_mut
FNDA:0,_RNvXs_NtNtNtCsf72If0ieCLb_12orchestrator12data_storage34___mock_MockDataStorage_DataStorage10___put_dataNtB4_5RfuncNtNtCsl82brYPINY5_4core7default7Default7default
FNDA:0,_RNvMs0_NtNtNtCsf72If0ieCLb_12orchestrator12data_storage34___mock_MockDataStorage_DataStorage10___put_dataNtB5_7Matcher7matches
FNDA:0,_RNCNvMs0_NtNtNtCsf72If0ieCLb_12orchestrator12data_storage34___mock_MockDataStorage_DataStorage10___put_dataNtB7_7Matcher7matches0Bd_
FNDA:0,_RNvXs1_NtNtNtCsf72If0ieCLb_12orchestrator12data_storage34___mock_MockDataStorage_DataStorage10___put_dataNtB5_7MatcherNtNtCsl82brYPINY5_4core7default7Default7default
FNDA:0,_RNvXs2_NtNtNtCsf72If0ieCLb_12orchestrator12data_storage34___mock_MockDataStorage_DataStorage10___put_dataNtB5_7MatcherNtNtCsl82brYPINY5_4core3fmt7Display3fmt
FNDA:0,_RNvXs3_NtNtNtCsf72If0ieCLb_12orchestrator12data_storage34___mock_MockDataStorage_DataStorage10___put_dataNtB5_6CommonNtNtCsl82brYPINY5_4core7default7Default7default
FNDA:0,_RNvMs4_NtNtNtCsf72If0ieCLb_12orchestrator12data_storage34___mock_MockDataStorage_DataStorage10___put_dataNtB5_6Common4call
FNDA:0,_RNvMs4_NtNtNtCsf72If0ieCLb_12orchestrator12data_storage34___mock_MockDataStorage_DataStorage10___put_dataNtB5_6Common11in_sequence
FNDA:0,_RNvMs4_NtNtNtCsf72If0ieCLb_12orchestrator12data_storage34___mock_MockDataStorage_DataStorage10___put_dataNtB5_6Common7is_done
FNDA:0,_RNvMs4_NtNtNtCsf72If0ieCLb_12orchestrator12data_storage34___mock_MockDataStorage_DataStorage10___put_dataNtB5_6Common7matches
FNDA:0,_RNvMs4_NtNtNtCsf72If0ieCLb_12orchestrator12data_storage34___mock_MockDataStorage_DataStorage10___put_dataNtB5_6Common5never
FNDA:0,_RNvMs4_NtNtNtCsf72If0ieCLb_12orchestrator12data_storage34___mock_MockDataStorage_DataStorage10___put_dataNtB5_6Common16satisfy_sequence
FNDA:0,_RINvMs4_NtNtNtCsf72If0ieCLb_12orchestrator12data_storage34___mock_MockDataStorage_DataStorage10___put_dataNtB6_6Common5timespEBc_
FNDA:0,_RINvMs4_NtNtNtCsf72If0ieCLb_12orchestrator12data_storage34___mock_MockDataStorage_DataStorage10___put_dataNtB6_6Common4withppEBc_
FNDA:0,_RINvMs4_NtNtNtCsf72If0ieCLb_12orchestrator12data_storage34___mock_MockDataStorage_DataStorage10___put_dataNtB6_6Common5withfpEBc_
FNDA:0,_RINvMs4_NtNtNtCsf72If0ieCLb_12orchestrator12data_storage34___mock_MockDataStorage_DataStorage10___put_dataNtB6_6Common8withf_stpEBc_
FNDA:0,_RNvMs4_NtNtNtCsf72If0ieCLb_12orchestrator12data_storage34___mock_MockDataStorage_DataStorage10___put_dataNtB5_6Common15verify_sequence
FNDA:0,_RNvXs5_NtNtNtCsf72If0ieCLb_12orchestrator12data_storage34___mock_MockDataStorage_DataStorage10___put_dataNtB5_6CommonNtNtNtCsl82brYPINY5_4core3ops4drop4Drop4drop
FNDA:0,_RNvMs6_NtNtNtCsf72If0ieCLb_12orchestrator12data_storage34___mock_MockDataStorage_DataStorage10___put_dataNtB5_11Expectation4call
FNDA:0,_RINvMs6_NtNtNtCsf72If0ieCLb_12orchestrator12data_storage34___mock_MockDataStorage_DataStorage10___put_dataNtB6_11Expectation12return_constpEBc_
FNDA:0,_RNCINvMs6_NtNtNtCsf72If0ieCLb_12orchestrator12data_storage34___mock_MockDataStorage_DataStorage10___put_dataNtB8_11Expectation12return_constpE0Be_
FNDA:0,_RINvMs6_NtNtNtCsf72If0ieCLb_12orchestrator12data_storage34___mock_MockDataStorage_DataStorage10___put_dataNtB6_11Expectation15return_const_stpEBc_
FNDA:0,_RNCINvMs6_NtNtNtCsf72If0ieCLb_12orchestrator12data_storage34___mock_MockDataStorage_DataStorage10___put_dataNtB8_11Expectation15return_const_stpE0Be_
FNDA:0,_RINvMs6_NtNtNtCsf72If0ieCLb_12orchestrator12data_storage34___mock_MockDataStorage_DataStorage10___put_dataNtB6_11Expectation11return_oncepEBc_
FNDA:0,_RINvMs6_NtNtNtCsf72If0ieCLb_12orchestrator12data_storage34___mock_MockDataStorage_DataStorage10___put_dataNtB6_11Expectation14return_once_stpEBc_
FNDA:0,_RINvMs6_NtNtNtCsf72If0ieCLb_12orchestrator12data_storage34___mock_MockDataStorage_DataStorage10___put_dataNtB6_11Expectation9returningpEBc_
FNDA:0,_RINvMs6_NtNtNtCsf72If0ieCLb_12orchestrator12data_storage34___mock_MockDataStorage_DataStorage10___put_dataNtB6_11Expectation12returning_stpEBc_
FNDA:0,_RNvMs6_NtNtNtCsf72If0ieCLb_12orchestrator12data_storage34___mock_MockDataStorage_DataStorage10___put_dataNtB5_11Expectation11in_sequence
FNDA:0,_RNvMs6_NtNtNtCsf72If0ieCLb_12orchestrator12data_storage34___mock_MockDataStorage_DataStorage10___put_dataNtB5_11Expectation7is_done
FNDA:0,_RNvMs6_NtNtNtCsf72If0ieCLb_12orchestrator12data_storage34___mock_MockDataStorage_DataStorage10___put_dataNtB5_11Expectation7matches
FNDA:0,_RNvMs6_NtNtNtCsf72If0ieCLb_12orchestrator12data_storage34___mock_MockDataStorage_DataStorage10___put_dataNtB5_11Expectation5never
FNDA:0,_RNvMs6_NtNtNtCsf72If0ieCLb_12orchestrator12data_storage34___mock_MockDataStorage_DataStorage10___put_dataNtB5_11Expectation3new
FNDA:0,_RNvMs6_NtNtNtCsf72If0ieCLb_12orchestrator12data_storage34___mock_MockDataStorage_DataStorage10___put_dataNtB5_11Expectation4once
FNDA:0,_RINvMs6_NtNtNtCsf72If0ieCLb_12orchestrator12data_storage34___mock_MockDataStorage_DataStorage10___put_dataNtB6_11Expectation5timespEBc_
FNDA:0,_RINvMs6_NtNtNtCsf72If0ieCLb_12orchestrator12data_storage34___mock_MockDataStorage_DataStorage10___put_dataNtB6_11Expectation4withppEBc_
FNDA:0,_RINvMs6_NtNtNtCsf72If0ieCLb_12orchestrator12data_storage34___mock_MockDataStorage_DataStorage10___put_dataNtB6_11Expectation5withfpEBc_
FNDA:0,_RINvMs6_NtNtNtCsf72If0ieCLb_12orchestrator12data_storage34___mock_MockDataStorage_DataStorage10___put_dataNtB6_11Expectation8withf_stpEBc_
FNDA:0,_RNvXs7_NtNtNtCsf72If0ieCLb_12orchestrator12data_storage34___mock_MockDataStorage_DataStorage10___put_dataNtB5_11ExpectationNtNtCsl82brYPINY5_4core7default7Default7default
FNDA:0,_RNvMs8_NtNtNtCsf72If0ieCLb_12orchestrator12data_storage34___mock_MockDataStorage_DataStorage10___put_dataNtB5_12Expectations10checkpoint
FNDA:0,_RNvMs8_NtNtNtCsf72If0ieCLb_12orchestrator12data_storage34___mock_MockDataStorage_DataStorage10___put_dataNtB5_12Expectations6expect
FNDA:0,_RNvMs8_NtNtNtCsf72If0ieCLb_12orchestrator12data_storage34___mock_MockDataStorage_DataStorage10___put_dataNtB5_12Expectations3new
FNDA:0,_RNvXs9_NtNtNtCsf72If0ieCLb_12orchestrator12data_storage34___mock_MockDataStorage_DataStorage10___put_dataNtB5_12ExpectationsNtNtCsl82brYPINY5_4core7default7Default7default
FNDA:0,_RNvMsa_NtNtNtCsf72If0ieCLb_12orchestrator12data_storage34___mock_MockDataStorage_DataStorage10___put_dataNtB5_12Expectations4call
FNDA:0,_RNCNvMsa_NtNtNtCsf72If0ieCLb_12orchestrator12data_storage34___mock_MockDataStorage_DataStorage10___put_dataNtB7_12Expectations4call0Bd_
FNDA:0,_RNCNvMsa_NtNtNtCsf72If0ieCLb_12orchestrator12data_storage34___mock_MockDataStorage_DataStorage10___put_dataNtB7_12Expectations4calls_0Bd_
FNDA:0,_RNvXs0_NtCsf72If0ieCLb_12orchestrator12data_storageNtB5_27MockDataStorage_DataStorageNtNtCsl82brYPINY5_4core7default7Default7default
FNDA:0,_RNvMs1_NtCsf72If0ieCLb_12orchestrator12data_storageNtB5_27MockDataStorage_DataStorage10checkpoint
FNDA:0,_RNvMs2_NtCsf72If0ieCLb_12orchestrator12data_storageNtB5_15MockDataStorage10checkpoint
FNDA:0,_RNvMs2_NtCsf72If0ieCLb_12orchestrator12data_storageNtB5_15MockDataStorage3new
FNDA:0,_RNvXs4_NtCsf72If0ieCLb_12orchestrator12data_storageNtB5_15MockDataStorageNtB5_11DataStorage8get_data
FNDA:0,_RNCNvXs4_NtCsf72If0ieCLb_12orchestrator12data_storageNtB7_15MockDataStorageNtB7_11DataStorage8get_data0B9_
FNDA:0,_RNvXs4_NtCsf72If0ieCLb_12orchestrator12data_storageNtB5_15MockDataStorageNtB5_11DataStorage8put_data
FNDA:0,_RNCNvXs4_NtCsf72If0ieCLb_12orchestrator12data_storageNtB7_15MockDataStorageNtB7_11DataStorage8put_data0B9_
FNDA:0,_RNvMs3_NtCsf72If0ieCLb_12orchestrator12data_storageNtB5_15MockDataStorage15expect_get_data
FNDA:0,_RNvMs3_NtCsf72If0ieCLb_12orchestrator12data_storageNtB5_15MockDataStorage15expect_put_data
FNF:1
FNH:0
DA:17,0
BRF:0
BRH:0
LF:1
LH:0
end_of_record
SF:/Users/ocdbytes/Karnot/madara-orchestrator/crates/orchestrator/src/data_storage/types.rs
FN:7,_RNvXNvXNvNtNtCsf72If0ieCLb_12orchestrator12data_storage5types1__NtB7_15ContractChangesNtNtCs6LpWrqowvw4_5serde2de11Deserialize11deserializeNtB2_14___FieldVisitorNtB1o_7Visitor9expecting
FN:7,_RINvXNvXNvNtNtCsf72If0ieCLb_12orchestrator12data_storage5types1__NtB8_15ContractChangesNtNtCs6LpWrqowvw4_5serde2de11Deserialize11deserializeNtB3_14___FieldVisitorNtB1p_7Visitor9visit_u64pEBc_
FN:7,_RINvXNvXNvNtNtCsf72If0ieCLb_12orchestrator12data_storage5types1__NtB8_15ContractChangesNtNtCs6LpWrqowvw4_5serde2de11Deserialize11deserializeNtB3_14___FieldVisitorNtB1p_7Visitor9visit_strpEBc_
FN:7,_RINvXNvXNvNtNtCsf72If0ieCLb_12orchestrator12data_storage5types1__NtB8_15ContractChangesNtNtCs6LpWrqowvw4_5serde2de11Deserialize11deserializeNtB3_14___FieldVisitorNtB1p_7Visitor11visit_bytespEBc_
FN:7,_RINvXs_NvXNvNtNtCsf72If0ieCLb_12orchestrator12data_storage5types1__NtBa_15ContractChangesNtNtCs6LpWrqowvw4_5serde2de11Deserialize11deserializeNtB5_7___FieldB1p_11deserializepEBe_
FN:7,_RNvXs0_NvXNvNtNtCsf72If0ieCLb_12orchestrator12data_storage5types1__NtBa_15ContractChangesNtNtCs6LpWrqowvw4_5serde2de11Deserialize11deserializeNtB5_9___VisitorNtB1r_7Visitor9expecting
FN:7,_RINvXs0_NvXNvNtNtCsf72If0ieCLb_12orchestrator12data_storage5types1__NtBb_15ContractChangesNtNtCs6LpWrqowvw4_5serde2de11Deserialize11deserializeNtB6_9___VisitorNtB1s_7Visitor9visit_seqpEBf_
FN:7,_RINvXs0_NvXNvNtNtCsf72If0ieCLb_12orchestrator12data_storage5types1__NtBb_15ContractChangesNtNtCs6LpWrqowvw4_5serde2de11Deserialize11deserializeNtB6_9___VisitorNtB1s_7Visitor9visit_mappEBf_
FN:20,_RNvXNvXNvNtNtCsf72If0ieCLb_12orchestrator12data_storage5typess0_1__NtB7_16StarknetOsOutputNtNtCs6LpWrqowvw4_5serde2de11Deserialize11deserializeNtB2_14___FieldVisitorNtB1s_7Visitor9expecting
FN:20,_RINvXNvXNvNtNtCsf72If0ieCLb_12orchestrator12data_storage5typess0_1__NtB8_16StarknetOsOutputNtNtCs6LpWrqowvw4_5serde2de11Deserialize11deserializeNtB3_14___FieldVisitorNtB1t_7Visitor9visit_u64pEBc_
FN:20,_RINvXNvXNvNtNtCsf72If0ieCLb_12orchestrator12data_storage5typess0_1__NtB8_16StarknetOsOutputNtNtCs6LpWrqowvw4_5serde2de11Deserialize11deserializeNtB3_14___FieldVisitorNtB1t_7Visitor9visit_strpEBc_
FN:20,_RINvXNvXNvNtNtCsf72If0ieCLb_12orchestrator12data_storage5typess0_1__NtB8_16StarknetOsOutputNtNtCs6LpWrqowvw4_5serde2de11Deserialize11deserializeNtB3_14___FieldVisitorNtB1t_7Visitor11visit_bytespEBc_
FN:20,_RINvXs_NvXNvNtNtCsf72If0ieCLb_12orchestrator12data_storage5typess0_1__NtBa_16StarknetOsOutputNtNtCs6LpWrqowvw4_5serde2de11Deserialize11deserializeNtB5_7___FieldB1t_11deserializepEBe_
FN:20,_RNvXs0_NvXNvNtNtCsf72If0ieCLb_12orchestrator12data_storage5typess0_1__NtBa_16StarknetOsOutputNtNtCs6LpWrqowvw4_5serde2de11Deserialize11deserializeNtB5_9___VisitorNtB1v_7Visitor9expecting
FN:20,_RINvXs0_NvXNvNtNtCsf72If0ieCLb_12orchestrator12data_storage5typess0_1__NtBb_16StarknetOsOutputNtNtCs6LpWrqowvw4_5serde2de11Deserialize11deserializeNtB6_9___VisitorNtB1w_7Visitor9visit_seqpEBf_
FN:20,_RINvXs0_NvXNvNtNtCsf72If0ieCLb_12orchestrator12data_storage5typess0_1__NtBb_16StarknetOsOutputNtNtCs6LpWrqowvw4_5serde2de11Deserialize11deserializeNtB6_9___VisitorNtB1w_7Visitor9visit_mappEBf_
FNDA:0,_RNvXNvXNvNtNtCsf72If0ieCLb_12orchestrator12data_storage5types1__NtB7_15ContractChangesNtNtCs6LpWrqowvw4_5serde2de11Deserialize11deserializeNtB2_14___FieldVisitorNtB1o_7Visitor9expecting
FNDA:0,_RINvXNvXNvNtNtCsf72If0ieCLb_12orchestrator12data_storage5types1__NtB8_15ContractChangesNtNtCs6LpWrqowvw4_5serde2de11Deserialize11deserializeNtB3_14___FieldVisitorNtB1p_7Visitor9visit_u64pEBc_
FNDA:0,_RINvXNvXNvNtNtCsf72If0ieCLb_12orchestrator12data_storage5types1__NtB8_15ContractChangesNtNtCs6LpWrqowvw4_5serde2de11Deserialize11deserializeNtB3_14___FieldVisitorNtB1p_7Visitor9visit_strpEBc_
FNDA:0,_RINvXNvXNvNtNtCsf72If0ieCLb_12orchestrator12data_storage5types1__NtB8_15ContractChangesNtNtCs6LpWrqowvw4_5serde2de11Deserialize11deserializeNtB3_14___FieldVisitorNtB1p_7Visitor11visit_bytespEBc_
FNDA:0,_RINvXs_NvXNvNtNtCsf72If0ieCLb_12orchestrator12data_storage5types1__NtBa_15ContractChangesNtNtCs6LpWrqowvw4_5serde2de11Deserialize11deserializeNtB5_7___FieldB1p_11deserializepEBe_
FNDA:0,_RNvXs0_NvXNvNtNtCsf72If0ieCLb_12orchestrator12data_storage5types1__NtBa_15ContractChangesNtNtCs6LpWrqowvw4_5serde2de11Deserialize11deserializeNtB5_9___VisitorNtB1r_7Visitor9expecting
FNDA:0,_RINvXs0_NvXNvNtNtCsf72If0ieCLb_12orchestrator12data_storage5types1__NtBb_15ContractChangesNtNtCs6LpWrqowvw4_5serde2de11Deserialize11deserializeNtB6_9___VisitorNtB1s_7Visitor9visit_seqpEBf_
FNDA:0,_RINvXs0_NvXNvNtNtCsf72If0ieCLb_12orchestrator12data_storage5types1__NtBb_15ContractChangesNtNtCs6LpWrqowvw4_5serde2de11Deserialize11deserializeNtB6_9___VisitorNtB1s_7Visitor9visit_mappEBf_
FNDA:0,_RNvXNvXNvNtNtCsf72If0ieCLb_12orchestrator12data_storage5typess0_1__NtB7_16StarknetOsOutputNtNtCs6LpWrqowvw4_5serde2de11Deserialize11deserializeNtB2_14___FieldVisitorNtB1s_7Visitor9expecting
FNDA:0,_RINvXNvXNvNtNtCsf72If0ieCLb_12orchestrator12data_storage5typess0_1__NtB8_16StarknetOsOutputNtNtCs6LpWrqowvw4_5serde2de11Deserialize11deserializeNtB3_14___FieldVisitorNtB1t_7Visitor9visit_u64pEBc_
FNDA:0,_RINvXNvXNvNtNtCsf72If0ieCLb_12orchestrator12data_storage5typess0_1__NtB8_16StarknetOsOutputNtNtCs6LpWrqowvw4_5serde2de11Deserialize11deserializeNtB3_14___FieldVisitorNtB1t_7Visitor9visit_strpEBc_
FNDA:0,_RINvXNvXNvNtNtCsf72If0ieCLb_12orchestrator12data_storage5typess0_1__NtB8_16StarknetOsOutputNtNtCs6LpWrqowvw4_5serde2de11Deserialize11deserializeNtB3_14___FieldVisitorNtB1t_7Visitor11visit_bytespEBc_
FNDA:0,_RINvXs_NvXNvNtNtCsf72If0ieCLb_12orchestrator12data_storage5typess0_1__NtBa_16StarknetOsOutputNtNtCs6LpWrqowvw4_5serde2de11Deserialize11deserializeNtB5_7___FieldB1t_11deserializepEBe_
FNDA:0,_RNvXs0_NvXNvNtNtCsf72If0ieCLb_12orchestrator12data_storage5typess0_1__NtBa_16StarknetOsOutputNtNtCs6LpWrqowvw4_5serde2de11Deserialize11deserializeNtB5_9___VisitorNtB1v_7Visitor9expecting
FNDA:0,_RINvXs0_NvXNvNtNtCsf72If0ieCLb_12orchestrator12data_storage5typess0_1__NtBb_16StarknetOsOutputNtNtCs6LpWrqowvw4_5serde2de11Deserialize11deserializeNtB6_9___VisitorNtB1w_7Visitor9visit_seqpEBf_
FNDA:0,_RINvXs0_NvXNvNtNtCsf72If0ieCLb_12orchestrator12data_storage5typess0_1__NtBb_16StarknetOsOutputNtNtCs6LpWrqowvw4_5serde2de11Deserialize11deserializeNtB6_9___VisitorNtB1w_7Visitor9visit_mappEBf_
FNF:2
FNH:0
DA:7,0
DA:20,0
BRF:0
BRH:0
LF:2
LH:0
end_of_record
SF:/Users/ocdbytes/Karnot/madara-orchestrator/crates/orchestrator/src/database/mod.rs
FN:23,_RNvMNtNtNtCsf72If0ieCLb_12orchestrator8database28___mock_MockDatabase_Database19___update_job_statusNtB2_5Rfunc8call_mut
FN:23,_RNvMs0_NtNtNtCsf72If0ieCLb_12orchestrator8database28___mock_MockDatabase_Database19___update_job_statusNtB5_7Matcher7matches
FN:23,_RNCNvMs0_NtNtNtCsf72If0ieCLb_12orchestrator8database28___mock_MockDatabase_Database19___update_job_statusNtB7_7Matcher7matches0Bd_
FN:23,_RNvXs2_NtNtNtCsf72If0ieCLb_12orchestrator8database28___mock_MockDatabase_Database19___update_job_statusNtB5_7MatcherNtNtCsl82brYPINY5_4core3fmt7Display3fmt
FN:23,_RNvMs4_NtNtNtCsf72If0ieCLb_12orchestrator8database28___mock_MockDatabase_Database19___update_job_statusNtB5_6Common4call
FN:23,_RNvMs4_NtNtNtCsf72If0ieCLb_12orchestrator8database28___mock_MockDatabase_Database19___update_job_statusNtB5_6Common7is_done
FN:23,_RNvMs4_NtNtNtCsf72If0ieCLb_12orchestrator8database28___mock_MockDatabase_Database19___update_job_statusNtB5_6Common7matches
FN:23,_RNvMs4_NtNtNtCsf72If0ieCLb_12orchestrator8database28___mock_MockDatabase_Database19___update_job_statusNtB5_6Common16satisfy_sequence
FN:23,_RNvMs4_NtNtNtCsf72If0ieCLb_12orchestrator8database28___mock_MockDatabase_Database19___update_job_statusNtB5_6Common15verify_sequence
FN:23,_RNvXs5_NtNtNtCsf72If0ieCLb_12orchestrator8database28___mock_MockDatabase_Database19___update_job_statusNtB5_6CommonNtNtNtCsl82brYPINY5_4core3ops4drop4Drop4drop
FN:23,_RNvMs6_NtNtNtCsf72If0ieCLb_12orchestrator8database28___mock_MockDatabase_Database19___update_job_statusNtB5_11Expectation4call
FN:23,_RNvMs6_NtNtNtCsf72If0ieCLb_12orchestrator8database28___mock_MockDatabase_Database19___update_job_statusNtB5_11Expectation7is_done
FN:23,_RNvMs6_NtNtNtCsf72If0ieCLb_12orchestrator8database28___mock_MockDatabase_Database19___update_job_statusNtB5_11Expectation7matches
FN:23,_RNvMsa_NtNtNtCsf72If0ieCLb_12orchestrator8database28___mock_MockDatabase_Database19___update_job_statusNtB5_12Expectations4call
FN:23,_RNCNvMsa_NtNtNtCsf72If0ieCLb_12orchestrator8database28___mock_MockDatabase_Database19___update_job_statusNtB7_12Expectations4calls_0Bd_
FN:23,_RNCNvMsa_NtNtNtCsf72If0ieCLb_12orchestrator8database28___mock_MockDatabase_Database19___update_job_statusNtB7_12Expectations4call0Bd_
FN:23,_RNvMNtNtNtCsf72If0ieCLb_12orchestrator8database28___mock_MockDatabase_Database40___get_latest_job_by_type_and_internal_idNtB2_5Rfunc8call_mut
FN:23,_RNvMs0_NtNtNtCsf72If0ieCLb_12orchestrator8database28___mock_MockDatabase_Database40___get_latest_job_by_type_and_internal_idNtB5_7Matcher7matches
FN:23,_RNCNvMs0_NtNtNtCsf72If0ieCLb_12orchestrator8database28___mock_MockDatabase_Database40___get_latest_job_by_type_and_internal_idNtB7_7Matcher7matches0Bd_
FN:23,_RNvXs2_NtNtNtCsf72If0ieCLb_12orchestrator8database28___mock_MockDatabase_Database40___get_latest_job_by_type_and_internal_idNtB5_7MatcherNtNtCsl82brYPINY5_4core3fmt7Display3fmt
FN:23,_RNvMs4_NtNtNtCsf72If0ieCLb_12orchestrator8database28___mock_MockDatabase_Database40___get_latest_job_by_type_and_internal_idNtB5_6Common4call
FN:23,_RNvMs4_NtNtNtCsf72If0ieCLb_12orchestrator8database28___mock_MockDatabase_Database40___get_latest_job_by_type_and_internal_idNtB5_6Common7is_done
FN:23,_RNvMs4_NtNtNtCsf72If0ieCLb_12orchestrator8database28___mock_MockDatabase_Database40___get_latest_job_by_type_and_internal_idNtB5_6Common7matches
FN:23,_RNvMs4_NtNtNtCsf72If0ieCLb_12orchestrator8database28___mock_MockDatabase_Database40___get_latest_job_by_type_and_internal_idNtB5_6Common16satisfy_sequence
FN:23,_RINvMs4_NtNtNtCsf72If0ieCLb_12orchestrator8database28___mock_MockDatabase_Database40___get_latest_job_by_type_and_internal_idNtB6_6Common4withINtNtCshPsaE7IPXTr_10predicates3ord11EqPredicateNtNtNtBc_4jobs5types7JobTypeEEBc_
FN:23,_RNvMs4_NtNtNtCsf72If0ieCLb_12orchestrator8database28___mock_MockDatabase_Database40___get_latest_job_by_type_and_internal_idNtB5_6Common15verify_sequence
FN:23,_RNvXs5_NtNtNtCsf72If0ieCLb_12orchestrator8database28___mock_MockDatabase_Database40___get_latest_job_by_type_and_internal_idNtB5_6CommonNtNtNtCsl82brYPINY5_4core3ops4drop4Drop4drop
FN:23,_RNvMs6_NtNtNtCsf72If0ieCLb_12orchestrator8database28___mock_MockDatabase_Database40___get_latest_job_by_type_and_internal_idNtB5_11Expectation4call
FN:23,_RINvMs6_NtNtNtCsf72If0ieCLb_12orchestrator8database28___mock_MockDatabase_Database40___get_latest_job_by_type_and_internal_idNtB6_11Expectation9returningNCNCNvNtNtNtBc_5tests7workers4snos16test_snos_worker00EBc_
FN:23,_RINvMs6_NtNtNtCsf72If0ieCLb_12orchestrator8database28___mock_MockDatabase_Database40___get_latest_job_by_type_and_internal_idNtB6_11Expectation9returningNCNCNvNtNtNtBc_5tests7workers4snos16test_snos_worker0s_0EBc_
FN:23,_RNvMs6_NtNtNtCsf72If0ieCLb_12orchestrator8database28___mock_MockDatabase_Database40___get_latest_job_by_type_and_internal_idNtB5_11Expectation7is_done
FN:23,_RNvMs6_NtNtNtCsf72If0ieCLb_12orchestrator8database28___mock_MockDatabase_Database40___get_latest_job_by_type_and_internal_idNtB5_11Expectation7matches
FN:23,_RINvMs6_NtNtNtCsf72If0ieCLb_12orchestrator8database28___mock_MockDatabase_Database40___get_latest_job_by_type_and_internal_idNtB6_11Expectation5timesjEBc_
FN:23,_RINvMs4_NtNtNtCsf72If0ieCLb_12orchestrator8database28___mock_MockDatabase_Database40___get_latest_job_by_type_and_internal_idNtB6_6Common5timesjEBc_
FN:23,_RINvMs6_NtNtNtCsf72If0ieCLb_12orchestrator8database28___mock_MockDatabase_Database40___get_latest_job_by_type_and_internal_idNtB6_11Expectation4withINtNtCshPsaE7IPXTr_10predicates3ord11EqPredicateNtNtNtBc_4jobs5types7JobTypeEEBc_
FN:23,_RNvXs7_NtNtNtCsf72If0ieCLb_12orchestrator8database28___mock_MockDatabase_Database40___get_latest_job_by_type_and_internal_idNtB5_11ExpectationNtNtCsl82brYPINY5_4core7default7Default7default
FN:23,_RNvXs3_NtNtNtCsf72If0ieCLb_12orchestrator8database28___mock_MockDatabase_Database40___get_latest_job_by_type_and_internal_idNtB5_6CommonNtNtCsl82brYPINY5_4core7default7Default7default
FN:23,_RNvXs1_NtNtNtCsf72If0ieCLb_12orchestrator8database28___mock_MockDatabase_Database40___get_latest_job_by_type_and_internal_idNtB5_7MatcherNtNtCsl82brYPINY5_4core7default7Default7default
FN:23,_RNvXs_NtNtNtCsf72If0ieCLb_12orchestrator8database28___mock_MockDatabase_Database40___get_latest_job_by_type_and_internal_idNtB4_5RfuncNtNtCsl82brYPINY5_4core7default7Default7default
FN:23,_RNvMs8_NtNtNtCsf72If0ieCLb_12orchestrator8database28___mock_MockDatabase_Database40___get_latest_job_by_type_and_internal_idNtB5_12Expectations6expect
FN:23,_RNvMsa_NtNtNtCsf72If0ieCLb_12orchestrator8database28___mock_MockDatabase_Database40___get_latest_job_by_type_and_internal_idNtB5_12Expectations4call
FN:23,_RNCNvMsa_NtNtNtCsf72If0ieCLb_12orchestrator8database28___mock_MockDatabase_Database40___get_latest_job_by_type_and_internal_idNtB7_12Expectations4calls_0Bd_
FN:23,_RNCNvMsa_NtNtNtCsf72If0ieCLb_12orchestrator8database28___mock_MockDatabase_Database40___get_latest_job_by_type_and_internal_idNtB7_12Expectations4call0Bd_
FN:23,_RNvXs_NtCsf72If0ieCLb_12orchestrator8databaseNtB4_12MockDatabaseNtNtCsl82brYPINY5_4core7default7Default7default
FN:23,_RNvMNtNtNtCsf72If0ieCLb_12orchestrator8database28___mock_MockDatabase_Database12___create_jobNtB2_5Rfunc8call_mut
FN:23,_RNvMs0_NtNtNtCsf72If0ieCLb_12orchestrator8database28___mock_MockDatabase_Database12___create_jobNtB5_7Matcher7matches
FN:23,_RNCNvMs0_NtNtNtCsf72If0ieCLb_12orchestrator8database28___mock_MockDatabase_Database12___create_jobNtB7_7Matcher7matches0Bd_
FN:23,_RNvXs2_NtNtNtCsf72If0ieCLb_12orchestrator8database28___mock_MockDatabase_Database12___create_jobNtB5_7MatcherNtNtCsl82brYPINY5_4core3fmt7Display3fmt
FN:23,_RNvMs4_NtNtNtCsf72If0ieCLb_12orchestrator8database28___mock_MockDatabase_Database12___create_jobNtB5_6Common4call
FN:23,_RNvMs4_NtNtNtCsf72If0ieCLb_12orchestrator8database28___mock_MockDatabase_Database12___create_jobNtB5_6Common7is_done
FN:23,_RNvMs4_NtNtNtCsf72If0ieCLb_12orchestrator8database28___mock_MockDatabase_Database12___create_jobNtB5_6Common7matches
FN:23,_RNvMs4_NtNtNtCsf72If0ieCLb_12orchestrator8database28___mock_MockDatabase_Database12___create_jobNtB5_6Common16satisfy_sequence
FN:23,_RINvMs4_NtNtNtCsf72If0ieCLb_12orchestrator8database28___mock_MockDatabase_Database12___create_jobNtB6_6Common5withfNCNCNvNtNtNtBc_5tests7workers4snos16test_snos_worker0s1_0EBc_
FN:23,_RINvMs4_NtNtNtCsf72If0ieCLb_12orchestrator8database28___mock_MockDatabase_Database12___create_jobNtB6_6Common5withfNCNvNtNtNtBc_5tests7workers5utils24db_checks_proving_workers_0EBc_
FN:23,_RINvMs4_NtNtNtCsf72If0ieCLb_12orchestrator8database28___mock_MockDatabase_Database12___create_jobNtB6_6Common5withfNCNvNtNtNtBc_5tests7workers5utils46db_create_job_expectations_update_state_worker0EBc_
FN:23,_RNvMs4_NtNtNtCsf72If0ieCLb_12orchestrator8database28___mock_MockDatabase_Database12___create_jobNtB5_6Common15verify_sequence
FN:23,_RNvXs5_NtNtNtCsf72If0ieCLb_12orchestrator8database28___mock_MockDatabase_Database12___create_jobNtB5_6CommonNtNtNtCsl82brYPINY5_4core3ops4drop4Drop4drop
FN:23,_RNvMs6_NtNtNtCsf72If0ieCLb_12orchestrator8database28___mock_MockDatabase_Database12___create_jobNtB5_11Expectation4call
FN:23,_RINvMs6_NtNtNtCsf72If0ieCLb_12orchestrator8database28___mock_MockDatabase_Database12___create_jobNtB6_11Expectation9returningNCNCNvNtNtNtBc_5tests7workers4snos16test_snos_worker0s2_0EBc_
FN:23,_RINvMs6_NtNtNtCsf72If0ieCLb_12orchestrator8database28___mock_MockDatabase_Database12___create_jobNtB6_11Expectation9returningNCNvNtNtNtBc_5tests7workers5utils24db_checks_proving_workers0_0EBc_
FN:23,_RINvMs6_NtNtNtCsf72If0ieCLb_12orchestrator8database28___mock_MockDatabase_Database12___create_jobNtB6_11Expectation9returningNCNvNtNtNtBc_5tests7workers5utils46db_create_job_expectations_update_state_workers_0EBc_
FN:23,_RNvMs6_NtNtNtCsf72If0ieCLb_12orchestrator8database28___mock_MockDatabase_Database12___create_jobNtB5_11Expectation7is_done
FN:23,_RNvMs6_NtNtNtCsf72If0ieCLb_12orchestrator8database28___mock_MockDatabase_Database12___create_jobNtB5_11Expectation7matches
FN:23,_RINvMs6_NtNtNtCsf72If0ieCLb_12orchestrator8database28___mock_MockDatabase_Database12___create_jobNtB6_11Expectation5timesjEBc_
FN:23,_RINvMs4_NtNtNtCsf72If0ieCLb_12orchestrator8database28___mock_MockDatabase_Database12___create_jobNtB6_6Common5timesjEBc_
FN:23,_RINvMs6_NtNtNtCsf72If0ieCLb_12orchestrator8database28___mock_MockDatabase_Database12___create_jobNtB6_11Expectation5withfNCNCNvNtNtNtBc_5tests7workers4snos16test_snos_worker0s1_0EBc_
FN:23,_RNvXs7_NtNtNtCsf72If0ieCLb_12orchestrator8database28___mock_MockDatabase_Database12___create_jobNtB5_11ExpectationNtNtCsl82brYPINY5_4core7default7Default7default
FN:23,_RNvXs3_NtNtNtCsf72If0ieCLb_12orchestrator8database28___mock_MockDatabase_Database12___create_jobNtB5_6CommonNtNtCsl82brYPINY5_4core7default7Default7default
FN:23,_RNvXs1_NtNtNtCsf72If0ieCLb_12orchestrator8database28___mock_MockDatabase_Database12___create_jobNtB5_7MatcherNtNtCsl82brYPINY5_4core7default7Default7default
FN:23,_RNvXs_NtNtNtCsf72If0ieCLb_12orchestrator8database28___mock_MockDatabase_Database12___create_jobNtB4_5RfuncNtNtCsl82brYPINY5_4core7default7Default7default
FN:23,_RNvMs8_NtNtNtCsf72If0ieCLb_12orchestrator8database28___mock_MockDatabase_Database12___create_jobNtB5_12Expectations6expect
FN:23,_RNvMsa_NtNtNtCsf72If0ieCLb_12orchestrator8database28___mock_MockDatabase_Database12___create_jobNtB5_12Expectations4call
FN:23,_RNCNvMsa_NtNtNtCsf72If0ieCLb_12orchestrator8database28___mock_MockDatabase_Database12___create_jobNtB7_12Expectations4calls_0Bd_
FN:23,_RNCNvMsa_NtNtNtCsf72If0ieCLb_12orchestrator8database28___mock_MockDatabase_Database12___create_jobNtB7_12Expectations4call0Bd_
FN:23,_RNvMNtNtNtCsf72If0ieCLb_12orchestrator8database28___mock_MockDatabase_Database15___get_job_by_idNtB2_5Rfunc8call_mut
FN:23,_RNvMs0_NtNtNtCsf72If0ieCLb_12orchestrator8database28___mock_MockDatabase_Database15___get_job_by_idNtB5_7Matcher7matches
FN:23,_RNCNvMs0_NtNtNtCsf72If0ieCLb_12orchestrator8database28___mock_MockDatabase_Database15___get_job_by_idNtB7_7Matcher7matches0Bd_
FN:23,_RNvXs2_NtNtNtCsf72If0ieCLb_12orchestrator8database28___mock_MockDatabase_Database15___get_job_by_idNtB5_7MatcherNtNtCsl82brYPINY5_4core3fmt7Display3fmt
FN:23,_RNvMs4_NtNtNtCsf72If0ieCLb_12orchestrator8database28___mock_MockDatabase_Database15___get_job_by_idNtB5_6Common4call
FN:23,_RNvMs4_NtNtNtCsf72If0ieCLb_12orchestrator8database28___mock_MockDatabase_Database15___get_job_by_idNtB5_6Common7is_done
FN:23,_RNvMs4_NtNtNtCsf72If0ieCLb_12orchestrator8database28___mock_MockDatabase_Database15___get_job_by_idNtB5_6Common7matches
FN:23,_RNvMs4_NtNtNtCsf72If0ieCLb_12orchestrator8database28___mock_MockDatabase_Database15___get_job_by_idNtB5_6Common16satisfy_sequence
FN:23,_RNvMs4_NtNtNtCsf72If0ieCLb_12orchestrator8database28___mock_MockDatabase_Database15___get_job_by_idNtB5_6Common15verify_sequence
FN:23,_RNvXs5_NtNtNtCsf72If0ieCLb_12orchestrator8database28___mock_MockDatabase_Database15___get_job_by_idNtB5_6CommonNtNtNtCsl82brYPINY5_4core3ops4drop4Drop4drop
FN:23,_RNvMs6_NtNtNtCsf72If0ieCLb_12orchestrator8database28___mock_MockDatabase_Database15___get_job_by_idNtB5_11Expectation4call
FN:23,_RNvMs6_NtNtNtCsf72If0ieCLb_12orchestrator8database28___mock_MockDatabase_Database15___get_job_by_idNtB5_11Expectation7is_done
FN:23,_RNvMs6_NtNtNtCsf72If0ieCLb_12orchestrator8database28___mock_MockDatabase_Database15___get_job_by_idNtB5_11Expectation7matches
FN:23,_RNvMsa_NtNtNtCsf72If0ieCLb_12orchestrator8database28___mock_MockDatabase_Database15___get_job_by_idNtB5_12Expectations4call
FN:23,_RNCNvMsa_NtNtNtCsf72If0ieCLb_12orchestrator8database28___mock_MockDatabase_Database15___get_job_by_idNtB7_12Expectations4calls_0Bd_
FN:23,_RNCNvMsa_NtNtNtCsf72If0ieCLb_12orchestrator8database28___mock_MockDatabase_Database15___get_job_by_idNtB7_12Expectations4call0Bd_
FN:23,_RNvMNtNtNtCsf72If0ieCLb_12orchestrator8database28___mock_MockDatabase_Database33___get_job_by_internal_id_and_typeNtB2_5Rfunc8call_mut
FN:23,_RNvMs0_NtNtNtCsf72If0ieCLb_12orchestrator8database28___mock_MockDatabase_Database33___get_job_by_internal_id_and_typeNtB5_7Matcher7matches
FN:23,_RNCNvMs0_NtNtNtCsf72If0ieCLb_12orchestrator8database28___mock_MockDatabase_Database33___get_job_by_internal_id_and_typeNtB7_7Matcher7matches0Bd_
FN:23,_RNvXs2_NtNtNtCsf72If0ieCLb_12orchestrator8database28___mock_MockDatabase_Database33___get_job_by_internal_id_and_typeNtB5_7MatcherNtNtCsl82brYPINY5_4core3fmt7Display3fmt
FN:23,_RNvMs4_NtNtNtCsf72If0ieCLb_12orchestrator8database28___mock_MockDatabase_Database33___get_job_by_internal_id_and_typeNtB5_6Common4call
FN:23,_RNvMs4_NtNtNtCsf72If0ieCLb_12orchestrator8database28___mock_MockDatabase_Database33___get_job_by_internal_id_and_typeNtB5_6Common7is_done
FN:23,_RNvMs4_NtNtNtCsf72If0ieCLb_12orchestrator8database28___mock_MockDatabase_Database33___get_job_by_internal_id_and_typeNtB5_6Common7matches
FN:23,_RNvMs4_NtNtNtCsf72If0ieCLb_12orchestrator8database28___mock_MockDatabase_Database33___get_job_by_internal_id_and_typeNtB5_6Common16satisfy_sequence
FN:23,_RINvMs4_NtNtNtCsf72If0ieCLb_12orchestrator8database28___mock_MockDatabase_Database33___get_job_by_internal_id_and_typeNtB6_6Common4withINtNtCshPsaE7IPXTr_10predicates3ord11EqPredicateNtNtCshB4XevuvN1H_5alloc6string6StringEIB2a_NtNtNtBc_4jobs5types7JobTypeEEBc_
FN:23,_RNvMs4_NtNtNtCsf72If0ieCLb_12orchestrator8database28___mock_MockDatabase_Database33___get_job_by_internal_id_and_typeNtB5_6Common15verify_sequence
FN:23,_RNvXs5_NtNtNtCsf72If0ieCLb_12orchestrator8database28___mock_MockDatabase_Database33___get_job_by_internal_id_and_typeNtB5_6CommonNtNtNtCsl82brYPINY5_4core3ops4drop4Drop4drop
FN:23,_RNvMs6_NtNtNtCsf72If0ieCLb_12orchestrator8database28___mock_MockDatabase_Database33___get_job_by_internal_id_and_typeNtB5_11Expectation4call
FN:23,_RINvMs6_NtNtNtCsf72If0ieCLb_12orchestrator8database28___mock_MockDatabase_Database33___get_job_by_internal_id_and_typeNtB6_11Expectation9returningNCNCNvNtNtNtBc_5tests7workers12update_state24test_update_state_worker0s1_0EBc_
FN:23,_RINvMs6_NtNtNtCsf72If0ieCLb_12orchestrator8database28___mock_MockDatabase_Database33___get_job_by_internal_id_and_typeNtB6_11Expectation9returningNCNCNvNtNtNtBc_5tests7workers4snos16test_snos_worker0s0_0EBc_
FN:23,_RINvMs6_NtNtNtCsf72If0ieCLb_12orchestrator8database28___mock_MockDatabase_Database33___get_job_by_internal_id_and_typeNtB6_11Expectation9returningNCNvNtNtNtBc_5tests7workers5utils24db_checks_proving_worker0EBc_
FN:23,_RNvMs6_NtNtNtCsf72If0ieCLb_12orchestrator8database28___mock_MockDatabase_Database33___get_job_by_internal_id_and_typeNtB5_11Expectation7is_done
FN:23,_RNvMs6_NtNtNtCsf72If0ieCLb_12orchestrator8database28___mock_MockDatabase_Database33___get_job_by_internal_id_and_typeNtB5_11Expectation7matches
FN:23,_RINvMs6_NtNtNtCsf72If0ieCLb_12orchestrator8database28___mock_MockDatabase_Database33___get_job_by_internal_id_and_typeNtB6_11Expectation5timesjEBc_
FN:23,_RINvMs4_NtNtNtCsf72If0ieCLb_12orchestrator8database28___mock_MockDatabase_Database33___get_job_by_internal_id_and_typeNtB6_6Common5timesjEBc_
FN:23,_RNvXs7_NtNtNtCsf72If0ieCLb_12orchestrator8database28___mock_MockDatabase_Database33___get_job_by_internal_id_and_typeNtB5_11ExpectationNtNtCsl82brYPINY5_4core7default7Default7default
FN:23,_RNvXs3_NtNtNtCsf72If0ieCLb_12orchestrator8database28___mock_MockDatabase_Database33___get_job_by_internal_id_and_typeNtB5_6CommonNtNtCsl82brYPINY5_4core7default7Default7default
FN:23,_RNvXs1_NtNtNtCsf72If0ieCLb_12orchestrator8database28___mock_MockDatabase_Database33___get_job_by_internal_id_and_typeNtB5_7MatcherNtNtCsl82brYPINY5_4core7default7Default7default
FN:23,_RNvXs_NtNtNtCsf72If0ieCLb_12orchestrator8database28___mock_MockDatabase_Database33___get_job_by_internal_id_and_typeNtB4_5RfuncNtNtCsl82brYPINY5_4core7default7Default7default
FN:23,_RNvMs8_NtNtNtCsf72If0ieCLb_12orchestrator8database28___mock_MockDatabase_Database33___get_job_by_internal_id_and_typeNtB5_12Expectations6expect
FN:23,_RNvMsa_NtNtNtCsf72If0ieCLb_12orchestrator8database28___mock_MockDatabase_Database33___get_job_by_internal_id_and_typeNtB5_12Expectations4call
FN:23,_RNCNvMsa_NtNtNtCsf72If0ieCLb_12orchestrator8database28___mock_MockDatabase_Database33___get_job_by_internal_id_and_typeNtB7_12Expectations4calls_0Bd_
FN:23,_RNCNvMsa_NtNtNtCsf72If0ieCLb_12orchestrator8database28___mock_MockDatabase_Database33___get_job_by_internal_id_and_typeNtB7_12Expectations4call0Bd_
FN:23,_RNvMNtNtNtCsf72If0ieCLb_12orchestrator8database28___mock_MockDatabase_Database28___get_jobs_without_successorNtB2_5Rfunc8call_mut
FN:23,_RNvMs0_NtNtNtCsf72If0ieCLb_12orchestrator8database28___mock_MockDatabase_Database28___get_jobs_without_successorNtB5_7Matcher7matches
FN:23,_RNCNvMs0_NtNtNtCsf72If0ieCLb_12orchestrator8database28___mock_MockDatabase_Database28___get_jobs_without_successorNtB7_7Matcher7matches0Bd_
FN:23,_RNvXs2_NtNtNtCsf72If0ieCLb_12orchestrator8database28___mock_MockDatabase_Database28___get_jobs_without_successorNtB5_7MatcherNtNtCsl82brYPINY5_4core3fmt7Display3fmt
FN:23,_RNvMs4_NtNtNtCsf72If0ieCLb_12orchestrator8database28___mock_MockDatabase_Database28___get_jobs_without_successorNtB5_6Common4call
FN:23,_RNvMs4_NtNtNtCsf72If0ieCLb_12orchestrator8database28___mock_MockDatabase_Database28___get_jobs_without_successorNtB5_6Common7is_done
FN:23,_RNvMs4_NtNtNtCsf72If0ieCLb_12orchestrator8database28___mock_MockDatabase_Database28___get_jobs_without_successorNtB5_6Common7matches
FN:23,_RNvMs4_NtNtNtCsf72If0ieCLb_12orchestrator8database28___mock_MockDatabase_Database28___get_jobs_without_successorNtB5_6Common16satisfy_sequence
FN:23,_RINvMs4_NtNtNtCsf72If0ieCLb_12orchestrator8database28___mock_MockDatabase_Database28___get_jobs_without_successorNtB6_6Common5withfNCNCNvNtNtNtBc_5tests7workers7proving19test_proving_worker0s4_0EBc_
FN:23,_RINvMs4_NtNtNtCsf72If0ieCLb_12orchestrator8database28___mock_MockDatabase_Database28___get_jobs_without_successorNtB6_6Common5withfNCNCNvNtNtNtBc_5tests7workers7proving19test_proving_worker0s_0EBc_
FN:23,_RNvMs4_NtNtNtCsf72If0ieCLb_12orchestrator8database28___mock_MockDatabase_Database28___get_jobs_without_successorNtB5_6Common15verify_sequence
FN:23,_RNvXs5_NtNtNtCsf72If0ieCLb_12orchestrator8database28___mock_MockDatabase_Database28___get_jobs_without_successorNtB5_6CommonNtNtNtCsl82brYPINY5_4core3ops4drop4Drop4drop
FN:23,_RNvMs6_NtNtNtCsf72If0ieCLb_12orchestrator8database28___mock_MockDatabase_Database28___get_jobs_without_successorNtB5_11Expectation4call
FN:23,_RINvMs6_NtNtNtCsf72If0ieCLb_12orchestrator8database28___mock_MockDatabase_Database28___get_jobs_without_successorNtB6_11Expectation9returningNCNCNvNtNtNtBc_5tests7workers7proving19test_proving_worker0s0_0EBc_
FN:23,_RINvMs6_NtNtNtCsf72If0ieCLb_12orchestrator8database28___mock_MockDatabase_Database28___get_jobs_without_successorNtB6_11Expectation9returningNCNCNvNtNtNtBc_5tests7workers7proving19test_proving_worker0s5_0EBc_
FN:23,_RNvMs6_NtNtNtCsf72If0ieCLb_12orchestrator8database28___mock_MockDatabase_Database28___get_jobs_without_successorNtB5_11Expectation7is_done
FN:23,_RNvMs6_NtNtNtCsf72If0ieCLb_12orchestrator8database28___mock_MockDatabase_Database28___get_jobs_without_successorNtB5_11Expectation7matches
FN:23,_RINvMs6_NtNtNtCsf72If0ieCLb_12orchestrator8database28___mock_MockDatabase_Database28___get_jobs_without_successorNtB6_11Expectation5timesjEBc_
FN:23,_RINvMs4_NtNtNtCsf72If0ieCLb_12orchestrator8database28___mock_MockDatabase_Database28___get_jobs_without_successorNtB6_6Common5timesjEBc_
FN:23,_RINvMs6_NtNtNtCsf72If0ieCLb_12orchestrator8database28___mock_MockDatabase_Database28___get_jobs_without_successorNtB6_11Expectation5withfNCNCNvNtNtNtBc_5tests7workers7proving19test_proving_worker0s4_0EBc_
FN:23,_RINvMs6_NtNtNtCsf72If0ieCLb_12orchestrator8database28___mock_MockDatabase_Database28___get_jobs_without_successorNtB6_11Expectation5withfNCNCNvNtNtNtBc_5tests7workers7proving19test_proving_worker0s_0EBc_
FN:23,_RNvXs7_NtNtNtCsf72If0ieCLb_12orchestrator8database28___mock_MockDatabase_Database28___get_jobs_without_successorNtB5_11ExpectationNtNtCsl82brYPINY5_4core7default7Default7default
FN:23,_RNvXs3_NtNtNtCsf72If0ieCLb_12orchestrator8database28___mock_MockDatabase_Database28___get_jobs_without_successorNtB5_6CommonNtNtCsl82brYPINY5_4core7default7Default7default
FN:23,_RNvXs1_NtNtNtCsf72If0ieCLb_12orchestrator8database28___mock_MockDatabase_Database28___get_jobs_without_successorNtB5_7MatcherNtNtCsl82brYPINY5_4core7default7Default7default
FN:23,_RNvXs_NtNtNtCsf72If0ieCLb_12orchestrator8database28___mock_MockDatabase_Database28___get_jobs_without_successorNtB4_5RfuncNtNtCsl82brYPINY5_4core7default7Default7default
FN:23,_RNvMs8_NtNtNtCsf72If0ieCLb_12orchestrator8database28___mock_MockDatabase_Database28___get_jobs_without_successorNtB5_12Expectations6expect
FN:23,_RNvMsa_NtNtNtCsf72If0ieCLb_12orchestrator8database28___mock_MockDatabase_Database28___get_jobs_without_successorNtB5_12Expectations4call
FN:23,_RNCNvMsa_NtNtNtCsf72If0ieCLb_12orchestrator8database28___mock_MockDatabase_Database28___get_jobs_without_successorNtB7_12Expectations4calls_0Bd_
FN:23,_RNCNvMsa_NtNtNtCsf72If0ieCLb_12orchestrator8database28___mock_MockDatabase_Database28___get_jobs_without_successorNtB7_12Expectations4call0Bd_
FN:23,_RNvMNtNtNtCsf72If0ieCLb_12orchestrator8database28___mock_MockDatabase_Database40___get_jobs_after_internal_id_by_job_typeNtB2_5Rfunc8call_mut
FN:23,_RNvMs0_NtNtNtCsf72If0ieCLb_12orchestrator8database28___mock_MockDatabase_Database40___get_jobs_after_internal_id_by_job_typeNtB5_7Matcher7matches
FN:23,_RNCNvMs0_NtNtNtCsf72If0ieCLb_12orchestrator8database28___mock_MockDatabase_Database40___get_jobs_after_internal_id_by_job_typeNtB7_7Matcher7matches0Bd_
FN:23,_RNvXs2_NtNtNtCsf72If0ieCLb_12orchestrator8database28___mock_MockDatabase_Database40___get_jobs_after_internal_id_by_job_typeNtB5_7MatcherNtNtCsl82brYPINY5_4core3fmt7Display3fmt
FN:23,_RNvMs4_NtNtNtCsf72If0ieCLb_12orchestrator8database28___mock_MockDatabase_Database40___get_jobs_after_internal_id_by_job_typeNtB5_6Common4call
FN:23,_RNvMs4_NtNtNtCsf72If0ieCLb_12orchestrator8database28___mock_MockDatabase_Database40___get_jobs_after_internal_id_by_job_typeNtB5_6Common7is_done
FN:23,_RNvMs4_NtNtNtCsf72If0ieCLb_12orchestrator8database28___mock_MockDatabase_Database40___get_jobs_after_internal_id_by_job_typeNtB5_6Common7matches
FN:23,_RNvMs4_NtNtNtCsf72If0ieCLb_12orchestrator8database28___mock_MockDatabase_Database40___get_jobs_after_internal_id_by_job_typeNtB5_6Common16satisfy_sequence
FN:23,_RINvMs4_NtNtNtCsf72If0ieCLb_12orchestrator8database28___mock_MockDatabase_Database40___get_jobs_after_internal_id_by_job_typeNtB6_6Common4withINtNtCshPsaE7IPXTr_10predicates3ord11EqPredicateNtNtNtBc_4jobs5types7JobTypeEIB2h_NtB34_9JobStatusEIB2h_NtNtCshB4XevuvN1H_5alloc6string6StringEEBc_
FN:23,_RNvMs4_NtNtNtCsf72If0ieCLb_12orchestrator8database28___mock_MockDatabase_Database40___get_jobs_after_internal_id_by_job_typeNtB5_6Common15verify_sequence
FN:23,_RNvXs5_NtNtNtCsf72If0ieCLb_12orchestrator8database28___mock_MockDatabase_Database40___get_jobs_after_internal_id_by_job_typeNtB5_6CommonNtNtNtCsl82brYPINY5_4core3ops4drop4Drop4drop
FN:23,_RNvMs6_NtNtNtCsf72If0ieCLb_12orchestrator8database28___mock_MockDatabase_Database40___get_jobs_after_internal_id_by_job_typeNtB5_11Expectation4call
FN:23,_RINvMs6_NtNtNtCsf72If0ieCLb_12orchestrator8database28___mock_MockDatabase_Database40___get_jobs_after_internal_id_by_job_typeNtB6_11Expectation9returningNCNCNvNtNtNtBc_5tests7workers12update_state24test_update_state_worker0s0_0EBc_
FN:23,_RNvMs6_NtNtNtCsf72If0ieCLb_12orchestrator8database28___mock_MockDatabase_Database40___get_jobs_after_internal_id_by_job_typeNtB5_11Expectation7is_done
FN:23,_RNvMs6_NtNtNtCsf72If0ieCLb_12orchestrator8database28___mock_MockDatabase_Database40___get_jobs_after_internal_id_by_job_typeNtB5_11Expectation7matches
FN:23,_RINvMs6_NtNtNtCsf72If0ieCLb_12orchestrator8database28___mock_MockDatabase_Database40___get_jobs_after_internal_id_by_job_typeNtB6_11Expectation4withINtNtCshPsaE7IPXTr_10predicates3ord11EqPredicateNtNtNtBc_4jobs5types7JobTypeEIB2n_NtB3a_9JobStatusEIB2n_NtNtCshB4XevuvN1H_5alloc6string6StringEEBc_
FN:23,_RNvXs7_NtNtNtCsf72If0ieCLb_12orchestrator8database28___mock_MockDatabase_Database40___get_jobs_after_internal_id_by_job_typeNtB5_11ExpectationNtNtCsl82brYPINY5_4core7default7Default7default
FN:23,_RNvXs3_NtNtNtCsf72If0ieCLb_12orchestrator8database28___mock_MockDatabase_Database40___get_jobs_after_internal_id_by_job_typeNtB5_6CommonNtNtCsl82brYPINY5_4core7default7Default7default
FN:23,_RNvXs1_NtNtNtCsf72If0ieCLb_12orchestrator8database28___mock_MockDatabase_Database40___get_jobs_after_internal_id_by_job_typeNtB5_7MatcherNtNtCsl82brYPINY5_4core7default7Default7default
FN:23,_RNvXs_NtNtNtCsf72If0ieCLb_12orchestrator8database28___mock_MockDatabase_Database40___get_jobs_after_internal_id_by_job_typeNtB4_5RfuncNtNtCsl82brYPINY5_4core7default7Default7default
FN:23,_RNvMs8_NtNtNtCsf72If0ieCLb_12orchestrator8database28___mock_MockDatabase_Database40___get_jobs_after_internal_id_by_job_typeNtB5_12Expectations6expect
FN:23,_RNvMsa_NtNtNtCsf72If0ieCLb_12orchestrator8database28___mock_MockDatabase_Database40___get_jobs_after_internal_id_by_job_typeNtB5_12Expectations4call
FN:23,_RNCNvMsa_NtNtNtCsf72If0ieCLb_12orchestrator8database28___mock_MockDatabase_Database40___get_jobs_after_internal_id_by_job_typeNtB7_12Expectations4calls_0Bd_
FN:23,_RNCNvMsa_NtNtNtCsf72If0ieCLb_12orchestrator8database28___mock_MockDatabase_Database40___get_jobs_after_internal_id_by_job_typeNtB7_12Expectations4call0Bd_
FN:23,_RNvXs0_NtCsf72If0ieCLb_12orchestrator8databaseNtB5_21MockDatabase_DatabaseNtNtCsl82brYPINY5_4core7default7Default7default
FN:23,_RNvXs9_NtNtNtCsf72If0ieCLb_12orchestrator8database28___mock_MockDatabase_Database12___create_jobNtB5_12ExpectationsNtNtCsl82brYPINY5_4core7default7Default7default
FN:23,_RNvXs9_NtNtNtCsf72If0ieCLb_12orchestrator8database28___mock_MockDatabase_Database15___get_job_by_idNtB5_12ExpectationsNtNtCsl82brYPINY5_4core7default7Default7default
FN:23,_RNvXs9_NtNtNtCsf72If0ieCLb_12orchestrator8database28___mock_MockDatabase_Database33___get_job_by_internal_id_and_typeNtB5_12ExpectationsNtNtCsl82brYPINY5_4core7default7Default7default
FN:23,_RNvXs9_NtNtNtCsf72If0ieCLb_12orchestrator8database28___mock_MockDatabase_Database12___update_jobNtB5_12ExpectationsNtNtCsl82brYPINY5_4core7default7Default7default
FN:23,_RNvXs9_NtNtNtCsf72If0ieCLb_12orchestrator8database28___mock_MockDatabase_Database19___update_job_statusNtB5_12ExpectationsNtNtCsl82brYPINY5_4core7default7Default7default
FN:23,_RNvXs9_NtNtNtCsf72If0ieCLb_12orchestrator8database28___mock_MockDatabase_Database17___update_metadataNtB5_12ExpectationsNtNtCsl82brYPINY5_4core7default7Default7default
FN:23,_RNvXs9_NtNtNtCsf72If0ieCLb_12orchestrator8database28___mock_MockDatabase_Database40___get_latest_job_by_type_and_internal_idNtB5_12ExpectationsNtNtCsl82brYPINY5_4core7default7Default7default
FN:23,_RNvXs9_NtNtNtCsf72If0ieCLb_12orchestrator8database28___mock_MockDatabase_Database28___get_jobs_without_successorNtB5_12ExpectationsNtNtCsl82brYPINY5_4core7default7Default7default
FN:23,_RNvXs9_NtNtNtCsf72If0ieCLb_12orchestrator8database28___mock_MockDatabase_Database33___get_last_successful_job_by_typeNtB5_12ExpectationsNtNtCsl82brYPINY5_4core7default7Default7default
FN:23,_RNvXs9_NtNtNtCsf72If0ieCLb_12orchestrator8database28___mock_MockDatabase_Database40___get_jobs_after_internal_id_by_job_typeNtB5_12ExpectationsNtNtCsl82brYPINY5_4core7default7Default7default
FN:23,_RNvMs2_NtCsf72If0ieCLb_12orchestrator8databaseNtB5_12MockDatabase3new
FN:23,_RNvMs3_NtCsf72If0ieCLb_12orchestrator8databaseNtB5_12MockDatabase17expect_create_job
FN:23,_RNvMs3_NtCsf72If0ieCLb_12orchestrator8databaseNtB5_12MockDatabase38expect_get_job_by_internal_id_and_type
FN:23,_RNvMs3_NtCsf72If0ieCLb_12orchestrator8databaseNtB5_12MockDatabase45expect_get_latest_job_by_type_and_internal_id
FN:23,_RNvMs3_NtCsf72If0ieCLb_12orchestrator8databaseNtB5_12MockDatabase33expect_get_jobs_without_successor
FN:23,_RNvMs3_NtCsf72If0ieCLb_12orchestrator8databaseNtB5_12MockDatabase38expect_get_last_successful_job_by_type
FN:23,_RNvMs3_NtCsf72If0ieCLb_12orchestrator8databaseNtB5_12MockDatabase45expect_get_jobs_after_internal_id_by_job_type
FN:23,_RNvXs4_NtCsf72If0ieCLb_12orchestrator8databaseNtB5_12MockDatabaseNtB5_8Database10create_job
FN:23,_RNCNvXs4_NtCsf72If0ieCLb_12orchestrator8databaseNtB7_12MockDatabaseNtB7_8Database10create_job0B9_
FN:23,_RNvXs4_NtCsf72If0ieCLb_12orchestrator8databaseNtB5_12MockDatabaseNtB5_8Database13get_job_by_id
FN:23,_RNCNvXs4_NtCsf72If0ieCLb_12orchestrator8databaseNtB7_12MockDatabaseNtB7_8Database13get_job_by_id0B9_
FN:23,_RNvXs4_NtCsf72If0ieCLb_12orchestrator8databaseNtB5_12MockDatabaseNtB5_8Database31get_job_by_internal_id_and_type
FN:23,_RNCNvXs4_NtCsf72If0ieCLb_12orchestrator8databaseNtB7_12MockDatabaseNtB7_8Database31get_job_by_internal_id_and_type0B9_
FN:23,_RNvXs4_NtCsf72If0ieCLb_12orchestrator8databaseNtB5_12MockDatabaseNtB5_8Database10update_job
FN:23,_RNCNvXs4_NtCsf72If0ieCLb_12orchestrator8databaseNtB7_12MockDatabaseNtB7_8Database10update_job0B9_
FN:23,_RNvXs4_NtCsf72If0ieCLb_12orchestrator8databaseNtB5_12MockDatabaseNtB5_8Database17update_job_status
FN:23,_RNCNvXs4_NtCsf72If0ieCLb_12orchestrator8databaseNtB7_12MockDatabaseNtB7_8Database17update_job_status0B9_
FN:23,_RNvXs4_NtCsf72If0ieCLb_12orchestrator8databaseNtB5_12MockDatabaseNtB5_8Database15update_metadata
FN:23,_RNCNvXs4_NtCsf72If0ieCLb_12orchestrator8databaseNtB7_12MockDatabaseNtB7_8Database15update_metadata0B9_
FN:23,_RNvXs4_NtCsf72If0ieCLb_12orchestrator8databaseNtB5_12MockDatabaseNtB5_8Database38get_latest_job_by_type_and_internal_id
FN:23,_RNCNvXs4_NtCsf72If0ieCLb_12orchestrator8databaseNtB7_12MockDatabaseNtB7_8Database38get_latest_job_by_type_and_internal_id0B9_
FN:23,_RNvXs4_NtCsf72If0ieCLb_12orchestrator8databaseNtB5_12MockDatabaseNtB5_8Database26get_jobs_without_successor
FN:23,_RNCNvXs4_NtCsf72If0ieCLb_12orchestrator8databaseNtB7_12MockDatabaseNtB7_8Database26get_jobs_without_successor0B9_
FN:23,_RNvXs4_NtCsf72If0ieCLb_12orchestrator8databaseNtB5_12MockDatabaseNtB5_8Database31get_last_successful_job_by_type
FN:23,_RNCNvXs4_NtCsf72If0ieCLb_12orchestrator8databaseNtB7_12MockDatabaseNtB7_8Database31get_last_successful_job_by_type0B9_
FN:23,_RNvXs4_NtCsf72If0ieCLb_12orchestrator8databaseNtB5_12MockDatabaseNtB5_8Database38get_jobs_after_internal_id_by_job_type
FN:23,_RNCNvXs4_NtCsf72If0ieCLb_12orchestrator8databaseNtB7_12MockDatabaseNtB7_8Database38get_jobs_after_internal_id_by_job_type0B9_
FN:23,_RNvXNtCsf72If0ieCLb_12orchestrator8databaseNtB2_12MockDatabaseNtNtCsl82brYPINY5_4core3fmt5Debug3fmt
FN:23,_RNvMs4_NtNtNtCsf72If0ieCLb_12orchestrator8database28___mock_MockDatabase_Database12___create_jobNtB5_6Common11in_sequence
FN:23,_RNvMs4_NtNtNtCsf72If0ieCLb_12orchestrator8database28___mock_MockDatabase_Database12___create_jobNtB5_6Common5never
FN:23,_RINvMs4_NtNtNtCsf72If0ieCLb_12orchestrator8database28___mock_MockDatabase_Database12___create_jobNtB6_6Common4withpEBc_
FN:23,_RINvMs4_NtNtNtCsf72If0ieCLb_12orchestrator8database28___mock_MockDatabase_Database12___create_jobNtB6_6Common8withf_stpEBc_
FN:23,_RINvMs6_NtNtNtCsf72If0ieCLb_12orchestrator8database28___mock_MockDatabase_Database12___create_jobNtB6_11Expectation12return_constpEBc_
FN:23,_RNCINvMs6_NtNtNtCsf72If0ieCLb_12orchestrator8database28___mock_MockDatabase_Database12___create_jobNtB8_11Expectation12return_constpE0Be_
FN:23,_RINvMs6_NtNtNtCsf72If0ieCLb_12orchestrator8database28___mock_MockDatabase_Database12___create_jobNtB6_11Expectation15return_const_stpEBc_
FN:23,_RNCINvMs6_NtNtNtCsf72If0ieCLb_12orchestrator8database28___mock_MockDatabase_Database12___create_jobNtB8_11Expectation15return_const_stpE0Be_
FN:23,_RINvMs6_NtNtNtCsf72If0ieCLb_12orchestrator8database28___mock_MockDatabase_Database12___create_jobNtB6_11Expectation11return_oncepEBc_
FN:23,_RINvMs6_NtNtNtCsf72If0ieCLb_12orchestrator8database28___mock_MockDatabase_Database12___create_jobNtB6_11Expectation14return_once_stpEBc_
FN:23,_RINvMs6_NtNtNtCsf72If0ieCLb_12orchestrator8database28___mock_MockDatabase_Database12___create_jobNtB6_11Expectation12returning_stpEBc_
FN:23,_RNvMs6_NtNtNtCsf72If0ieCLb_12orchestrator8database28___mock_MockDatabase_Database12___create_jobNtB5_11Expectation11in_sequence
FN:23,_RNvMs6_NtNtNtCsf72If0ieCLb_12orchestrator8database28___mock_MockDatabase_Database12___create_jobNtB5_11Expectation5never
FN:23,_RNvMs6_NtNtNtCsf72If0ieCLb_12orchestrator8database28___mock_MockDatabase_Database12___create_jobNtB5_11Expectation3new
FN:23,_RNvMs6_NtNtNtCsf72If0ieCLb_12orchestrator8database28___mock_MockDatabase_Database12___create_jobNtB5_11Expectation4once
FN:23,_RINvMs6_NtNtNtCsf72If0ieCLb_12orchestrator8database28___mock_MockDatabase_Database12___create_jobNtB6_11Expectation4withpEBc_
FN:23,_RINvMs6_NtNtNtCsf72If0ieCLb_12orchestrator8database28___mock_MockDatabase_Database12___create_jobNtB6_11Expectation8withf_stpEBc_
FN:23,_RNvMs8_NtNtNtCsf72If0ieCLb_12orchestrator8database28___mock_MockDatabase_Database12___create_jobNtB5_12Expectations10checkpoint
FN:23,_RNvMs8_NtNtNtCsf72If0ieCLb_12orchestrator8database28___mock_MockDatabase_Database12___create_jobNtB5_12Expectations3new
FN:23,_RNvXs_NtNtNtCsf72If0ieCLb_12orchestrator8database28___mock_MockDatabase_Database15___get_job_by_idNtB4_5RfuncNtNtCsl82brYPINY5_4core7default7Default7default
FN:23,_RNvXs1_NtNtNtCsf72If0ieCLb_12orchestrator8database28___mock_MockDatabase_Database15___get_job_by_idNtB5_7MatcherNtNtCsl82brYPINY5_4core7default7Default7default
FN:23,_RNvXs3_NtNtNtCsf72If0ieCLb_12orchestrator8database28___mock_MockDatabase_Database15___get_job_by_idNtB5_6CommonNtNtCsl82brYPINY5_4core7default7Default7default
FN:23,_RNvMs4_NtNtNtCsf72If0ieCLb_12orchestrator8database28___mock_MockDatabase_Database15___get_job_by_idNtB5_6Common11in_sequence
FN:23,_RNvMs4_NtNtNtCsf72If0ieCLb_12orchestrator8database28___mock_MockDatabase_Database15___get_job_by_idNtB5_6Common5never
FN:23,_RINvMs4_NtNtNtCsf72If0ieCLb_12orchestrator8database28___mock_MockDatabase_Database15___get_job_by_idNtB6_6Common5timespEBc_
FN:23,_RINvMs4_NtNtNtCsf72If0ieCLb_12orchestrator8database28___mock_MockDatabase_Database15___get_job_by_idNtB6_6Common4withpEBc_
FN:23,_RINvMs4_NtNtNtCsf72If0ieCLb_12orchestrator8database28___mock_MockDatabase_Database15___get_job_by_idNtB6_6Common5withfpEBc_
FN:23,_RINvMs4_NtNtNtCsf72If0ieCLb_12orchestrator8database28___mock_MockDatabase_Database15___get_job_by_idNtB6_6Common8withf_stpEBc_
FN:23,_RINvMs6_NtNtNtCsf72If0ieCLb_12orchestrator8database28___mock_MockDatabase_Database15___get_job_by_idNtB6_11Expectation12return_constpEBc_
FN:23,_RNCINvMs6_NtNtNtCsf72If0ieCLb_12orchestrator8database28___mock_MockDatabase_Database15___get_job_by_idNtB8_11Expectation12return_constpE0Be_
FN:23,_RINvMs6_NtNtNtCsf72If0ieCLb_12orchestrator8database28___mock_MockDatabase_Database15___get_job_by_idNtB6_11Expectation15return_const_stpEBc_
FN:23,_RNCINvMs6_NtNtNtCsf72If0ieCLb_12orchestrator8database28___mock_MockDatabase_Database15___get_job_by_idNtB8_11Expectation15return_const_stpE0Be_
FN:23,_RINvMs6_NtNtNtCsf72If0ieCLb_12orchestrator8database28___mock_MockDatabase_Database15___get_job_by_idNtB6_11Expectation11return_oncepEBc_
FN:23,_RINvMs6_NtNtNtCsf72If0ieCLb_12orchestrator8database28___mock_MockDatabase_Database15___get_job_by_idNtB6_11Expectation14return_once_stpEBc_
FN:23,_RINvMs6_NtNtNtCsf72If0ieCLb_12orchestrator8database28___mock_MockDatabase_Database15___get_job_by_idNtB6_11Expectation9returningpEBc_
FN:23,_RINvMs6_NtNtNtCsf72If0ieCLb_12orchestrator8database28___mock_MockDatabase_Database15___get_job_by_idNtB6_11Expectation12returning_stpEBc_
FN:23,_RNvMs6_NtNtNtCsf72If0ieCLb_12orchestrator8database28___mock_MockDatabase_Database15___get_job_by_idNtB5_11Expectation11in_sequence
FN:23,_RNvMs6_NtNtNtCsf72If0ieCLb_12orchestrator8database28___mock_MockDatabase_Database15___get_job_by_idNtB5_11Expectation5never
FN:23,_RNvMs6_NtNtNtCsf72If0ieCLb_12orchestrator8database28___mock_MockDatabase_Database15___get_job_by_idNtB5_11Expectation3new
FN:23,_RNvMs6_NtNtNtCsf72If0ieCLb_12orchestrator8database28___mock_MockDatabase_Database15___get_job_by_idNtB5_11Expectation4once
FN:23,_RINvMs6_NtNtNtCsf72If0ieCLb_12orchestrator8database28___mock_MockDatabase_Database15___get_job_by_idNtB6_11Expectation5timespEBc_
FN:23,_RINvMs6_NtNtNtCsf72If0ieCLb_12orchestrator8database28___mock_MockDatabase_Database15___get_job_by_idNtB6_11Expectation4withpEBc_
FN:23,_RINvMs6_NtNtNtCsf72If0ieCLb_12orchestrator8database28___mock_MockDatabase_Database15___get_job_by_idNtB6_11Expectation5withfpEBc_
FN:23,_RINvMs6_NtNtNtCsf72If0ieCLb_12orchestrator8database28___mock_MockDatabase_Database15___get_job_by_idNtB6_11Expectation8withf_stpEBc_
FN:23,_RNvXs7_NtNtNtCsf72If0ieCLb_12orchestrator8database28___mock_MockDatabase_Database15___get_job_by_idNtB5_11ExpectationNtNtCsl82brYPINY5_4core7default7Default7default
FN:23,_RNvMs8_NtNtNtCsf72If0ieCLb_12orchestrator8database28___mock_MockDatabase_Database15___get_job_by_idNtB5_12Expectations10checkpoint
FN:23,_RNvMs8_NtNtNtCsf72If0ieCLb_12orchestrator8database28___mock_MockDatabase_Database15___get_job_by_idNtB5_12Expectations6expect
FN:23,_RNvMs8_NtNtNtCsf72If0ieCLb_12orchestrator8database28___mock_MockDatabase_Database15___get_job_by_idNtB5_12Expectations3new
FN:23,_RNvMs4_NtNtNtCsf72If0ieCLb_12orchestrator8database28___mock_MockDatabase_Database33___get_job_by_internal_id_and_typeNtB5_6Common11in_sequence
FN:23,_RNvMs4_NtNtNtCsf72If0ieCLb_12orchestrator8database28___mock_MockDatabase_Database33___get_job_by_internal_id_and_typeNtB5_6Common5never
FN:23,_RINvMs4_NtNtNtCsf72If0ieCLb_12orchestrator8database28___mock_MockDatabase_Database33___get_job_by_internal_id_and_typeNtB6_6Common5withfpEBc_
FN:23,_RINvMs4_NtNtNtCsf72If0ieCLb_12orchestrator8database28___mock_MockDatabase_Database33___get_job_by_internal_id_and_typeNtB6_6Common8withf_stpEBc_
FN:23,_RINvMs6_NtNtNtCsf72If0ieCLb_12orchestrator8database28___mock_MockDatabase_Database33___get_job_by_internal_id_and_typeNtB6_11Expectation12return_constpEBc_
FN:23,_RNCINvMs6_NtNtNtCsf72If0ieCLb_12orchestrator8database28___mock_MockDatabase_Database33___get_job_by_internal_id_and_typeNtB8_11Expectation12return_constpE0Be_
FN:23,_RINvMs6_NtNtNtCsf72If0ieCLb_12orchestrator8database28___mock_MockDatabase_Database33___get_job_by_internal_id_and_typeNtB6_11Expectation15return_const_stpEBc_
FN:23,_RNCINvMs6_NtNtNtCsf72If0ieCLb_12orchestrator8database28___mock_MockDatabase_Database33___get_job_by_internal_id_and_typeNtB8_11Expectation15return_const_stpE0Be_
FN:23,_RINvMs6_NtNtNtCsf72If0ieCLb_12orchestrator8database28___mock_MockDatabase_Database33___get_job_by_internal_id_and_typeNtB6_11Expectation11return_oncepEBc_
FN:23,_RINvMs6_NtNtNtCsf72If0ieCLb_12orchestrator8database28___mock_MockDatabase_Database33___get_job_by_internal_id_and_typeNtB6_11Expectation14return_once_stpEBc_
FN:23,_RINvMs6_NtNtNtCsf72If0ieCLb_12orchestrator8database28___mock_MockDatabase_Database33___get_job_by_internal_id_and_typeNtB6_11Expectation12returning_stpEBc_
FN:23,_RNvMs6_NtNtNtCsf72If0ieCLb_12orchestrator8database28___mock_MockDatabase_Database33___get_job_by_internal_id_and_typeNtB5_11Expectation11in_sequence
FN:23,_RNvMs6_NtNtNtCsf72If0ieCLb_12orchestrator8database28___mock_MockDatabase_Database33___get_job_by_internal_id_and_typeNtB5_11Expectation5never
FN:23,_RNvMs6_NtNtNtCsf72If0ieCLb_12orchestrator8database28___mock_MockDatabase_Database33___get_job_by_internal_id_and_typeNtB5_11Expectation3new
FN:23,_RNvMs6_NtNtNtCsf72If0ieCLb_12orchestrator8database28___mock_MockDatabase_Database33___get_job_by_internal_id_and_typeNtB5_11Expectation4once
FN:23,_RINvMs6_NtNtNtCsf72If0ieCLb_12orchestrator8database28___mock_MockDatabase_Database33___get_job_by_internal_id_and_typeNtB6_11Expectation5withfpEBc_
FN:23,_RINvMs6_NtNtNtCsf72If0ieCLb_12orchestrator8database28___mock_MockDatabase_Database33___get_job_by_internal_id_and_typeNtB6_11Expectation8withf_stpEBc_
FN:23,_RNvMs8_NtNtNtCsf72If0ieCLb_12orchestrator8database28___mock_MockDatabase_Database33___get_job_by_internal_id_and_typeNtB5_12Expectations10checkpoint
FN:23,_RNvMs8_NtNtNtCsf72If0ieCLb_12orchestrator8database28___mock_MockDatabase_Database33___get_job_by_internal_id_and_typeNtB5_12Expectations3new
FN:23,_RNvXs_NtNtNtCsf72If0ieCLb_12orchestrator8database28___mock_MockDatabase_Database12___update_jobNtB4_5RfuncNtNtCsl82brYPINY5_4core7default7Default7default
FN:23,_RNvXs1_NtNtNtCsf72If0ieCLb_12orchestrator8database28___mock_MockDatabase_Database12___update_jobNtB5_7MatcherNtNtCsl82brYPINY5_4core7default7Default7default
FN:23,_RNvXs3_NtNtNtCsf72If0ieCLb_12orchestrator8database28___mock_MockDatabase_Database12___update_jobNtB5_6CommonNtNtCsl82brYPINY5_4core7default7Default7default
FN:23,_RNvMs4_NtNtNtCsf72If0ieCLb_12orchestrator8database28___mock_MockDatabase_Database12___update_jobNtB5_6Common11in_sequence
FN:23,_RNvMs4_NtNtNtCsf72If0ieCLb_12orchestrator8database28___mock_MockDatabase_Database12___update_jobNtB5_6Common5never
FN:23,_RINvMs4_NtNtNtCsf72If0ieCLb_12orchestrator8database28___mock_MockDatabase_Database12___update_jobNtB6_6Common5timespEBc_
FN:23,_RINvMs4_NtNtNtCsf72If0ieCLb_12orchestrator8database28___mock_MockDatabase_Database12___update_jobNtB6_6Common4withpEBc_
FN:23,_RINvMs4_NtNtNtCsf72If0ieCLb_12orchestrator8database28___mock_MockDatabase_Database12___update_jobNtB6_6Common5withfpEBc_
FN:23,_RINvMs4_NtNtNtCsf72If0ieCLb_12orchestrator8database28___mock_MockDatabase_Database12___update_jobNtB6_6Common8withf_stpEBc_
FN:23,_RINvMs6_NtNtNtCsf72If0ieCLb_12orchestrator8database28___mock_MockDatabase_Database12___update_jobNtB6_11Expectation12return_constpEBc_
FN:23,_RNCINvMs6_NtNtNtCsf72If0ieCLb_12orchestrator8database28___mock_MockDatabase_Database12___update_jobNtB8_11Expectation12return_constpE0Be_
FN:23,_RINvMs6_NtNtNtCsf72If0ieCLb_12orchestrator8database28___mock_MockDatabase_Database12___update_jobNtB6_11Expectation15return_const_stpEBc_
FN:23,_RNCINvMs6_NtNtNtCsf72If0ieCLb_12orchestrator8database28___mock_MockDatabase_Database12___update_jobNtB8_11Expectation15return_const_stpE0Be_
FN:23,_RINvMs6_NtNtNtCsf72If0ieCLb_12orchestrator8database28___mock_MockDatabase_Database12___update_jobNtB6_11Expectation11return_oncepEBc_
FN:23,_RINvMs6_NtNtNtCsf72If0ieCLb_12orchestrator8database28___mock_MockDatabase_Database12___update_jobNtB6_11Expectation14return_once_stpEBc_
FN:23,_RINvMs6_NtNtNtCsf72If0ieCLb_12orchestrator8database28___mock_MockDatabase_Database12___update_jobNtB6_11Expectation9returningpEBc_
FN:23,_RINvMs6_NtNtNtCsf72If0ieCLb_12orchestrator8database28___mock_MockDatabase_Database12___update_jobNtB6_11Expectation12returning_stpEBc_
FN:23,_RNvMs6_NtNtNtCsf72If0ieCLb_12orchestrator8database28___mock_MockDatabase_Database12___update_jobNtB5_11Expectation11in_sequence
FN:23,_RNvMs6_NtNtNtCsf72If0ieCLb_12orchestrator8database28___mock_MockDatabase_Database12___update_jobNtB5_11Expectation5never
FN:23,_RNvMs6_NtNtNtCsf72If0ieCLb_12orchestrator8database28___mock_MockDatabase_Database12___update_jobNtB5_11Expectation3new
FN:23,_RNvMs6_NtNtNtCsf72If0ieCLb_12orchestrator8database28___mock_MockDatabase_Database12___update_jobNtB5_11Expectation4once
FN:23,_RINvMs6_NtNtNtCsf72If0ieCLb_12orchestrator8database28___mock_MockDatabase_Database12___update_jobNtB6_11Expectation5timespEBc_
FN:23,_RINvMs6_NtNtNtCsf72If0ieCLb_12orchestrator8database28___mock_MockDatabase_Database12___update_jobNtB6_11Expectation4withpEBc_
FN:23,_RINvMs6_NtNtNtCsf72If0ieCLb_12orchestrator8database28___mock_MockDatabase_Database12___update_jobNtB6_11Expectation5withfpEBc_
FN:23,_RINvMs6_NtNtNtCsf72If0ieCLb_12orchestrator8database28___mock_MockDatabase_Database12___update_jobNtB6_11Expectation8withf_stpEBc_
FN:23,_RNvXs7_NtNtNtCsf72If0ieCLb_12orchestrator8database28___mock_MockDatabase_Database12___update_jobNtB5_11ExpectationNtNtCsl82brYPINY5_4core7default7Default7default
FN:23,_RNvMs8_NtNtNtCsf72If0ieCLb_12orchestrator8database28___mock_MockDatabase_Database12___update_jobNtB5_12Expectations10checkpoint
FN:23,_RNvMs8_NtNtNtCsf72If0ieCLb_12orchestrator8database28___mock_MockDatabase_Database12___update_jobNtB5_12Expectations6expect
FN:23,_RNvMs8_NtNtNtCsf72If0ieCLb_12orchestrator8database28___mock_MockDatabase_Database12___update_jobNtB5_12Expectations3new
FN:23,_RNvXs_NtNtNtCsf72If0ieCLb_12orchestrator8database28___mock_MockDatabase_Database19___update_job_statusNtB4_5RfuncNtNtCsl82brYPINY5_4core7default7Default7default
FN:23,_RNvXs1_NtNtNtCsf72If0ieCLb_12orchestrator8database28___mock_MockDatabase_Database19___update_job_statusNtB5_7MatcherNtNtCsl82brYPINY5_4core7default7Default7default
FN:23,_RNvXs3_NtNtNtCsf72If0ieCLb_12orchestrator8database28___mock_MockDatabase_Database19___update_job_statusNtB5_6CommonNtNtCsl82brYPINY5_4core7default7Default7default
FN:23,_RNvMs4_NtNtNtCsf72If0ieCLb_12orchestrator8database28___mock_MockDatabase_Database19___update_job_statusNtB5_6Common11in_sequence
FN:23,_RNvMs4_NtNtNtCsf72If0ieCLb_12orchestrator8database28___mock_MockDatabase_Database19___update_job_statusNtB5_6Common5never
FN:23,_RINvMs4_NtNtNtCsf72If0ieCLb_12orchestrator8database28___mock_MockDatabase_Database19___update_job_statusNtB6_6Common5timespEBc_
FN:23,_RINvMs4_NtNtNtCsf72If0ieCLb_12orchestrator8database28___mock_MockDatabase_Database19___update_job_statusNtB6_6Common4withppEBc_
FN:23,_RINvMs4_NtNtNtCsf72If0ieCLb_12orchestrator8database28___mock_MockDatabase_Database19___update_job_statusNtB6_6Common5withfpEBc_
FN:23,_RINvMs4_NtNtNtCsf72If0ieCLb_12orchestrator8database28___mock_MockDatabase_Database19___update_job_statusNtB6_6Common8withf_stpEBc_
FN:23,_RINvMs6_NtNtNtCsf72If0ieCLb_12orchestrator8database28___mock_MockDatabase_Database19___update_job_statusNtB6_11Expectation12return_constpEBc_
FN:23,_RNCINvMs6_NtNtNtCsf72If0ieCLb_12orchestrator8database28___mock_MockDatabase_Database19___update_job_statusNtB8_11Expectation12return_constpE0Be_
FN:23,_RINvMs6_NtNtNtCsf72If0ieCLb_12orchestrator8database28___mock_MockDatabase_Database19___update_job_statusNtB6_11Expectation15return_const_stpEBc_
FN:23,_RNCINvMs6_NtNtNtCsf72If0ieCLb_12orchestrator8database28___mock_MockDatabase_Database19___update_job_statusNtB8_11Expectation15return_const_stpE0Be_
FN:23,_RINvMs6_NtNtNtCsf72If0ieCLb_12orchestrator8database28___mock_MockDatabase_Database19___update_job_statusNtB6_11Expectation11return_oncepEBc_
FN:23,_RINvMs6_NtNtNtCsf72If0ieCLb_12orchestrator8database28___mock_MockDatabase_Database19___update_job_statusNtB6_11Expectation14return_once_stpEBc_
FN:23,_RINvMs6_NtNtNtCsf72If0ieCLb_12orchestrator8database28___mock_MockDatabase_Database19___update_job_statusNtB6_11Expectation9returningpEBc_
FN:23,_RINvMs6_NtNtNtCsf72If0ieCLb_12orchestrator8database28___mock_MockDatabase_Database19___update_job_statusNtB6_11Expectation12returning_stpEBc_
FN:23,_RNvMs6_NtNtNtCsf72If0ieCLb_12orchestrator8database28___mock_MockDatabase_Database19___update_job_statusNtB5_11Expectation11in_sequence
FN:23,_RNvMs6_NtNtNtCsf72If0ieCLb_12orchestrator8database28___mock_MockDatabase_Database19___update_job_statusNtB5_11Expectation5never
FN:23,_RNvMs6_NtNtNtCsf72If0ieCLb_12orchestrator8database28___mock_MockDatabase_Database19___update_job_statusNtB5_11Expectation3new
FN:23,_RNvMs6_NtNtNtCsf72If0ieCLb_12orchestrator8database28___mock_MockDatabase_Database19___update_job_statusNtB5_11Expectation4once
FN:23,_RINvMs6_NtNtNtCsf72If0ieCLb_12orchestrator8database28___mock_MockDatabase_Database19___update_job_statusNtB6_11Expectation5timespEBc_
FN:23,_RINvMs6_NtNtNtCsf72If0ieCLb_12orchestrator8database28___mock_MockDatabase_Database19___update_job_statusNtB6_11Expectation4withppEBc_
FN:23,_RINvMs6_NtNtNtCsf72If0ieCLb_12orchestrator8database28___mock_MockDatabase_Database19___update_job_statusNtB6_11Expectation5withfpEBc_
FN:23,_RINvMs6_NtNtNtCsf72If0ieCLb_12orchestrator8database28___mock_MockDatabase_Database19___update_job_statusNtB6_11Expectation8withf_stpEBc_
FN:23,_RNvXs7_NtNtNtCsf72If0ieCLb_12orchestrator8database28___mock_MockDatabase_Database19___update_job_statusNtB5_11ExpectationNtNtCsl82brYPINY5_4core7default7Default7default
FN:23,_RNvMs8_NtNtNtCsf72If0ieCLb_12orchestrator8database28___mock_MockDatabase_Database19___update_job_statusNtB5_12Expectations10checkpoint
FN:23,_RNvMs8_NtNtNtCsf72If0ieCLb_12orchestrator8database28___mock_MockDatabase_Database19___update_job_statusNtB5_12Expectations6expect
FN:23,_RNvMs8_NtNtNtCsf72If0ieCLb_12orchestrator8database28___mock_MockDatabase_Database19___update_job_statusNtB5_12Expectations3new
FN:23,_RNvXs_NtNtNtCsf72If0ieCLb_12orchestrator8database28___mock_MockDatabase_Database17___update_metadataNtB4_5RfuncNtNtCsl82brYPINY5_4core7default7Default7default
FN:23,_RNvXs1_NtNtNtCsf72If0ieCLb_12orchestrator8database28___mock_MockDatabase_Database17___update_metadataNtB5_7MatcherNtNtCsl82brYPINY5_4core7default7Default7default
FN:23,_RNvXs3_NtNtNtCsf72If0ieCLb_12orchestrator8database28___mock_MockDatabase_Database17___update_metadataNtB5_6CommonNtNtCsl82brYPINY5_4core7default7Default7default
FN:23,_RNvMs4_NtNtNtCsf72If0ieCLb_12orchestrator8database28___mock_MockDatabase_Database17___update_metadataNtB5_6Common11in_sequence
FN:23,_RNvMs4_NtNtNtCsf72If0ieCLb_12orchestrator8database28___mock_MockDatabase_Database17___update_metadataNtB5_6Common5never
FN:23,_RINvMs4_NtNtNtCsf72If0ieCLb_12orchestrator8database28___mock_MockDatabase_Database17___update_metadataNtB6_6Common5timespEBc_
FN:23,_RINvMs4_NtNtNtCsf72If0ieCLb_12orchestrator8database28___mock_MockDatabase_Database17___update_metadataNtB6_6Common4withppEBc_
FN:23,_RINvMs4_NtNtNtCsf72If0ieCLb_12orchestrator8database28___mock_MockDatabase_Database17___update_metadataNtB6_6Common5withfpEBc_
FN:23,_RINvMs4_NtNtNtCsf72If0ieCLb_12orchestrator8database28___mock_MockDatabase_Database17___update_metadataNtB6_6Common8withf_stpEBc_
FN:23,_RINvMs6_NtNtNtCsf72If0ieCLb_12orchestrator8database28___mock_MockDatabase_Database17___update_metadataNtB6_11Expectation12return_constpEBc_
FN:23,_RNCINvMs6_NtNtNtCsf72If0ieCLb_12orchestrator8database28___mock_MockDatabase_Database17___update_metadataNtB8_11Expectation12return_constpE0Be_
FN:23,_RINvMs6_NtNtNtCsf72If0ieCLb_12orchestrator8database28___mock_MockDatabase_Database17___update_metadataNtB6_11Expectation15return_const_stpEBc_
FN:23,_RNCINvMs6_NtNtNtCsf72If0ieCLb_12orchestrator8database28___mock_MockDatabase_Database17___update_metadataNtB8_11Expectation15return_const_stpE0Be_
FN:23,_RINvMs6_NtNtNtCsf72If0ieCLb_12orchestrator8database28___mock_MockDatabase_Database17___update_metadataNtB6_11Expectation11return_oncepEBc_
FN:23,_RINvMs6_NtNtNtCsf72If0ieCLb_12orchestrator8database28___mock_MockDatabase_Database17___update_metadataNtB6_11Expectation14return_once_stpEBc_
FN:23,_RINvMs6_NtNtNtCsf72If0ieCLb_12orchestrator8database28___mock_MockDatabase_Database17___update_metadataNtB6_11Expectation9returningpEBc_
FN:23,_RINvMs6_NtNtNtCsf72If0ieCLb_12orchestrator8database28___mock_MockDatabase_Database17___update_metadataNtB6_11Expectation12returning_stpEBc_
FN:23,_RNvMs6_NtNtNtCsf72If0ieCLb_12orchestrator8database28___mock_MockDatabase_Database17___update_metadataNtB5_11Expectation11in_sequence
FN:23,_RNvMs6_NtNtNtCsf72If0ieCLb_12orchestrator8database28___mock_MockDatabase_Database17___update_metadataNtB5_11Expectation5never
FN:23,_RNvMs6_NtNtNtCsf72If0ieCLb_12orchestrator8database28___mock_MockDatabase_Database17___update_metadataNtB5_11Expectation3new
FN:23,_RNvMs6_NtNtNtCsf72If0ieCLb_12orchestrator8database28___mock_MockDatabase_Database17___update_metadataNtB5_11Expectation4once
FN:23,_RINvMs6_NtNtNtCsf72If0ieCLb_12orchestrator8database28___mock_MockDatabase_Database17___update_metadataNtB6_11Expectation5timespEBc_
FN:23,_RINvMs6_NtNtNtCsf72If0ieCLb_12orchestrator8database28___mock_MockDatabase_Database17___update_metadataNtB6_11Expectation4withppEBc_
FN:23,_RINvMs6_NtNtNtCsf72If0ieCLb_12orchestrator8database28___mock_MockDatabase_Database17___update_metadataNtB6_11Expectation5withfpEBc_
FN:23,_RINvMs6_NtNtNtCsf72If0ieCLb_12orchestrator8database28___mock_MockDatabase_Database17___update_metadataNtB6_11Expectation8withf_stpEBc_
FN:23,_RNvXs7_NtNtNtCsf72If0ieCLb_12orchestrator8database28___mock_MockDatabase_Database17___update_metadataNtB5_11ExpectationNtNtCsl82brYPINY5_4core7default7Default7default
FN:23,_RNvMs8_NtNtNtCsf72If0ieCLb_12orchestrator8database28___mock_MockDatabase_Database17___update_metadataNtB5_12Expectations10checkpoint
FN:23,_RNvMs8_NtNtNtCsf72If0ieCLb_12orchestrator8database28___mock_MockDatabase_Database17___update_metadataNtB5_12Expectations6expect
FN:23,_RNvMs8_NtNtNtCsf72If0ieCLb_12orchestrator8database28___mock_MockDatabase_Database17___update_metadataNtB5_12Expectations3new
FN:23,_RNvMs4_NtNtNtCsf72If0ieCLb_12orchestrator8database28___mock_MockDatabase_Database40___get_latest_job_by_type_and_internal_idNtB5_6Common11in_sequence
FN:23,_RNvMs4_NtNtNtCsf72If0ieCLb_12orchestrator8database28___mock_MockDatabase_Database40___get_latest_job_by_type_and_internal_idNtB5_6Common5never
FN:23,_RINvMs4_NtNtNtCsf72If0ieCLb_12orchestrator8database28___mock_MockDatabase_Database40___get_latest_job_by_type_and_internal_idNtB6_6Common5withfpEBc_
FN:23,_RINvMs4_NtNtNtCsf72If0ieCLb_12orchestrator8database28___mock_MockDatabase_Database40___get_latest_job_by_type_and_internal_idNtB6_6Common8withf_stpEBc_
FN:23,_RINvMs6_NtNtNtCsf72If0ieCLb_12orchestrator8database28___mock_MockDatabase_Database40___get_latest_job_by_type_and_internal_idNtB6_11Expectation12return_constpEBc_
FN:23,_RNCINvMs6_NtNtNtCsf72If0ieCLb_12orchestrator8database28___mock_MockDatabase_Database40___get_latest_job_by_type_and_internal_idNtB8_11Expectation12return_constpE0Be_
FN:23,_RINvMs6_NtNtNtCsf72If0ieCLb_12orchestrator8database28___mock_MockDatabase_Database40___get_latest_job_by_type_and_internal_idNtB6_11Expectation15return_const_stpEBc_
FN:23,_RNCINvMs6_NtNtNtCsf72If0ieCLb_12orchestrator8database28___mock_MockDatabase_Database40___get_latest_job_by_type_and_internal_idNtB8_11Expectation15return_const_stpE0Be_
FN:23,_RINvMs6_NtNtNtCsf72If0ieCLb_12orchestrator8database28___mock_MockDatabase_Database40___get_latest_job_by_type_and_internal_idNtB6_11Expectation11return_oncepEBc_
FN:23,_RINvMs6_NtNtNtCsf72If0ieCLb_12orchestrator8database28___mock_MockDatabase_Database40___get_latest_job_by_type_and_internal_idNtB6_11Expectation14return_once_stpEBc_
FN:23,_RINvMs6_NtNtNtCsf72If0ieCLb_12orchestrator8database28___mock_MockDatabase_Database40___get_latest_job_by_type_and_internal_idNtB6_11Expectation12returning_stpEBc_
FN:23,_RNvMs6_NtNtNtCsf72If0ieCLb_12orchestrator8database28___mock_MockDatabase_Database40___get_latest_job_by_type_and_internal_idNtB5_11Expectation11in_sequence
FN:23,_RNvMs6_NtNtNtCsf72If0ieCLb_12orchestrator8database28___mock_MockDatabase_Database40___get_latest_job_by_type_and_internal_idNtB5_11Expectation5never
FN:23,_RNvMs6_NtNtNtCsf72If0ieCLb_12orchestrator8database28___mock_MockDatabase_Database40___get_latest_job_by_type_and_internal_idNtB5_11Expectation3new
FN:23,_RNvMs6_NtNtNtCsf72If0ieCLb_12orchestrator8database28___mock_MockDatabase_Database40___get_latest_job_by_type_and_internal_idNtB5_11Expectation4once
FN:23,_RINvMs6_NtNtNtCsf72If0ieCLb_12orchestrator8database28___mock_MockDatabase_Database40___get_latest_job_by_type_and_internal_idNtB6_11Expectation5withfpEBc_
FN:23,_RINvMs6_NtNtNtCsf72If0ieCLb_12orchestrator8database28___mock_MockDatabase_Database40___get_latest_job_by_type_and_internal_idNtB6_11Expectation8withf_stpEBc_
FN:23,_RNvMs8_NtNtNtCsf72If0ieCLb_12orchestrator8database28___mock_MockDatabase_Database40___get_latest_job_by_type_and_internal_idNtB5_12Expectations10checkpoint
FN:23,_RNvMs8_NtNtNtCsf72If0ieCLb_12orchestrator8database28___mock_MockDatabase_Database40___get_latest_job_by_type_and_internal_idNtB5_12Expectations3new
FN:23,_RNvMs4_NtNtNtCsf72If0ieCLb_12orchestrator8database28___mock_MockDatabase_Database28___get_jobs_without_successorNtB5_6Common11in_sequence
FN:23,_RNvMs4_NtNtNtCsf72If0ieCLb_12orchestrator8database28___mock_MockDatabase_Database28___get_jobs_without_successorNtB5_6Common5never
FN:23,_RINvMs4_NtNtNtCsf72If0ieCLb_12orchestrator8database28___mock_MockDatabase_Database28___get_jobs_without_successorNtB6_6Common4withpppEBc_
FN:23,_RINvMs4_NtNtNtCsf72If0ieCLb_12orchestrator8database28___mock_MockDatabase_Database28___get_jobs_without_successorNtB6_6Common8withf_stpEBc_
FN:23,_RINvMs6_NtNtNtCsf72If0ieCLb_12orchestrator8database28___mock_MockDatabase_Database28___get_jobs_without_successorNtB6_11Expectation12return_constpEBc_
FN:23,_RNCINvMs6_NtNtNtCsf72If0ieCLb_12orchestrator8database28___mock_MockDatabase_Database28___get_jobs_without_successorNtB8_11Expectation12return_constpE0Be_
FN:23,_RINvMs6_NtNtNtCsf72If0ieCLb_12orchestrator8database28___mock_MockDatabase_Database28___get_jobs_without_successorNtB6_11Expectation15return_const_stpEBc_
FN:23,_RNCINvMs6_NtNtNtCsf72If0ieCLb_12orchestrator8database28___mock_MockDatabase_Database28___get_jobs_without_successorNtB8_11Expectation15return_const_stpE0Be_
FN:23,_RINvMs6_NtNtNtCsf72If0ieCLb_12orchestrator8database28___mock_MockDatabase_Database28___get_jobs_without_successorNtB6_11Expectation11return_oncepEBc_
FN:23,_RINvMs6_NtNtNtCsf72If0ieCLb_12orchestrator8database28___mock_MockDatabase_Database28___get_jobs_without_successorNtB6_11Expectation14return_once_stpEBc_
FN:23,_RINvMs6_NtNtNtCsf72If0ieCLb_12orchestrator8database28___mock_MockDatabase_Database28___get_jobs_without_successorNtB6_11Expectation12returning_stpEBc_
FN:23,_RNvMs6_NtNtNtCsf72If0ieCLb_12orchestrator8database28___mock_MockDatabase_Database28___get_jobs_without_successorNtB5_11Expectation11in_sequence
FN:23,_RNvMs6_NtNtNtCsf72If0ieCLb_12orchestrator8database28___mock_MockDatabase_Database28___get_jobs_without_successorNtB5_11Expectation5never
FN:23,_RNvMs6_NtNtNtCsf72If0ieCLb_12orchestrator8database28___mock_MockDatabase_Database28___get_jobs_without_successorNtB5_11Expectation3new
FN:23,_RNvMs6_NtNtNtCsf72If0ieCLb_12orchestrator8database28___mock_MockDatabase_Database28___get_jobs_without_successorNtB5_11Expectation4once
FN:23,_RINvMs6_NtNtNtCsf72If0ieCLb_12orchestrator8database28___mock_MockDatabase_Database28___get_jobs_without_successorNtB6_11Expectation4withpppEBc_
FN:23,_RINvMs6_NtNtNtCsf72If0ieCLb_12orchestrator8database28___mock_MockDatabase_Database28___get_jobs_without_successorNtB6_11Expectation8withf_stpEBc_
FN:23,_RNvMs8_NtNtNtCsf72If0ieCLb_12orchestrator8database28___mock_MockDatabase_Database28___get_jobs_without_successorNtB5_12Expectations10checkpoint
FN:23,_RNvMs8_NtNtNtCsf72If0ieCLb_12orchestrator8database28___mock_MockDatabase_Database28___get_jobs_without_successorNtB5_12Expectations3new
FN:23,_RNvMs4_NtNtNtCsf72If0ieCLb_12orchestrator8database28___mock_MockDatabase_Database33___get_last_successful_job_by_typeNtB5_6Common11in_sequence
FN:23,_RNvMs4_NtNtNtCsf72If0ieCLb_12orchestrator8database28___mock_MockDatabase_Database33___get_last_successful_job_by_typeNtB5_6Common5never
FN:23,_RINvMs4_NtNtNtCsf72If0ieCLb_12orchestrator8database28___mock_MockDatabase_Database33___get_last_successful_job_by_typeNtB6_6Common5withfpEBc_
FN:23,_RINvMs4_NtNtNtCsf72If0ieCLb_12orchestrator8database28___mock_MockDatabase_Database33___get_last_successful_job_by_typeNtB6_6Common8withf_stpEBc_
FN:23,_RINvMs6_NtNtNtCsf72If0ieCLb_12orchestrator8database28___mock_MockDatabase_Database33___get_last_successful_job_by_typeNtB6_11Expectation12return_constpEBc_
FN:23,_RNCINvMs6_NtNtNtCsf72If0ieCLb_12orchestrator8database28___mock_MockDatabase_Database33___get_last_successful_job_by_typeNtB8_11Expectation12return_constpE0Be_
FN:23,_RINvMs6_NtNtNtCsf72If0ieCLb_12orchestrator8database28___mock_MockDatabase_Database33___get_last_successful_job_by_typeNtB6_11Expectation15return_const_stpEBc_
FN:23,_RNCINvMs6_NtNtNtCsf72If0ieCLb_12orchestrator8database28___mock_MockDatabase_Database33___get_last_successful_job_by_typeNtB8_11Expectation15return_const_stpE0Be_
FN:23,_RINvMs6_NtNtNtCsf72If0ieCLb_12orchestrator8database28___mock_MockDatabase_Database33___get_last_successful_job_by_typeNtB6_11Expectation11return_oncepEBc_
FN:23,_RINvMs6_NtNtNtCsf72If0ieCLb_12orchestrator8database28___mock_MockDatabase_Database33___get_last_successful_job_by_typeNtB6_11Expectation14return_once_stpEBc_
FN:23,_RINvMs6_NtNtNtCsf72If0ieCLb_12orchestrator8database28___mock_MockDatabase_Database33___get_last_successful_job_by_typeNtB6_11Expectation12returning_stpEBc_
FN:23,_RNvMs6_NtNtNtCsf72If0ieCLb_12orchestrator8database28___mock_MockDatabase_Database33___get_last_successful_job_by_typeNtB5_11Expectation11in_sequence
FN:23,_RNvMs6_NtNtNtCsf72If0ieCLb_12orchestrator8database28___mock_MockDatabase_Database33___get_last_successful_job_by_typeNtB5_11Expectation5never
FN:23,_RNvMs6_NtNtNtCsf72If0ieCLb_12orchestrator8database28___mock_MockDatabase_Database33___get_last_successful_job_by_typeNtB5_11Expectation3new
FN:23,_RNvMs6_NtNtNtCsf72If0ieCLb_12orchestrator8database28___mock_MockDatabase_Database33___get_last_successful_job_by_typeNtB5_11Expectation4once
FN:23,_RINvMs6_NtNtNtCsf72If0ieCLb_12orchestrator8database28___mock_MockDatabase_Database33___get_last_successful_job_by_typeNtB6_11Expectation5withfpEBc_
FN:23,_RINvMs6_NtNtNtCsf72If0ieCLb_12orchestrator8database28___mock_MockDatabase_Database33___get_last_successful_job_by_typeNtB6_11Expectation8withf_stpEBc_
FN:23,_RNvMs8_NtNtNtCsf72If0ieCLb_12orchestrator8database28___mock_MockDatabase_Database33___get_last_successful_job_by_typeNtB5_12Expectations10checkpoint
FN:23,_RNvMs8_NtNtNtCsf72If0ieCLb_12orchestrator8database28___mock_MockDatabase_Database33___get_last_successful_job_by_typeNtB5_12Expectations3new
FN:23,_RNvMs4_NtNtNtCsf72If0ieCLb_12orchestrator8database28___mock_MockDatabase_Database40___get_jobs_after_internal_id_by_job_typeNtB5_6Common11in_sequence
FN:23,_RNvMs4_NtNtNtCsf72If0ieCLb_12orchestrator8database28___mock_MockDatabase_Database40___get_jobs_after_internal_id_by_job_typeNtB5_6Common5never
FN:23,_RINvMs4_NtNtNtCsf72If0ieCLb_12orchestrator8database28___mock_MockDatabase_Database40___get_jobs_after_internal_id_by_job_typeNtB6_6Common5timespEBc_
FN:23,_RINvMs4_NtNtNtCsf72If0ieCLb_12orchestrator8database28___mock_MockDatabase_Database40___get_jobs_after_internal_id_by_job_typeNtB6_6Common5withfpEBc_
FN:23,_RINvMs4_NtNtNtCsf72If0ieCLb_12orchestrator8database28___mock_MockDatabase_Database40___get_jobs_after_internal_id_by_job_typeNtB6_6Common8withf_stpEBc_
FN:23,_RINvMs6_NtNtNtCsf72If0ieCLb_12orchestrator8database28___mock_MockDatabase_Database40___get_jobs_after_internal_id_by_job_typeNtB6_11Expectation12return_constpEBc_
FN:23,_RNCINvMs6_NtNtNtCsf72If0ieCLb_12orchestrator8database28___mock_MockDatabase_Database40___get_jobs_after_internal_id_by_job_typeNtB8_11Expectation12return_constpE0Be_
FN:23,_RINvMs6_NtNtNtCsf72If0ieCLb_12orchestrator8database28___mock_MockDatabase_Database40___get_jobs_after_internal_id_by_job_typeNtB6_11Expectation15return_const_stpEBc_
FN:23,_RNCINvMs6_NtNtNtCsf72If0ieCLb_12orchestrator8database28___mock_MockDatabase_Database40___get_jobs_after_internal_id_by_job_typeNtB8_11Expectation15return_const_stpE0Be_
FN:23,_RINvMs6_NtNtNtCsf72If0ieCLb_12orchestrator8database28___mock_MockDatabase_Database40___get_jobs_after_internal_id_by_job_typeNtB6_11Expectation11return_oncepEBc_
FN:23,_RINvMs6_NtNtNtCsf72If0ieCLb_12orchestrator8database28___mock_MockDatabase_Database40___get_jobs_after_internal_id_by_job_typeNtB6_11Expectation14return_once_stpEBc_
FN:23,_RINvMs6_NtNtNtCsf72If0ieCLb_12orchestrator8database28___mock_MockDatabase_Database40___get_jobs_after_internal_id_by_job_typeNtB6_11Expectation12returning_stpEBc_
FN:23,_RNvMs6_NtNtNtCsf72If0ieCLb_12orchestrator8database28___mock_MockDatabase_Database40___get_jobs_after_internal_id_by_job_typeNtB5_11Expectation11in_sequence
FN:23,_RNvMs6_NtNtNtCsf72If0ieCLb_12orchestrator8database28___mock_MockDatabase_Database40___get_jobs_after_internal_id_by_job_typeNtB5_11Expectation5never
FN:23,_RNvMs6_NtNtNtCsf72If0ieCLb_12orchestrator8database28___mock_MockDatabase_Database40___get_jobs_after_internal_id_by_job_typeNtB5_11Expectation3new
FN:23,_RNvMs6_NtNtNtCsf72If0ieCLb_12orchestrator8database28___mock_MockDatabase_Database40___get_jobs_after_internal_id_by_job_typeNtB5_11Expectation4once
FN:23,_RINvMs6_NtNtNtCsf72If0ieCLb_12orchestrator8database28___mock_MockDatabase_Database40___get_jobs_after_internal_id_by_job_typeNtB6_11Expectation5timespEBc_
FN:23,_RINvMs6_NtNtNtCsf72If0ieCLb_12orchestrator8database28___mock_MockDatabase_Database40___get_jobs_after_internal_id_by_job_typeNtB6_11Expectation5withfpEBc_
FN:23,_RINvMs6_NtNtNtCsf72If0ieCLb_12orchestrator8database28___mock_MockDatabase_Database40___get_jobs_after_internal_id_by_job_typeNtB6_11Expectation8withf_stpEBc_
FN:23,_RNvMs8_NtNtNtCsf72If0ieCLb_12orchestrator8database28___mock_MockDatabase_Database40___get_jobs_after_internal_id_by_job_typeNtB5_12Expectations10checkpoint
FN:23,_RNvMs8_NtNtNtCsf72If0ieCLb_12orchestrator8database28___mock_MockDatabase_Database40___get_jobs_after_internal_id_by_job_typeNtB5_12Expectations3new
FN:23,_RNvMs1_NtCsf72If0ieCLb_12orchestrator8databaseNtB5_21MockDatabase_Database10checkpoint
FN:23,_RNvMs2_NtCsf72If0ieCLb_12orchestrator8databaseNtB5_12MockDatabase10checkpoint
FN:23,_RNvMs3_NtCsf72If0ieCLb_12orchestrator8databaseNtB5_12MockDatabase20expect_get_job_by_id
FN:23,_RNvMs3_NtCsf72If0ieCLb_12orchestrator8databaseNtB5_12MockDatabase17expect_update_job
FN:23,_RNvMs3_NtCsf72If0ieCLb_12orchestrator8databaseNtB5_12MockDatabase24expect_update_job_status
FN:23,_RNvMs3_NtCsf72If0ieCLb_12orchestrator8databaseNtB5_12MockDatabase22expect_update_metadata
FN:23,_RINvMs6_NtNtNtCsf72If0ieCLb_12orchestrator8database28___mock_MockDatabase_Database12___create_jobNtB6_11Expectation5withfNCNvNtNtNtBc_5tests7workers5utils46db_create_job_expectations_update_state_worker0EBc_
FN:23,_RINvMs6_NtNtNtCsf72If0ieCLb_12orchestrator8database28___mock_MockDatabase_Database12___create_jobNtB6_11Expectation5withfNCNvNtNtNtBc_5tests7workers5utils24db_checks_proving_workers_0EBc_
FN:23,_RNvMNtNtNtCsf72If0ieCLb_12orchestrator8database28___mock_MockDatabase_Database12___update_jobNtB2_5Rfunc8call_mut
FN:23,_RNvMs0_NtNtNtCsf72If0ieCLb_12orchestrator8database28___mock_MockDatabase_Database12___update_jobNtB5_7Matcher7matches
FN:23,_RNCNvMs0_NtNtNtCsf72If0ieCLb_12orchestrator8database28___mock_MockDatabase_Database12___update_jobNtB7_7Matcher7matches0Bd_
FN:23,_RNvXs2_NtNtNtCsf72If0ieCLb_12orchestrator8database28___mock_MockDatabase_Database12___update_jobNtB5_7MatcherNtNtCsl82brYPINY5_4core3fmt7Display3fmt
FN:23,_RNvMs4_NtNtNtCsf72If0ieCLb_12orchestrator8database28___mock_MockDatabase_Database12___update_jobNtB5_6Common4call
FN:23,_RNvMs4_NtNtNtCsf72If0ieCLb_12orchestrator8database28___mock_MockDatabase_Database12___update_jobNtB5_6Common7is_done
FN:23,_RNvMs4_NtNtNtCsf72If0ieCLb_12orchestrator8database28___mock_MockDatabase_Database12___update_jobNtB5_6Common7matches
FN:23,_RNvMs4_NtNtNtCsf72If0ieCLb_12orchestrator8database28___mock_MockDatabase_Database12___update_jobNtB5_6Common16satisfy_sequence
FN:23,_RNvMs4_NtNtNtCsf72If0ieCLb_12orchestrator8database28___mock_MockDatabase_Database12___update_jobNtB5_6Common15verify_sequence
FN:23,_RNvXs5_NtNtNtCsf72If0ieCLb_12orchestrator8database28___mock_MockDatabase_Database12___update_jobNtB5_6CommonNtNtNtCsl82brYPINY5_4core3ops4drop4Drop4drop
FN:23,_RNvMs6_NtNtNtCsf72If0ieCLb_12orchestrator8database28___mock_MockDatabase_Database12___update_jobNtB5_11Expectation4call
FN:23,_RNvMs6_NtNtNtCsf72If0ieCLb_12orchestrator8database28___mock_MockDatabase_Database12___update_jobNtB5_11Expectation7is_done
FN:23,_RNvMs6_NtNtNtCsf72If0ieCLb_12orchestrator8database28___mock_MockDatabase_Database12___update_jobNtB5_11Expectation7matches
FN:23,_RNvMsa_NtNtNtCsf72If0ieCLb_12orchestrator8database28___mock_MockDatabase_Database12___update_jobNtB5_12Expectations4call
FN:23,_RNCNvMsa_NtNtNtCsf72If0ieCLb_12orchestrator8database28___mock_MockDatabase_Database12___update_jobNtB7_12Expectations4calls_0Bd_
FN:23,_RNCNvMsa_NtNtNtCsf72If0ieCLb_12orchestrator8database28___mock_MockDatabase_Database12___update_jobNtB7_12Expectations4call0Bd_
FN:23,_RNvMNtNtNtCsf72If0ieCLb_12orchestrator8database28___mock_MockDatabase_Database17___update_metadataNtB2_5Rfunc8call_mut
FN:23,_RNvMs0_NtNtNtCsf72If0ieCLb_12orchestrator8database28___mock_MockDatabase_Database17___update_metadataNtB5_7Matcher7matches
FN:23,_RNCNvMs0_NtNtNtCsf72If0ieCLb_12orchestrator8database28___mock_MockDatabase_Database17___update_metadataNtB7_7Matcher7matches0Bd_
FN:23,_RNvXs2_NtNtNtCsf72If0ieCLb_12orchestrator8database28___mock_MockDatabase_Database17___update_metadataNtB5_7MatcherNtNtCsl82brYPINY5_4core3fmt7Display3fmt
FN:23,_RNvMs4_NtNtNtCsf72If0ieCLb_12orchestrator8database28___mock_MockDatabase_Database17___update_metadataNtB5_6Common4call
FN:23,_RNvMs4_NtNtNtCsf72If0ieCLb_12orchestrator8database28___mock_MockDatabase_Database17___update_metadataNtB5_6Common7is_done
FN:23,_RNvMs4_NtNtNtCsf72If0ieCLb_12orchestrator8database28___mock_MockDatabase_Database17___update_metadataNtB5_6Common7matches
FN:23,_RNvMs4_NtNtNtCsf72If0ieCLb_12orchestrator8database28___mock_MockDatabase_Database17___update_metadataNtB5_6Common16satisfy_sequence
FN:23,_RNvMs4_NtNtNtCsf72If0ieCLb_12orchestrator8database28___mock_MockDatabase_Database17___update_metadataNtB5_6Common15verify_sequence
FN:23,_RNvXs5_NtNtNtCsf72If0ieCLb_12orchestrator8database28___mock_MockDatabase_Database17___update_metadataNtB5_6CommonNtNtNtCsl82brYPINY5_4core3ops4drop4Drop4drop
FN:23,_RNvMs6_NtNtNtCsf72If0ieCLb_12orchestrator8database28___mock_MockDatabase_Database17___update_metadataNtB5_11Expectation4call
FN:23,_RNvMs6_NtNtNtCsf72If0ieCLb_12orchestrator8database28___mock_MockDatabase_Database17___update_metadataNtB5_11Expectation7is_done
FN:23,_RNvMs6_NtNtNtCsf72If0ieCLb_12orchestrator8database28___mock_MockDatabase_Database17___update_metadataNtB5_11Expectation7matches
FN:23,_RNvMsa_NtNtNtCsf72If0ieCLb_12orchestrator8database28___mock_MockDatabase_Database17___update_metadataNtB5_12Expectations4call
FN:23,_RNCNvMsa_NtNtNtCsf72If0ieCLb_12orchestrator8database28___mock_MockDatabase_Database17___update_metadataNtB7_12Expectations4calls_0Bd_
FN:23,_RNCNvMsa_NtNtNtCsf72If0ieCLb_12orchestrator8database28___mock_MockDatabase_Database17___update_metadataNtB7_12Expectations4call0Bd_
FN:23,_RNvMNtNtNtCsf72If0ieCLb_12orchestrator8database28___mock_MockDatabase_Database33___get_last_successful_job_by_typeNtB2_5Rfunc8call_mut
FN:23,_RNvMs0_NtNtNtCsf72If0ieCLb_12orchestrator8database28___mock_MockDatabase_Database33___get_last_successful_job_by_typeNtB5_7Matcher7matches
FN:23,_RNCNvMs0_NtNtNtCsf72If0ieCLb_12orchestrator8database28___mock_MockDatabase_Database33___get_last_successful_job_by_typeNtB7_7Matcher7matches0Bd_
FN:23,_RNvXs2_NtNtNtCsf72If0ieCLb_12orchestrator8database28___mock_MockDatabase_Database33___get_last_successful_job_by_typeNtB5_7MatcherNtNtCsl82brYPINY5_4core3fmt7Display3fmt
FN:23,_RNvMs4_NtNtNtCsf72If0ieCLb_12orchestrator8database28___mock_MockDatabase_Database33___get_last_successful_job_by_typeNtB5_6Common4call
FN:23,_RNvMs4_NtNtNtCsf72If0ieCLb_12orchestrator8database28___mock_MockDatabase_Database33___get_last_successful_job_by_typeNtB5_6Common7is_done
FN:23,_RNvMs4_NtNtNtCsf72If0ieCLb_12orchestrator8database28___mock_MockDatabase_Database33___get_last_successful_job_by_typeNtB5_6Common7matches
FN:23,_RNvMs4_NtNtNtCsf72If0ieCLb_12orchestrator8database28___mock_MockDatabase_Database33___get_last_successful_job_by_typeNtB5_6Common16satisfy_sequence
FN:23,_RINvMs4_NtNtNtCsf72If0ieCLb_12orchestrator8database28___mock_MockDatabase_Database33___get_last_successful_job_by_typeNtB6_6Common4withINtNtCshPsaE7IPXTr_10predicates3ord11EqPredicateNtNtNtBc_4jobs5types7JobTypeEEBc_
FN:23,_RNvMs4_NtNtNtCsf72If0ieCLb_12orchestrator8database28___mock_MockDatabase_Database33___get_last_successful_job_by_typeNtB5_6Common15verify_sequence
FN:23,_RNvXs5_NtNtNtCsf72If0ieCLb_12orchestrator8database28___mock_MockDatabase_Database33___get_last_successful_job_by_typeNtB5_6CommonNtNtNtCsl82brYPINY5_4core3ops4drop4Drop4drop
FN:23,_RNvMs6_NtNtNtCsf72If0ieCLb_12orchestrator8database28___mock_MockDatabase_Database33___get_last_successful_job_by_typeNtB5_11Expectation4call
FN:23,_RINvMs6_NtNtNtCsf72If0ieCLb_12orchestrator8database28___mock_MockDatabase_Database33___get_last_successful_job_by_typeNtB6_11Expectation9returningNCNCNvNtNtNtBc_5tests7workers12update_state24test_update_state_worker00EBc_
FN:23,_RINvMs6_NtNtNtCsf72If0ieCLb_12orchestrator8database28___mock_MockDatabase_Database33___get_last_successful_job_by_typeNtB6_11Expectation9returningNCNCNvNtNtNtBc_5tests7workers12update_state24test_update_state_worker0s_0EBc_
FN:23,_RNvMs6_NtNtNtCsf72If0ieCLb_12orchestrator8database28___mock_MockDatabase_Database33___get_last_successful_job_by_typeNtB5_11Expectation7is_done
FN:23,_RNvMs6_NtNtNtCsf72If0ieCLb_12orchestrator8database28___mock_MockDatabase_Database33___get_last_successful_job_by_typeNtB5_11Expectation7matches
FN:23,_RINvMs6_NtNtNtCsf72If0ieCLb_12orchestrator8database28___mock_MockDatabase_Database33___get_last_successful_job_by_typeNtB6_11Expectation5timesjEBc_
FN:23,_RINvMs4_NtNtNtCsf72If0ieCLb_12orchestrator8database28___mock_MockDatabase_Database33___get_last_successful_job_by_typeNtB6_6Common5timesjEBc_
FN:23,_RINvMs6_NtNtNtCsf72If0ieCLb_12orchestrator8database28___mock_MockDatabase_Database33___get_last_successful_job_by_typeNtB6_11Expectation4withINtNtCshPsaE7IPXTr_10predicates3ord11EqPredicateNtNtNtBc_4jobs5types7JobTypeEEBc_
FN:23,_RNvXs7_NtNtNtCsf72If0ieCLb_12orchestrator8database28___mock_MockDatabase_Database33___get_last_successful_job_by_typeNtB5_11ExpectationNtNtCsl82brYPINY5_4core7default7Default7default
FN:23,_RNvXs3_NtNtNtCsf72If0ieCLb_12orchestrator8database28___mock_MockDatabase_Database33___get_last_successful_job_by_typeNtB5_6CommonNtNtCsl82brYPINY5_4core7default7Default7default
FN:23,_RNvXs1_NtNtNtCsf72If0ieCLb_12orchestrator8database28___mock_MockDatabase_Database33___get_last_successful_job_by_typeNtB5_7MatcherNtNtCsl82brYPINY5_4core7default7Default7default
FN:23,_RNvXs_NtNtNtCsf72If0ieCLb_12orchestrator8database28___mock_MockDatabase_Database33___get_last_successful_job_by_typeNtB4_5RfuncNtNtCsl82brYPINY5_4core7default7Default7default
FN:23,_RNvMs8_NtNtNtCsf72If0ieCLb_12orchestrator8database28___mock_MockDatabase_Database33___get_last_successful_job_by_typeNtB5_12Expectations6expect
FN:23,_RNvMsa_NtNtNtCsf72If0ieCLb_12orchestrator8database28___mock_MockDatabase_Database33___get_last_successful_job_by_typeNtB5_12Expectations4call
FN:23,_RNCNvMsa_NtNtNtCsf72If0ieCLb_12orchestrator8database28___mock_MockDatabase_Database33___get_last_successful_job_by_typeNtB7_12Expectations4calls_0Bd_
FN:23,_RNCNvMsa_NtNtNtCsf72If0ieCLb_12orchestrator8database28___mock_MockDatabase_Database33___get_last_successful_job_by_typeNtB7_12Expectations4call0Bd_
FN:23,_RINvMs6_NtNtNtCsf72If0ieCLb_12orchestrator8database28___mock_MockDatabase_Database33___get_job_by_internal_id_and_typeNtB6_11Expectation4withINtNtCshPsaE7IPXTr_10predicates3ord11EqPredicateNtNtCshB4XevuvN1H_5alloc6string6StringEIB2g_NtNtNtBc_4jobs5types7JobTypeEEBc_
FNDA:0,_RNvMNtNtNtCsf72If0ieCLb_12orchestrator8database28___mock_MockDatabase_Database19___update_job_statusNtB2_5Rfunc8call_mut
FNDA:0,_RNvMs0_NtNtNtCsf72If0ieCLb_12orchestrator8database28___mock_MockDatabase_Database19___update_job_statusNtB5_7Matcher7matches
FNDA:0,_RNCNvMs0_NtNtNtCsf72If0ieCLb_12orchestrator8database28___mock_MockDatabase_Database19___update_job_statusNtB7_7Matcher7matches0Bd_
FNDA:0,_RNvXs2_NtNtNtCsf72If0ieCLb_12orchestrator8database28___mock_MockDatabase_Database19___update_job_statusNtB5_7MatcherNtNtCsl82brYPINY5_4core3fmt7Display3fmt
FNDA:0,_RNvMs4_NtNtNtCsf72If0ieCLb_12orchestrator8database28___mock_MockDatabase_Database19___update_job_statusNtB5_6Common4call
FNDA:0,_RNvMs4_NtNtNtCsf72If0ieCLb_12orchestrator8database28___mock_MockDatabase_Database19___update_job_statusNtB5_6Common7is_done
FNDA:0,_RNvMs4_NtNtNtCsf72If0ieCLb_12orchestrator8database28___mock_MockDatabase_Database19___update_job_statusNtB5_6Common7matches
FNDA:0,_RNvMs4_NtNtNtCsf72If0ieCLb_12orchestrator8database28___mock_MockDatabase_Database19___update_job_statusNtB5_6Common16satisfy_sequence
FNDA:0,_RNvMs4_NtNtNtCsf72If0ieCLb_12orchestrator8database28___mock_MockDatabase_Database19___update_job_statusNtB5_6Common15verify_sequence
FNDA:0,_RNvXs5_NtNtNtCsf72If0ieCLb_12orchestrator8database28___mock_MockDatabase_Database19___update_job_statusNtB5_6CommonNtNtNtCsl82brYPINY5_4core3ops4drop4Drop4drop
FNDA:0,_RNvMs6_NtNtNtCsf72If0ieCLb_12orchestrator8database28___mock_MockDatabase_Database19___update_job_statusNtB5_11Expectation4call
FNDA:0,_RNvMs6_NtNtNtCsf72If0ieCLb_12orchestrator8database28___mock_MockDatabase_Database19___update_job_statusNtB5_11Expectation7is_done
FNDA:0,_RNvMs6_NtNtNtCsf72If0ieCLb_12orchestrator8database28___mock_MockDatabase_Database19___update_job_statusNtB5_11Expectation7matches
FNDA:0,_RNvMsa_NtNtNtCsf72If0ieCLb_12orchestrator8database28___mock_MockDatabase_Database19___update_job_statusNtB5_12Expectations4call
FNDA:0,_RNCNvMsa_NtNtNtCsf72If0ieCLb_12orchestrator8database28___mock_MockDatabase_Database19___update_job_statusNtB7_12Expectations4calls_0Bd_
FNDA:0,_RNCNvMsa_NtNtNtCsf72If0ieCLb_12orchestrator8database28___mock_MockDatabase_Database19___update_job_statusNtB7_12Expectations4call0Bd_
FNDA:2,_RNvMNtNtNtCsf72If0ieCLb_12orchestrator8database28___mock_MockDatabase_Database40___get_latest_job_by_type_and_internal_idNtB2_5Rfunc8call_mut
FNDA:2,_RNvMs0_NtNtNtCsf72If0ieCLb_12orchestrator8database28___mock_MockDatabase_Database40___get_latest_job_by_type_and_internal_idNtB5_7Matcher7matches
FNDA:2,_RNCNvMs0_NtNtNtCsf72If0ieCLb_12orchestrator8database28___mock_MockDatabase_Database40___get_latest_job_by_type_and_internal_idNtB7_7Matcher7matches0Bd_
FNDA:0,_RNvXs2_NtNtNtCsf72If0ieCLb_12orchestrator8database28___mock_MockDatabase_Database40___get_latest_job_by_type_and_internal_idNtB5_7MatcherNtNtCsl82brYPINY5_4core3fmt7Display3fmt
FNDA:2,_RNvMs4_NtNtNtCsf72If0ieCLb_12orchestrator8database28___mock_MockDatabase_Database40___get_latest_job_by_type_and_internal_idNtB5_6Common4call
FNDA:2,_RNvMs4_NtNtNtCsf72If0ieCLb_12orchestrator8database28___mock_MockDatabase_Database40___get_latest_job_by_type_and_internal_idNtB5_6Common7is_done
FNDA:2,_RNvMs4_NtNtNtCsf72If0ieCLb_12orchestrator8database28___mock_MockDatabase_Database40___get_latest_job_by_type_and_internal_idNtB5_6Common7matches
FNDA:2,_RNvMs4_NtNtNtCsf72If0ieCLb_12orchestrator8database28___mock_MockDatabase_Database40___get_latest_job_by_type_and_internal_idNtB5_6Common16satisfy_sequence
FNDA:2,_RINvMs4_NtNtNtCsf72If0ieCLb_12orchestrator8database28___mock_MockDatabase_Database40___get_latest_job_by_type_and_internal_idNtB6_6Common4withINtNtCshPsaE7IPXTr_10predicates3ord11EqPredicateNtNtNtBc_4jobs5types7JobTypeEEBc_
FNDA:2,_RNvMs4_NtNtNtCsf72If0ieCLb_12orchestrator8database28___mock_MockDatabase_Database40___get_latest_job_by_type_and_internal_idNtB5_6Common15verify_sequence
FNDA:0,_RNvXs5_NtNtNtCsf72If0ieCLb_12orchestrator8database28___mock_MockDatabase_Database40___get_latest_job_by_type_and_internal_idNtB5_6CommonNtNtNtCsl82brYPINY5_4core3ops4drop4Drop4drop
FNDA:2,_RNvMs6_NtNtNtCsf72If0ieCLb_12orchestrator8database28___mock_MockDatabase_Database40___get_latest_job_by_type_and_internal_idNtB5_11Expectation4call
FNDA:1,_RINvMs6_NtNtNtCsf72If0ieCLb_12orchestrator8database28___mock_MockDatabase_Database40___get_latest_job_by_type_and_internal_idNtB6_11Expectation9returningNCNCNvNtNtNtBc_5tests7workers4snos16test_snos_worker00EBc_
FNDA:1,_RINvMs6_NtNtNtCsf72If0ieCLb_12orchestrator8database28___mock_MockDatabase_Database40___get_latest_job_by_type_and_internal_idNtB6_11Expectation9returningNCNCNvNtNtNtBc_5tests7workers4snos16test_snos_worker0s_0EBc_
FNDA:2,_RNvMs6_NtNtNtCsf72If0ieCLb_12orchestrator8database28___mock_MockDatabase_Database40___get_latest_job_by_type_and_internal_idNtB5_11Expectation7is_done
FNDA:2,_RNvMs6_NtNtNtCsf72If0ieCLb_12orchestrator8database28___mock_MockDatabase_Database40___get_latest_job_by_type_and_internal_idNtB5_11Expectation7matches
FNDA:1,_RINvMs6_NtNtNtCsf72If0ieCLb_12orchestrator8database28___mock_MockDatabase_Database40___get_latest_job_by_type_and_internal_idNtB6_11Expectation5timesjEBc_
FNDA:1,_RINvMs4_NtNtNtCsf72If0ieCLb_12orchestrator8database28___mock_MockDatabase_Database40___get_latest_job_by_type_and_internal_idNtB6_6Common5timesjEBc_
FNDA:2,_RINvMs6_NtNtNtCsf72If0ieCLb_12orchestrator8database28___mock_MockDatabase_Database40___get_latest_job_by_type_and_internal_idNtB6_11Expectation4withINtNtCshPsaE7IPXTr_10predicates3ord11EqPredicateNtNtNtBc_4jobs5types7JobTypeEEBc_
FNDA:2,_RNvXs7_NtNtNtCsf72If0ieCLb_12orchestrator8database28___mock_MockDatabase_Database40___get_latest_job_by_type_and_internal_idNtB5_11ExpectationNtNtCsl82brYPINY5_4core7default7Default7default
FNDA:2,_RNvXs3_NtNtNtCsf72If0ieCLb_12orchestrator8database28___mock_MockDatabase_Database40___get_latest_job_by_type_and_internal_idNtB5_6CommonNtNtCsl82brYPINY5_4core7default7Default7default
FNDA:2,_RNvXs1_NtNtNtCsf72If0ieCLb_12orchestrator8database28___mock_MockDatabase_Database40___get_latest_job_by_type_and_internal_idNtB5_7MatcherNtNtCsl82brYPINY5_4core7default7Default7default
FNDA:2,_RNvXs_NtNtNtCsf72If0ieCLb_12orchestrator8database28___mock_MockDatabase_Database40___get_latest_job_by_type_and_internal_idNtB4_5RfuncNtNtCsl82brYPINY5_4core7default7Default7default
FNDA:2,_RNvMs8_NtNtNtCsf72If0ieCLb_12orchestrator8database28___mock_MockDatabase_Database40___get_latest_job_by_type_and_internal_idNtB5_12Expectations6expect
FNDA:2,_RNvMsa_NtNtNtCsf72If0ieCLb_12orchestrator8database28___mock_MockDatabase_Database40___get_latest_job_by_type_and_internal_idNtB5_12Expectations4call
FNDA:2,_RNCNvMsa_NtNtNtCsf72If0ieCLb_12orchestrator8database28___mock_MockDatabase_Database40___get_latest_job_by_type_and_internal_idNtB7_12Expectations4calls_0Bd_
FNDA:2,_RNCNvMsa_NtNtNtCsf72If0ieCLb_12orchestrator8database28___mock_MockDatabase_Database40___get_latest_job_by_type_and_internal_idNtB7_12Expectations4call0Bd_
FNDA:24,_RNvXs_NtCsf72If0ieCLb_12orchestrator8databaseNtB4_12MockDatabaseNtNtCsl82brYPINY5_4core7default7Default7default
FNDA:24,_RNvMNtNtNtCsf72If0ieCLb_12orchestrator8database28___mock_MockDatabase_Database12___create_jobNtB2_5Rfunc8call_mut
FNDA:70,_RNvMs0_NtNtNtCsf72If0ieCLb_12orchestrator8database28___mock_MockDatabase_Database12___create_jobNtB5_7Matcher7matches
FNDA:0,_RNCNvMs0_NtNtNtCsf72If0ieCLb_12orchestrator8database28___mock_MockDatabase_Database12___create_jobNtB7_7Matcher7matches0Bd_
FNDA:0,_RNvXs2_NtNtNtCsf72If0ieCLb_12orchestrator8database28___mock_MockDatabase_Database12___create_jobNtB5_7MatcherNtNtCsl82brYPINY5_4core3fmt7Display3fmt
FNDA:24,_RNvMs4_NtNtNtCsf72If0ieCLb_12orchestrator8database28___mock_MockDatabase_Database12___create_jobNtB5_6Common4call
FNDA:24,_RNvMs4_NtNtNtCsf72If0ieCLb_12orchestrator8database28___mock_MockDatabase_Database12___create_jobNtB5_6Common7is_done
FNDA:70,_RNvMs4_NtNtNtCsf72If0ieCLb_12orchestrator8database28___mock_MockDatabase_Database12___create_jobNtB5_6Common7matches
FNDA:24,_RNvMs4_NtNtNtCsf72If0ieCLb_12orchestrator8database28___mock_MockDatabase_Database12___create_jobNtB5_6Common16satisfy_sequence
FNDA:10,_RINvMs4_NtNtNtCsf72If0ieCLb_12orchestrator8database28___mock_MockDatabase_Database12___create_jobNtB6_6Common5withfNCNCNvNtNtNtBc_5tests7workers4snos16test_snos_worker0s1_0EBc_
FNDA:9,_RINvMs4_NtNtNtCsf72If0ieCLb_12orchestrator8database28___mock_MockDatabase_Database12___create_jobNtB6_6Common5withfNCNvNtNtNtBc_5tests7workers5utils24db_checks_proving_workers_0EBc_
FNDA:5,_RINvMs4_NtNtNtCsf72If0ieCLb_12orchestrator8database28___mock_MockDatabase_Database12___create_jobNtB6_6Common5withfNCNvNtNtNtBc_5tests7workers5utils46db_create_job_expectations_update_state_worker0EBc_
FNDA:24,_RNvMs4_NtNtNtCsf72If0ieCLb_12orchestrator8database28___mock_MockDatabase_Database12___create_jobNtB5_6Common15verify_sequence
FNDA:0,_RNvXs5_NtNtNtCsf72If0ieCLb_12orchestrator8database28___mock_MockDatabase_Database12___create_jobNtB5_6CommonNtNtNtCsl82brYPINY5_4core3ops4drop4Drop4drop
FNDA:24,_RNvMs6_NtNtNtCsf72If0ieCLb_12orchestrator8database28___mock_MockDatabase_Database12___create_jobNtB5_11Expectation4call
FNDA:10,_RINvMs6_NtNtNtCsf72If0ieCLb_12orchestrator8database28___mock_MockDatabase_Database12___create_jobNtB6_11Expectation9returningNCNCNvNtNtNtBc_5tests7workers4snos16test_snos_worker0s2_0EBc_
FNDA:9,_RINvMs6_NtNtNtCsf72If0ieCLb_12orchestrator8database28___mock_MockDatabase_Database12___create_jobNtB6_11Expectation9returningNCNvNtNtNtBc_5tests7workers5utils24db_checks_proving_workers0_0EBc_
FNDA:5,_RINvMs6_NtNtNtCsf72If0ieCLb_12orchestrator8database28___mock_MockDatabase_Database12___create_jobNtB6_11Expectation9returningNCNvNtNtNtBc_5tests7workers5utils46db_create_job_expectations_update_state_workers_0EBc_
FNDA:24,_RNvMs6_NtNtNtCsf72If0ieCLb_12orchestrator8database28___mock_MockDatabase_Database12___create_jobNtB5_11Expectation7is_done
FNDA:70,_RNvMs6_NtNtNtCsf72If0ieCLb_12orchestrator8database28___mock_MockDatabase_Database12___create_jobNtB5_11Expectation7matches
FNDA:24,_RINvMs6_NtNtNtCsf72If0ieCLb_12orchestrator8database28___mock_MockDatabase_Database12___create_jobNtB6_11Expectation5timesjEBc_
FNDA:24,_RINvMs4_NtNtNtCsf72If0ieCLb_12orchestrator8database28___mock_MockDatabase_Database12___create_jobNtB6_6Common5timesjEBc_
FNDA:10,_RINvMs6_NtNtNtCsf72If0ieCLb_12orchestrator8database28___mock_MockDatabase_Database12___create_jobNtB6_11Expectation5withfNCNCNvNtNtNtBc_5tests7workers4snos16test_snos_worker0s1_0EBc_
FNDA:24,_RNvXs7_NtNtNtCsf72If0ieCLb_12orchestrator8database28___mock_MockDatabase_Database12___create_jobNtB5_11ExpectationNtNtCsl82brYPINY5_4core7default7Default7default
FNDA:24,_RNvXs3_NtNtNtCsf72If0ieCLb_12orchestrator8database28___mock_MockDatabase_Database12___create_jobNtB5_6CommonNtNtCsl82brYPINY5_4core7default7Default7default
FNDA:24,_RNvXs1_NtNtNtCsf72If0ieCLb_12orchestrator8database28___mock_MockDatabase_Database12___create_jobNtB5_7MatcherNtNtCsl82brYPINY5_4core7default7Default7default
FNDA:24,_RNvXs_NtNtNtCsf72If0ieCLb_12orchestrator8database28___mock_MockDatabase_Database12___create_jobNtB4_5RfuncNtNtCsl82brYPINY5_4core7default7Default7default
FNDA:24,_RNvMs8_NtNtNtCsf72If0ieCLb_12orchestrator8database28___mock_MockDatabase_Database12___create_jobNtB5_12Expectations6expect
FNDA:24,_RNvMsa_NtNtNtCsf72If0ieCLb_12orchestrator8database28___mock_MockDatabase_Database12___create_jobNtB5_12Expectations4call
FNDA:24,_RNCNvMsa_NtNtNtCsf72If0ieCLb_12orchestrator8database28___mock_MockDatabase_Database12___create_jobNtB7_12Expectations4calls_0Bd_
FNDA:70,_RNCNvMsa_NtNtNtCsf72If0ieCLb_12orchestrator8database28___mock_MockDatabase_Database12___create_jobNtB7_12Expectations4call0Bd_
FNDA:0,_RNvMNtNtNtCsf72If0ieCLb_12orchestrator8database28___mock_MockDatabase_Database15___get_job_by_idNtB2_5Rfunc8call_mut
FNDA:0,_RNvMs0_NtNtNtCsf72If0ieCLb_12orchestrator8database28___mock_MockDatabase_Database15___get_job_by_idNtB5_7Matcher7matches
FNDA:0,_RNCNvMs0_NtNtNtCsf72If0ieCLb_12orchestrator8database28___mock_MockDatabase_Database15___get_job_by_idNtB7_7Matcher7matches0Bd_
FNDA:0,_RNvXs2_NtNtNtCsf72If0ieCLb_12orchestrator8database28___mock_MockDatabase_Database15___get_job_by_idNtB5_7MatcherNtNtCsl82brYPINY5_4core3fmt7Display3fmt
FNDA:0,_RNvMs4_NtNtNtCsf72If0ieCLb_12orchestrator8database28___mock_MockDatabase_Database15___get_job_by_idNtB5_6Common4call
FNDA:0,_RNvMs4_NtNtNtCsf72If0ieCLb_12orchestrator8database28___mock_MockDatabase_Database15___get_job_by_idNtB5_6Common7is_done
FNDA:0,_RNvMs4_NtNtNtCsf72If0ieCLb_12orchestrator8database28___mock_MockDatabase_Database15___get_job_by_idNtB5_6Common7matches
FNDA:0,_RNvMs4_NtNtNtCsf72If0ieCLb_12orchestrator8database28___mock_MockDatabase_Database15___get_job_by_idNtB5_6Common16satisfy_sequence
FNDA:0,_RNvMs4_NtNtNtCsf72If0ieCLb_12orchestrator8database28___mock_MockDatabase_Database15___get_job_by_idNtB5_6Common15verify_sequence
FNDA:0,_RNvXs5_NtNtNtCsf72If0ieCLb_12orchestrator8database28___mock_MockDatabase_Database15___get_job_by_idNtB5_6CommonNtNtNtCsl82brYPINY5_4core3ops4drop4Drop4drop
FNDA:0,_RNvMs6_NtNtNtCsf72If0ieCLb_12orchestrator8database28___mock_MockDatabase_Database15___get_job_by_idNtB5_11Expectation4call
FNDA:0,_RNvMs6_NtNtNtCsf72If0ieCLb_12orchestrator8database28___mock_MockDatabase_Database15___get_job_by_idNtB5_11Expectation7is_done
FNDA:0,_RNvMs6_NtNtNtCsf72If0ieCLb_12orchestrator8database28___mock_MockDatabase_Database15___get_job_by_idNtB5_11Expectation7matches
FNDA:0,_RNvMsa_NtNtNtCsf72If0ieCLb_12orchestrator8database28___mock_MockDatabase_Database15___get_job_by_idNtB5_12Expectations4call
FNDA:0,_RNCNvMsa_NtNtNtCsf72If0ieCLb_12orchestrator8database28___mock_MockDatabase_Database15___get_job_by_idNtB7_12Expectations4calls_0Bd_
FNDA:0,_RNCNvMsa_NtNtNtCsf72If0ieCLb_12orchestrator8database28___mock_MockDatabase_Database15___get_job_by_idNtB7_12Expectations4call0Bd_
FNDA:24,_RNvMNtNtNtCsf72If0ieCLb_12orchestrator8database28___mock_MockDatabase_Database33___get_job_by_internal_id_and_typeNtB2_5Rfunc8call_mut
FNDA:70,_RNvMs0_NtNtNtCsf72If0ieCLb_12orchestrator8database28___mock_MockDatabase_Database33___get_job_by_internal_id_and_typeNtB5_7Matcher7matches
FNDA:94,_RNCNvMs0_NtNtNtCsf72If0ieCLb_12orchestrator8database28___mock_MockDatabase_Database33___get_job_by_internal_id_and_typeNtB7_7Matcher7matches0Bd_
FNDA:0,_RNvXs2_NtNtNtCsf72If0ieCLb_12orchestrator8database28___mock_MockDatabase_Database33___get_job_by_internal_id_and_typeNtB5_7MatcherNtNtCsl82brYPINY5_4core3fmt7Display3fmt
FNDA:24,_RNvMs4_NtNtNtCsf72If0ieCLb_12orchestrator8database28___mock_MockDatabase_Database33___get_job_by_internal_id_and_typeNtB5_6Common4call
FNDA:24,_RNvMs4_NtNtNtCsf72If0ieCLb_12orchestrator8database28___mock_MockDatabase_Database33___get_job_by_internal_id_and_typeNtB5_6Common7is_done
FNDA:70,_RNvMs4_NtNtNtCsf72If0ieCLb_12orchestrator8database28___mock_MockDatabase_Database33___get_job_by_internal_id_and_typeNtB5_6Common7matches
FNDA:24,_RNvMs4_NtNtNtCsf72If0ieCLb_12orchestrator8database28___mock_MockDatabase_Database33___get_job_by_internal_id_and_typeNtB5_6Common16satisfy_sequence
FNDA:24,_RINvMs4_NtNtNtCsf72If0ieCLb_12orchestrator8database28___mock_MockDatabase_Database33___get_job_by_internal_id_and_typeNtB6_6Common4withINtNtCshPsaE7IPXTr_10predicates3ord11EqPredicateNtNtCshB4XevuvN1H_5alloc6string6StringEIB2a_NtNtNtBc_4jobs5types7JobTypeEEBc_
FNDA:24,_RNvMs4_NtNtNtCsf72If0ieCLb_12orchestrator8database28___mock_MockDatabase_Database33___get_job_by_internal_id_and_typeNtB5_6Common15verify_sequence
FNDA:0,_RNvXs5_NtNtNtCsf72If0ieCLb_12orchestrator8database28___mock_MockDatabase_Database33___get_job_by_internal_id_and_typeNtB5_6CommonNtNtNtCsl82brYPINY5_4core3ops4drop4Drop4drop
FNDA:24,_RNvMs6_NtNtNtCsf72If0ieCLb_12orchestrator8database28___mock_MockDatabase_Database33___get_job_by_internal_id_and_typeNtB5_11Expectation4call
FNDA:5,_RINvMs6_NtNtNtCsf72If0ieCLb_12orchestrator8database28___mock_MockDatabase_Database33___get_job_by_internal_id_and_typeNtB6_11Expectation9returningNCNCNvNtNtNtBc_5tests7workers12update_state24test_update_state_worker0s1_0EBc_
FNDA:10,_RINvMs6_NtNtNtCsf72If0ieCLb_12orchestrator8database28___mock_MockDatabase_Database33___get_job_by_internal_id_and_typeNtB6_11Expectation9returningNCNCNvNtNtNtBc_5tests7workers4snos16test_snos_worker0s0_0EBc_
FNDA:9,_RINvMs6_NtNtNtCsf72If0ieCLb_12orchestrator8database28___mock_MockDatabase_Database33___get_job_by_internal_id_and_typeNtB6_11Expectation9returningNCNvNtNtNtBc_5tests7workers5utils24db_checks_proving_worker0EBc_
FNDA:24,_RNvMs6_NtNtNtCsf72If0ieCLb_12orchestrator8database28___mock_MockDatabase_Database33___get_job_by_internal_id_and_typeNtB5_11Expectation7is_done
FNDA:70,_RNvMs6_NtNtNtCsf72If0ieCLb_12orchestrator8database28___mock_MockDatabase_Database33___get_job_by_internal_id_and_typeNtB5_11Expectation7matches
FNDA:24,_RINvMs6_NtNtNtCsf72If0ieCLb_12orchestrator8database28___mock_MockDatabase_Database33___get_job_by_internal_id_and_typeNtB6_11Expectation5timesjEBc_
FNDA:24,_RINvMs4_NtNtNtCsf72If0ieCLb_12orchestrator8database28___mock_MockDatabase_Database33___get_job_by_internal_id_and_typeNtB6_6Common5timesjEBc_
FNDA:24,_RNvXs7_NtNtNtCsf72If0ieCLb_12orchestrator8database28___mock_MockDatabase_Database33___get_job_by_internal_id_and_typeNtB5_11ExpectationNtNtCsl82brYPINY5_4core7default7Default7default
FNDA:24,_RNvXs3_NtNtNtCsf72If0ieCLb_12orchestrator8database28___mock_MockDatabase_Database33___get_job_by_internal_id_and_typeNtB5_6CommonNtNtCsl82brYPINY5_4core7default7Default7default
FNDA:24,_RNvXs1_NtNtNtCsf72If0ieCLb_12orchestrator8database28___mock_MockDatabase_Database33___get_job_by_internal_id_and_typeNtB5_7MatcherNtNtCsl82brYPINY5_4core7default7Default7default
FNDA:24,_RNvXs_NtNtNtCsf72If0ieCLb_12orchestrator8database28___mock_MockDatabase_Database33___get_job_by_internal_id_and_typeNtB4_5RfuncNtNtCsl82brYPINY5_4core7default7Default7default
FNDA:24,_RNvMs8_NtNtNtCsf72If0ieCLb_12orchestrator8database28___mock_MockDatabase_Database33___get_job_by_internal_id_and_typeNtB5_12Expectations6expect
FNDA:24,_RNvMsa_NtNtNtCsf72If0ieCLb_12orchestrator8database28___mock_MockDatabase_Database33___get_job_by_internal_id_and_typeNtB5_12Expectations4call
FNDA:24,_RNCNvMsa_NtNtNtCsf72If0ieCLb_12orchestrator8database28___mock_MockDatabase_Database33___get_job_by_internal_id_and_typeNtB7_12Expectations4calls_0Bd_
FNDA:70,_RNCNvMsa_NtNtNtCsf72If0ieCLb_12orchestrator8database28___mock_MockDatabase_Database33___get_job_by_internal_id_and_typeNtB7_12Expectations4call0Bd_
FNDA:2,_RNvMNtNtNtCsf72If0ieCLb_12orchestrator8database28___mock_MockDatabase_Database28___get_jobs_without_successorNtB2_5Rfunc8call_mut
FNDA:2,_RNvMs0_NtNtNtCsf72If0ieCLb_12orchestrator8database28___mock_MockDatabase_Database28___get_jobs_without_successorNtB5_7Matcher7matches
FNDA:0,_RNCNvMs0_NtNtNtCsf72If0ieCLb_12orchestrator8database28___mock_MockDatabase_Database28___get_jobs_without_successorNtB7_7Matcher7matches0Bd_
FNDA:0,_RNvXs2_NtNtNtCsf72If0ieCLb_12orchestrator8database28___mock_MockDatabase_Database28___get_jobs_without_successorNtB5_7MatcherNtNtCsl82brYPINY5_4core3fmt7Display3fmt
FNDA:2,_RNvMs4_NtNtNtCsf72If0ieCLb_12orchestrator8database28___mock_MockDatabase_Database28___get_jobs_without_successorNtB5_6Common4call
FNDA:2,_RNvMs4_NtNtNtCsf72If0ieCLb_12orchestrator8database28___mock_MockDatabase_Database28___get_jobs_without_successorNtB5_6Common7is_done
FNDA:2,_RNvMs4_NtNtNtCsf72If0ieCLb_12orchestrator8database28___mock_MockDatabase_Database28___get_jobs_without_successorNtB5_6Common7matches
FNDA:2,_RNvMs4_NtNtNtCsf72If0ieCLb_12orchestrator8database28___mock_MockDatabase_Database28___get_jobs_without_successorNtB5_6Common16satisfy_sequence
FNDA:1,_RINvMs4_NtNtNtCsf72If0ieCLb_12orchestrator8database28___mock_MockDatabase_Database28___get_jobs_without_successorNtB6_6Common5withfNCNCNvNtNtNtBc_5tests7workers7proving19test_proving_worker0s4_0EBc_
FNDA:1,_RINvMs4_NtNtNtCsf72If0ieCLb_12orchestrator8database28___mock_MockDatabase_Database28___get_jobs_without_successorNtB6_6Common5withfNCNCNvNtNtNtBc_5tests7workers7proving19test_proving_worker0s_0EBc_
FNDA:2,_RNvMs4_NtNtNtCsf72If0ieCLb_12orchestrator8database28___mock_MockDatabase_Database28___get_jobs_without_successorNtB5_6Common15verify_sequence
FNDA:0,_RNvXs5_NtNtNtCsf72If0ieCLb_12orchestrator8database28___mock_MockDatabase_Database28___get_jobs_without_successorNtB5_6CommonNtNtNtCsl82brYPINY5_4core3ops4drop4Drop4drop
FNDA:2,_RNvMs6_NtNtNtCsf72If0ieCLb_12orchestrator8database28___mock_MockDatabase_Database28___get_jobs_without_successorNtB5_11Expectation4call
FNDA:1,_RINvMs6_NtNtNtCsf72If0ieCLb_12orchestrator8database28___mock_MockDatabase_Database28___get_jobs_without_successorNtB6_11Expectation9returningNCNCNvNtNtNtBc_5tests7workers7proving19test_proving_worker0s0_0EBc_
FNDA:1,_RINvMs6_NtNtNtCsf72If0ieCLb_12orchestrator8database28___mock_MockDatabase_Database28___get_jobs_without_successorNtB6_11Expectation9returningNCNCNvNtNtNtBc_5tests7workers7proving19test_proving_worker0s5_0EBc_
FNDA:2,_RNvMs6_NtNtNtCsf72If0ieCLb_12orchestrator8database28___mock_MockDatabase_Database28___get_jobs_without_successorNtB5_11Expectation7is_done
FNDA:2,_RNvMs6_NtNtNtCsf72If0ieCLb_12orchestrator8database28___mock_MockDatabase_Database28___get_jobs_without_successorNtB5_11Expectation7matches
FNDA:2,_RINvMs6_NtNtNtCsf72If0ieCLb_12orchestrator8database28___mock_MockDatabase_Database28___get_jobs_without_successorNtB6_11Expectation5timesjEBc_
FNDA:2,_RINvMs4_NtNtNtCsf72If0ieCLb_12orchestrator8database28___mock_MockDatabase_Database28___get_jobs_without_successorNtB6_6Common5timesjEBc_
FNDA:1,_RINvMs6_NtNtNtCsf72If0ieCLb_12orchestrator8database28___mock_MockDatabase_Database28___get_jobs_without_successorNtB6_11Expectation5withfNCNCNvNtNtNtBc_5tests7workers7proving19test_proving_worker0s4_0EBc_
FNDA:1,_RINvMs6_NtNtNtCsf72If0ieCLb_12orchestrator8database28___mock_MockDatabase_Database28___get_jobs_without_successorNtB6_11Expectation5withfNCNCNvNtNtNtBc_5tests7workers7proving19test_proving_worker0s_0EBc_
FNDA:2,_RNvXs7_NtNtNtCsf72If0ieCLb_12orchestrator8database28___mock_MockDatabase_Database28___get_jobs_without_successorNtB5_11ExpectationNtNtCsl82brYPINY5_4core7default7Default7default
FNDA:2,_RNvXs3_NtNtNtCsf72If0ieCLb_12orchestrator8database28___mock_MockDatabase_Database28___get_jobs_without_successorNtB5_6CommonNtNtCsl82brYPINY5_4core7default7Default7default
FNDA:2,_RNvXs1_NtNtNtCsf72If0ieCLb_12orchestrator8database28___mock_MockDatabase_Database28___get_jobs_without_successorNtB5_7MatcherNtNtCsl82brYPINY5_4core7default7Default7default
FNDA:2,_RNvXs_NtNtNtCsf72If0ieCLb_12orchestrator8database28___mock_MockDatabase_Database28___get_jobs_without_successorNtB4_5RfuncNtNtCsl82brYPINY5_4core7default7Default7default
FNDA:2,_RNvMs8_NtNtNtCsf72If0ieCLb_12orchestrator8database28___mock_MockDatabase_Database28___get_jobs_without_successorNtB5_12Expectations6expect
FNDA:2,_RNvMsa_NtNtNtCsf72If0ieCLb_12orchestrator8database28___mock_MockDatabase_Database28___get_jobs_without_successorNtB5_12Expectations4call
FNDA:2,_RNCNvMsa_NtNtNtCsf72If0ieCLb_12orchestrator8database28___mock_MockDatabase_Database28___get_jobs_without_successorNtB7_12Expectations4calls_0Bd_
FNDA:2,_RNCNvMsa_NtNtNtCsf72If0ieCLb_12orchestrator8database28___mock_MockDatabase_Database28___get_jobs_without_successorNtB7_12Expectations4call0Bd_
FNDA:1,_RNvMNtNtNtCsf72If0ieCLb_12orchestrator8database28___mock_MockDatabase_Database40___get_jobs_after_internal_id_by_job_typeNtB2_5Rfunc8call_mut
FNDA:1,_RNvMs0_NtNtNtCsf72If0ieCLb_12orchestrator8database28___mock_MockDatabase_Database40___get_jobs_after_internal_id_by_job_typeNtB5_7Matcher7matches
FNDA:3,_RNCNvMs0_NtNtNtCsf72If0ieCLb_12orchestrator8database28___mock_MockDatabase_Database40___get_jobs_after_internal_id_by_job_typeNtB7_7Matcher7matches0Bd_
FNDA:0,_RNvXs2_NtNtNtCsf72If0ieCLb_12orchestrator8database28___mock_MockDatabase_Database40___get_jobs_after_internal_id_by_job_typeNtB5_7MatcherNtNtCsl82brYPINY5_4core3fmt7Display3fmt
FNDA:1,_RNvMs4_NtNtNtCsf72If0ieCLb_12orchestrator8database28___mock_MockDatabase_Database40___get_jobs_after_internal_id_by_job_typeNtB5_6Common4call
FNDA:1,_RNvMs4_NtNtNtCsf72If0ieCLb_12orchestrator8database28___mock_MockDatabase_Database40___get_jobs_after_internal_id_by_job_typeNtB5_6Common7is_done
FNDA:1,_RNvMs4_NtNtNtCsf72If0ieCLb_12orchestrator8database28___mock_MockDatabase_Database40___get_jobs_after_internal_id_by_job_typeNtB5_6Common7matches
FNDA:1,_RNvMs4_NtNtNtCsf72If0ieCLb_12orchestrator8database28___mock_MockDatabase_Database40___get_jobs_after_internal_id_by_job_typeNtB5_6Common16satisfy_sequence
FNDA:1,_RINvMs4_NtNtNtCsf72If0ieCLb_12orchestrator8database28___mock_MockDatabase_Database40___get_jobs_after_internal_id_by_job_typeNtB6_6Common4withINtNtCshPsaE7IPXTr_10predicates3ord11EqPredicateNtNtNtBc_4jobs5types7JobTypeEIB2h_NtB34_9JobStatusEIB2h_NtNtCshB4XevuvN1H_5alloc6string6StringEEBc_
FNDA:1,_RNvMs4_NtNtNtCsf72If0ieCLb_12orchestrator8database28___mock_MockDatabase_Database40___get_jobs_after_internal_id_by_job_typeNtB5_6Common15verify_sequence
FNDA:0,_RNvXs5_NtNtNtCsf72If0ieCLb_12orchestrator8database28___mock_MockDatabase_Database40___get_jobs_after_internal_id_by_job_typeNtB5_6CommonNtNtNtCsl82brYPINY5_4core3ops4drop4Drop4drop
FNDA:1,_RNvMs6_NtNtNtCsf72If0ieCLb_12orchestrator8database28___mock_MockDatabase_Database40___get_jobs_after_internal_id_by_job_typeNtB5_11Expectation4call
FNDA:1,_RINvMs6_NtNtNtCsf72If0ieCLb_12orchestrator8database28___mock_MockDatabase_Database40___get_jobs_after_internal_id_by_job_typeNtB6_11Expectation9returningNCNCNvNtNtNtBc_5tests7workers12update_state24test_update_state_worker0s0_0EBc_
FNDA:1,_RNvMs6_NtNtNtCsf72If0ieCLb_12orchestrator8database28___mock_MockDatabase_Database40___get_jobs_after_internal_id_by_job_typeNtB5_11Expectation7is_done
FNDA:1,_RNvMs6_NtNtNtCsf72If0ieCLb_12orchestrator8database28___mock_MockDatabase_Database40___get_jobs_after_internal_id_by_job_typeNtB5_11Expectation7matches
FNDA:1,_RINvMs6_NtNtNtCsf72If0ieCLb_12orchestrator8database28___mock_MockDatabase_Database40___get_jobs_after_internal_id_by_job_typeNtB6_11Expectation4withINtNtCshPsaE7IPXTr_10predicates3ord11EqPredicateNtNtNtBc_4jobs5types7JobTypeEIB2n_NtB3a_9JobStatusEIB2n_NtNtCshB4XevuvN1H_5alloc6string6StringEEBc_
FNDA:1,_RNvXs7_NtNtNtCsf72If0ieCLb_12orchestrator8database28___mock_MockDatabase_Database40___get_jobs_after_internal_id_by_job_typeNtB5_11ExpectationNtNtCsl82brYPINY5_4core7default7Default7default
FNDA:1,_RNvXs3_NtNtNtCsf72If0ieCLb_12orchestrator8database28___mock_MockDatabase_Database40___get_jobs_after_internal_id_by_job_typeNtB5_6CommonNtNtCsl82brYPINY5_4core7default7Default7default
FNDA:1,_RNvXs1_NtNtNtCsf72If0ieCLb_12orchestrator8database28___mock_MockDatabase_Database40___get_jobs_after_internal_id_by_job_typeNtB5_7MatcherNtNtCsl82brYPINY5_4core7default7Default7default
FNDA:1,_RNvXs_NtNtNtCsf72If0ieCLb_12orchestrator8database28___mock_MockDatabase_Database40___get_jobs_after_internal_id_by_job_typeNtB4_5RfuncNtNtCsl82brYPINY5_4core7default7Default7default
FNDA:1,_RNvMs8_NtNtNtCsf72If0ieCLb_12orchestrator8database28___mock_MockDatabase_Database40___get_jobs_after_internal_id_by_job_typeNtB5_12Expectations6expect
FNDA:1,_RNvMsa_NtNtNtCsf72If0ieCLb_12orchestrator8database28___mock_MockDatabase_Database40___get_jobs_after_internal_id_by_job_typeNtB5_12Expectations4call
FNDA:1,_RNCNvMsa_NtNtNtCsf72If0ieCLb_12orchestrator8database28___mock_MockDatabase_Database40___get_jobs_after_internal_id_by_job_typeNtB7_12Expectations4calls_0Bd_
FNDA:1,_RNCNvMsa_NtNtNtCsf72If0ieCLb_12orchestrator8database28___mock_MockDatabase_Database40___get_jobs_after_internal_id_by_job_typeNtB7_12Expectations4call0Bd_
FNDA:24,_RNvXs0_NtCsf72If0ieCLb_12orchestrator8databaseNtB5_21MockDatabase_DatabaseNtNtCsl82brYPINY5_4core7default7Default7default
FNDA:24,_RNvXs9_NtNtNtCsf72If0ieCLb_12orchestrator8database28___mock_MockDatabase_Database12___create_jobNtB5_12ExpectationsNtNtCsl82brYPINY5_4core7default7Default7default
FNDA:24,_RNvXs9_NtNtNtCsf72If0ieCLb_12orchestrator8database28___mock_MockDatabase_Database15___get_job_by_idNtB5_12ExpectationsNtNtCsl82brYPINY5_4core7default7Default7default
FNDA:24,_RNvXs9_NtNtNtCsf72If0ieCLb_12orchestrator8database28___mock_MockDatabase_Database33___get_job_by_internal_id_and_typeNtB5_12ExpectationsNtNtCsl82brYPINY5_4core7default7Default7default
FNDA:24,_RNvXs9_NtNtNtCsf72If0ieCLb_12orchestrator8database28___mock_MockDatabase_Database12___update_jobNtB5_12ExpectationsNtNtCsl82brYPINY5_4core7default7Default7default
FNDA:24,_RNvXs9_NtNtNtCsf72If0ieCLb_12orchestrator8database28___mock_MockDatabase_Database19___update_job_statusNtB5_12ExpectationsNtNtCsl82brYPINY5_4core7default7Default7default
FNDA:24,_RNvXs9_NtNtNtCsf72If0ieCLb_12orchestrator8database28___mock_MockDatabase_Database17___update_metadataNtB5_12ExpectationsNtNtCsl82brYPINY5_4core7default7Default7default
FNDA:24,_RNvXs9_NtNtNtCsf72If0ieCLb_12orchestrator8database28___mock_MockDatabase_Database40___get_latest_job_by_type_and_internal_idNtB5_12ExpectationsNtNtCsl82brYPINY5_4core7default7Default7default
FNDA:24,_RNvXs9_NtNtNtCsf72If0ieCLb_12orchestrator8database28___mock_MockDatabase_Database28___get_jobs_without_successorNtB5_12ExpectationsNtNtCsl82brYPINY5_4core7default7Default7default
FNDA:24,_RNvXs9_NtNtNtCsf72If0ieCLb_12orchestrator8database28___mock_MockDatabase_Database33___get_last_successful_job_by_typeNtB5_12ExpectationsNtNtCsl82brYPINY5_4core7default7Default7default
FNDA:24,_RNvXs9_NtNtNtCsf72If0ieCLb_12orchestrator8database28___mock_MockDatabase_Database40___get_jobs_after_internal_id_by_job_typeNtB5_12ExpectationsNtNtCsl82brYPINY5_4core7default7Default7default
FNDA:6,_RNvMs2_NtCsf72If0ieCLb_12orchestrator8databaseNtB5_12MockDatabase3new
FNDA:24,_RNvMs3_NtCsf72If0ieCLb_12orchestrator8databaseNtB5_12MockDatabase17expect_create_job
FNDA:24,_RNvMs3_NtCsf72If0ieCLb_12orchestrator8databaseNtB5_12MockDatabase38expect_get_job_by_internal_id_and_type
FNDA:2,_RNvMs3_NtCsf72If0ieCLb_12orchestrator8databaseNtB5_12MockDatabase45expect_get_latest_job_by_type_and_internal_id
FNDA:2,_RNvMs3_NtCsf72If0ieCLb_12orchestrator8databaseNtB5_12MockDatabase33expect_get_jobs_without_successor
FNDA:2,_RNvMs3_NtCsf72If0ieCLb_12orchestrator8databaseNtB5_12MockDatabase38expect_get_last_successful_job_by_type
FNDA:1,_RNvMs3_NtCsf72If0ieCLb_12orchestrator8databaseNtB5_12MockDatabase45expect_get_jobs_after_internal_id_by_job_type
FNDA:24,_RNvXs4_NtCsf72If0ieCLb_12orchestrator8databaseNtB5_12MockDatabaseNtB5_8Database10create_job
FNDA:24,_RNCNvXs4_NtCsf72If0ieCLb_12orchestrator8databaseNtB7_12MockDatabaseNtB7_8Database10create_job0B9_
FNDA:0,_RNvXs4_NtCsf72If0ieCLb_12orchestrator8databaseNtB5_12MockDatabaseNtB5_8Database13get_job_by_id
FNDA:0,_RNCNvXs4_NtCsf72If0ieCLb_12orchestrator8databaseNtB7_12MockDatabaseNtB7_8Database13get_job_by_id0B9_
FNDA:24,_RNvXs4_NtCsf72If0ieCLb_12orchestrator8databaseNtB5_12MockDatabaseNtB5_8Database31get_job_by_internal_id_and_type
FNDA:24,_RNCNvXs4_NtCsf72If0ieCLb_12orchestrator8databaseNtB7_12MockDatabaseNtB7_8Database31get_job_by_internal_id_and_type0B9_
FNDA:0,_RNvXs4_NtCsf72If0ieCLb_12orchestrator8databaseNtB5_12MockDatabaseNtB5_8Database10update_job
FNDA:0,_RNCNvXs4_NtCsf72If0ieCLb_12orchestrator8databaseNtB7_12MockDatabaseNtB7_8Database10update_job0B9_
FNDA:0,_RNvXs4_NtCsf72If0ieCLb_12orchestrator8databaseNtB5_12MockDatabaseNtB5_8Database17update_job_status
FNDA:0,_RNCNvXs4_NtCsf72If0ieCLb_12orchestrator8databaseNtB7_12MockDatabaseNtB7_8Database17update_job_status0B9_
FNDA:0,_RNvXs4_NtCsf72If0ieCLb_12orchestrator8databaseNtB5_12MockDatabaseNtB5_8Database15update_metadata
FNDA:0,_RNCNvXs4_NtCsf72If0ieCLb_12orchestrator8databaseNtB7_12MockDatabaseNtB7_8Database15update_metadata0B9_
FNDA:2,_RNvXs4_NtCsf72If0ieCLb_12orchestrator8databaseNtB5_12MockDatabaseNtB5_8Database38get_latest_job_by_type_and_internal_id
FNDA:2,_RNCNvXs4_NtCsf72If0ieCLb_12orchestrator8databaseNtB7_12MockDatabaseNtB7_8Database38get_latest_job_by_type_and_internal_id0B9_
FNDA:2,_RNvXs4_NtCsf72If0ieCLb_12orchestrator8databaseNtB5_12MockDatabaseNtB5_8Database26get_jobs_without_successor
FNDA:2,_RNCNvXs4_NtCsf72If0ieCLb_12orchestrator8databaseNtB7_12MockDatabaseNtB7_8Database26get_jobs_without_successor0B9_
FNDA:2,_RNvXs4_NtCsf72If0ieCLb_12orchestrator8databaseNtB5_12MockDatabaseNtB5_8Database31get_last_successful_job_by_type
FNDA:2,_RNCNvXs4_NtCsf72If0ieCLb_12orchestrator8databaseNtB7_12MockDatabaseNtB7_8Database31get_last_successful_job_by_type0B9_
FNDA:1,_RNvXs4_NtCsf72If0ieCLb_12orchestrator8databaseNtB5_12MockDatabaseNtB5_8Database38get_jobs_after_internal_id_by_job_type
FNDA:1,_RNCNvXs4_NtCsf72If0ieCLb_12orchestrator8databaseNtB7_12MockDatabaseNtB7_8Database38get_jobs_after_internal_id_by_job_type0B9_
FNDA:0,_RNvXNtCsf72If0ieCLb_12orchestrator8databaseNtB2_12MockDatabaseNtNtCsl82brYPINY5_4core3fmt5Debug3fmt
FNDA:0,_RNvMs4_NtNtNtCsf72If0ieCLb_12orchestrator8database28___mock_MockDatabase_Database12___create_jobNtB5_6Common11in_sequence
FNDA:0,_RNvMs4_NtNtNtCsf72If0ieCLb_12orchestrator8database28___mock_MockDatabase_Database12___create_jobNtB5_6Common5never
FNDA:0,_RINvMs4_NtNtNtCsf72If0ieCLb_12orchestrator8database28___mock_MockDatabase_Database12___create_jobNtB6_6Common4withpEBc_
FNDA:0,_RINvMs4_NtNtNtCsf72If0ieCLb_12orchestrator8database28___mock_MockDatabase_Database12___create_jobNtB6_6Common8withf_stpEBc_
FNDA:0,_RINvMs6_NtNtNtCsf72If0ieCLb_12orchestrator8database28___mock_MockDatabase_Database12___create_jobNtB6_11Expectation12return_constpEBc_
FNDA:0,_RNCINvMs6_NtNtNtCsf72If0ieCLb_12orchestrator8database28___mock_MockDatabase_Database12___create_jobNtB8_11Expectation12return_constpE0Be_
FNDA:0,_RINvMs6_NtNtNtCsf72If0ieCLb_12orchestrator8database28___mock_MockDatabase_Database12___create_jobNtB6_11Expectation15return_const_stpEBc_
FNDA:0,_RNCINvMs6_NtNtNtCsf72If0ieCLb_12orchestrator8database28___mock_MockDatabase_Database12___create_jobNtB8_11Expectation15return_const_stpE0Be_
FNDA:0,_RINvMs6_NtNtNtCsf72If0ieCLb_12orchestrator8database28___mock_MockDatabase_Database12___create_jobNtB6_11Expectation11return_oncepEBc_
FNDA:0,_RINvMs6_NtNtNtCsf72If0ieCLb_12orchestrator8database28___mock_MockDatabase_Database12___create_jobNtB6_11Expectation14return_once_stpEBc_
FNDA:0,_RINvMs6_NtNtNtCsf72If0ieCLb_12orchestrator8database28___mock_MockDatabase_Database12___create_jobNtB6_11Expectation12returning_stpEBc_
FNDA:0,_RNvMs6_NtNtNtCsf72If0ieCLb_12orchestrator8database28___mock_MockDatabase_Database12___create_jobNtB5_11Expectation11in_sequence
FNDA:0,_RNvMs6_NtNtNtCsf72If0ieCLb_12orchestrator8database28___mock_MockDatabase_Database12___create_jobNtB5_11Expectation5never
FNDA:0,_RNvMs6_NtNtNtCsf72If0ieCLb_12orchestrator8database28___mock_MockDatabase_Database12___create_jobNtB5_11Expectation3new
FNDA:0,_RNvMs6_NtNtNtCsf72If0ieCLb_12orchestrator8database28___mock_MockDatabase_Database12___create_jobNtB5_11Expectation4once
FNDA:0,_RINvMs6_NtNtNtCsf72If0ieCLb_12orchestrator8database28___mock_MockDatabase_Database12___create_jobNtB6_11Expectation4withpEBc_
FNDA:0,_RINvMs6_NtNtNtCsf72If0ieCLb_12orchestrator8database28___mock_MockDatabase_Database12___create_jobNtB6_11Expectation8withf_stpEBc_
FNDA:0,_RNvMs8_NtNtNtCsf72If0ieCLb_12orchestrator8database28___mock_MockDatabase_Database12___create_jobNtB5_12Expectations10checkpoint
FNDA:0,_RNvMs8_NtNtNtCsf72If0ieCLb_12orchestrator8database28___mock_MockDatabase_Database12___create_jobNtB5_12Expectations3new
FNDA:0,_RNvXs_NtNtNtCsf72If0ieCLb_12orchestrator8database28___mock_MockDatabase_Database15___get_job_by_idNtB4_5RfuncNtNtCsl82brYPINY5_4core7default7Default7default
FNDA:0,_RNvXs1_NtNtNtCsf72If0ieCLb_12orchestrator8database28___mock_MockDatabase_Database15___get_job_by_idNtB5_7MatcherNtNtCsl82brYPINY5_4core7default7Default7default
FNDA:0,_RNvXs3_NtNtNtCsf72If0ieCLb_12orchestrator8database28___mock_MockDatabase_Database15___get_job_by_idNtB5_6CommonNtNtCsl82brYPINY5_4core7default7Default7default
FNDA:0,_RNvMs4_NtNtNtCsf72If0ieCLb_12orchestrator8database28___mock_MockDatabase_Database15___get_job_by_idNtB5_6Common11in_sequence
FNDA:0,_RNvMs4_NtNtNtCsf72If0ieCLb_12orchestrator8database28___mock_MockDatabase_Database15___get_job_by_idNtB5_6Common5never
FNDA:0,_RINvMs4_NtNtNtCsf72If0ieCLb_12orchestrator8database28___mock_MockDatabase_Database15___get_job_by_idNtB6_6Common5timespEBc_
FNDA:0,_RINvMs4_NtNtNtCsf72If0ieCLb_12orchestrator8database28___mock_MockDatabase_Database15___get_job_by_idNtB6_6Common4withpEBc_
FNDA:0,_RINvMs4_NtNtNtCsf72If0ieCLb_12orchestrator8database28___mock_MockDatabase_Database15___get_job_by_idNtB6_6Common5withfpEBc_
FNDA:0,_RINvMs4_NtNtNtCsf72If0ieCLb_12orchestrator8database28___mock_MockDatabase_Database15___get_job_by_idNtB6_6Common8withf_stpEBc_
FNDA:0,_RINvMs6_NtNtNtCsf72If0ieCLb_12orchestrator8database28___mock_MockDatabase_Database15___get_job_by_idNtB6_11Expectation12return_constpEBc_
FNDA:0,_RNCINvMs6_NtNtNtCsf72If0ieCLb_12orchestrator8database28___mock_MockDatabase_Database15___get_job_by_idNtB8_11Expectation12return_constpE0Be_
FNDA:0,_RINvMs6_NtNtNtCsf72If0ieCLb_12orchestrator8database28___mock_MockDatabase_Database15___get_job_by_idNtB6_11Expectation15return_const_stpEBc_
FNDA:0,_RNCINvMs6_NtNtNtCsf72If0ieCLb_12orchestrator8database28___mock_MockDatabase_Database15___get_job_by_idNtB8_11Expectation15return_const_stpE0Be_
FNDA:0,_RINvMs6_NtNtNtCsf72If0ieCLb_12orchestrator8database28___mock_MockDatabase_Database15___get_job_by_idNtB6_11Expectation11return_oncepEBc_
FNDA:0,_RINvMs6_NtNtNtCsf72If0ieCLb_12orchestrator8database28___mock_MockDatabase_Database15___get_job_by_idNtB6_11Expectation14return_once_stpEBc_
FNDA:0,_RINvMs6_NtNtNtCsf72If0ieCLb_12orchestrator8database28___mock_MockDatabase_Database15___get_job_by_idNtB6_11Expectation9returningpEBc_
FNDA:0,_RINvMs6_NtNtNtCsf72If0ieCLb_12orchestrator8database28___mock_MockDatabase_Database15___get_job_by_idNtB6_11Expectation12returning_stpEBc_
FNDA:0,_RNvMs6_NtNtNtCsf72If0ieCLb_12orchestrator8database28___mock_MockDatabase_Database15___get_job_by_idNtB5_11Expectation11in_sequence
FNDA:0,_RNvMs6_NtNtNtCsf72If0ieCLb_12orchestrator8database28___mock_MockDatabase_Database15___get_job_by_idNtB5_11Expectation5never
FNDA:0,_RNvMs6_NtNtNtCsf72If0ieCLb_12orchestrator8database28___mock_MockDatabase_Database15___get_job_by_idNtB5_11Expectation3new
FNDA:0,_RNvMs6_NtNtNtCsf72If0ieCLb_12orchestrator8database28___mock_MockDatabase_Database15___get_job_by_idNtB5_11Expectation4once
FNDA:0,_RINvMs6_NtNtNtCsf72If0ieCLb_12orchestrator8database28___mock_MockDatabase_Database15___get_job_by_idNtB6_11Expectation5timespEBc_
FNDA:0,_RINvMs6_NtNtNtCsf72If0ieCLb_12orchestrator8database28___mock_MockDatabase_Database15___get_job_by_idNtB6_11Expectation4withpEBc_
FNDA:0,_RINvMs6_NtNtNtCsf72If0ieCLb_12orchestrator8database28___mock_MockDatabase_Database15___get_job_by_idNtB6_11Expectation5withfpEBc_
FNDA:0,_RINvMs6_NtNtNtCsf72If0ieCLb_12orchestrator8database28___mock_MockDatabase_Database15___get_job_by_idNtB6_11Expectation8withf_stpEBc_
FNDA:0,_RNvXs7_NtNtNtCsf72If0ieCLb_12orchestrator8database28___mock_MockDatabase_Database15___get_job_by_idNtB5_11ExpectationNtNtCsl82brYPINY5_4core7default7Default7default
FNDA:0,_RNvMs8_NtNtNtCsf72If0ieCLb_12orchestrator8database28___mock_MockDatabase_Database15___get_job_by_idNtB5_12Expectations10checkpoint
FNDA:0,_RNvMs8_NtNtNtCsf72If0ieCLb_12orchestrator8database28___mock_MockDatabase_Database15___get_job_by_idNtB5_12Expectations6expect
FNDA:0,_RNvMs8_NtNtNtCsf72If0ieCLb_12orchestrator8database28___mock_MockDatabase_Database15___get_job_by_idNtB5_12Expectations3new
FNDA:0,_RNvMs4_NtNtNtCsf72If0ieCLb_12orchestrator8database28___mock_MockDatabase_Database33___get_job_by_internal_id_and_typeNtB5_6Common11in_sequence
FNDA:0,_RNvMs4_NtNtNtCsf72If0ieCLb_12orchestrator8database28___mock_MockDatabase_Database33___get_job_by_internal_id_and_typeNtB5_6Common5never
FNDA:0,_RINvMs4_NtNtNtCsf72If0ieCLb_12orchestrator8database28___mock_MockDatabase_Database33___get_job_by_internal_id_and_typeNtB6_6Common5withfpEBc_
FNDA:0,_RINvMs4_NtNtNtCsf72If0ieCLb_12orchestrator8database28___mock_MockDatabase_Database33___get_job_by_internal_id_and_typeNtB6_6Common8withf_stpEBc_
FNDA:0,_RINvMs6_NtNtNtCsf72If0ieCLb_12orchestrator8database28___mock_MockDatabase_Database33___get_job_by_internal_id_and_typeNtB6_11Expectation12return_constpEBc_
FNDA:0,_RNCINvMs6_NtNtNtCsf72If0ieCLb_12orchestrator8database28___mock_MockDatabase_Database33___get_job_by_internal_id_and_typeNtB8_11Expectation12return_constpE0Be_
FNDA:0,_RINvMs6_NtNtNtCsf72If0ieCLb_12orchestrator8database28___mock_MockDatabase_Database33___get_job_by_internal_id_and_typeNtB6_11Expectation15return_const_stpEBc_
FNDA:0,_RNCINvMs6_NtNtNtCsf72If0ieCLb_12orchestrator8database28___mock_MockDatabase_Database33___get_job_by_internal_id_and_typeNtB8_11Expectation15return_const_stpE0Be_
FNDA:0,_RINvMs6_NtNtNtCsf72If0ieCLb_12orchestrator8database28___mock_MockDatabase_Database33___get_job_by_internal_id_and_typeNtB6_11Expectation11return_oncepEBc_
FNDA:0,_RINvMs6_NtNtNtCsf72If0ieCLb_12orchestrator8database28___mock_MockDatabase_Database33___get_job_by_internal_id_and_typeNtB6_11Expectation14return_once_stpEBc_
FNDA:0,_RINvMs6_NtNtNtCsf72If0ieCLb_12orchestrator8database28___mock_MockDatabase_Database33___get_job_by_internal_id_and_typeNtB6_11Expectation12returning_stpEBc_
FNDA:0,_RNvMs6_NtNtNtCsf72If0ieCLb_12orchestrator8database28___mock_MockDatabase_Database33___get_job_by_internal_id_and_typeNtB5_11Expectation11in_sequence
FNDA:0,_RNvMs6_NtNtNtCsf72If0ieCLb_12orchestrator8database28___mock_MockDatabase_Database33___get_job_by_internal_id_and_typeNtB5_11Expectation5never
FNDA:0,_RNvMs6_NtNtNtCsf72If0ieCLb_12orchestrator8database28___mock_MockDatabase_Database33___get_job_by_internal_id_and_typeNtB5_11Expectation3new
FNDA:0,_RNvMs6_NtNtNtCsf72If0ieCLb_12orchestrator8database28___mock_MockDatabase_Database33___get_job_by_internal_id_and_typeNtB5_11Expectation4once
FNDA:0,_RINvMs6_NtNtNtCsf72If0ieCLb_12orchestrator8database28___mock_MockDatabase_Database33___get_job_by_internal_id_and_typeNtB6_11Expectation5withfpEBc_
FNDA:0,_RINvMs6_NtNtNtCsf72If0ieCLb_12orchestrator8database28___mock_MockDatabase_Database33___get_job_by_internal_id_and_typeNtB6_11Expectation8withf_stpEBc_
FNDA:0,_RNvMs8_NtNtNtCsf72If0ieCLb_12orchestrator8database28___mock_MockDatabase_Database33___get_job_by_internal_id_and_typeNtB5_12Expectations10checkpoint
FNDA:0,_RNvMs8_NtNtNtCsf72If0ieCLb_12orchestrator8database28___mock_MockDatabase_Database33___get_job_by_internal_id_and_typeNtB5_12Expectations3new
FNDA:0,_RNvXs_NtNtNtCsf72If0ieCLb_12orchestrator8database28___mock_MockDatabase_Database12___update_jobNtB4_5RfuncNtNtCsl82brYPINY5_4core7default7Default7default
FNDA:0,_RNvXs1_NtNtNtCsf72If0ieCLb_12orchestrator8database28___mock_MockDatabase_Database12___update_jobNtB5_7MatcherNtNtCsl82brYPINY5_4core7default7Default7default
FNDA:0,_RNvXs3_NtNtNtCsf72If0ieCLb_12orchestrator8database28___mock_MockDatabase_Database12___update_jobNtB5_6CommonNtNtCsl82brYPINY5_4core7default7Default7default
FNDA:0,_RNvMs4_NtNtNtCsf72If0ieCLb_12orchestrator8database28___mock_MockDatabase_Database12___update_jobNtB5_6Common11in_sequence
FNDA:0,_RNvMs4_NtNtNtCsf72If0ieCLb_12orchestrator8database28___mock_MockDatabase_Database12___update_jobNtB5_6Common5never
FNDA:0,_RINvMs4_NtNtNtCsf72If0ieCLb_12orchestrator8database28___mock_MockDatabase_Database12___update_jobNtB6_6Common5timespEBc_
FNDA:0,_RINvMs4_NtNtNtCsf72If0ieCLb_12orchestrator8database28___mock_MockDatabase_Database12___update_jobNtB6_6Common4withpEBc_
FNDA:0,_RINvMs4_NtNtNtCsf72If0ieCLb_12orchestrator8database28___mock_MockDatabase_Database12___update_jobNtB6_6Common5withfpEBc_
FNDA:0,_RINvMs4_NtNtNtCsf72If0ieCLb_12orchestrator8database28___mock_MockDatabase_Database12___update_jobNtB6_6Common8withf_stpEBc_
FNDA:0,_RINvMs6_NtNtNtCsf72If0ieCLb_12orchestrator8database28___mock_MockDatabase_Database12___update_jobNtB6_11Expectation12return_constpEBc_
FNDA:0,_RNCINvMs6_NtNtNtCsf72If0ieCLb_12orchestrator8database28___mock_MockDatabase_Database12___update_jobNtB8_11Expectation12return_constpE0Be_
FNDA:0,_RINvMs6_NtNtNtCsf72If0ieCLb_12orchestrator8database28___mock_MockDatabase_Database12___update_jobNtB6_11Expectation15return_const_stpEBc_
FNDA:0,_RNCINvMs6_NtNtNtCsf72If0ieCLb_12orchestrator8database28___mock_MockDatabase_Database12___update_jobNtB8_11Expectation15return_const_stpE0Be_
FNDA:0,_RINvMs6_NtNtNtCsf72If0ieCLb_12orchestrator8database28___mock_MockDatabase_Database12___update_jobNtB6_11Expectation11return_oncepEBc_
FNDA:0,_RINvMs6_NtNtNtCsf72If0ieCLb_12orchestrator8database28___mock_MockDatabase_Database12___update_jobNtB6_11Expectation14return_once_stpEBc_
FNDA:0,_RINvMs6_NtNtNtCsf72If0ieCLb_12orchestrator8database28___mock_MockDatabase_Database12___update_jobNtB6_11Expectation9returningpEBc_
FNDA:0,_RINvMs6_NtNtNtCsf72If0ieCLb_12orchestrator8database28___mock_MockDatabase_Database12___update_jobNtB6_11Expectation12returning_stpEBc_
FNDA:0,_RNvMs6_NtNtNtCsf72If0ieCLb_12orchestrator8database28___mock_MockDatabase_Database12___update_jobNtB5_11Expectation11in_sequence
FNDA:0,_RNvMs6_NtNtNtCsf72If0ieCLb_12orchestrator8database28___mock_MockDatabase_Database12___update_jobNtB5_11Expectation5never
FNDA:0,_RNvMs6_NtNtNtCsf72If0ieCLb_12orchestrator8database28___mock_MockDatabase_Database12___update_jobNtB5_11Expectation3new
FNDA:0,_RNvMs6_NtNtNtCsf72If0ieCLb_12orchestrator8database28___mock_MockDatabase_Database12___update_jobNtB5_11Expectation4once
FNDA:0,_RINvMs6_NtNtNtCsf72If0ieCLb_12orchestrator8database28___mock_MockDatabase_Database12___update_jobNtB6_11Expectation5timespEBc_
FNDA:0,_RINvMs6_NtNtNtCsf72If0ieCLb_12orchestrator8database28___mock_MockDatabase_Database12___update_jobNtB6_11Expectation4withpEBc_
FNDA:0,_RINvMs6_NtNtNtCsf72If0ieCLb_12orchestrator8database28___mock_MockDatabase_Database12___update_jobNtB6_11Expectation5withfpEBc_
FNDA:0,_RINvMs6_NtNtNtCsf72If0ieCLb_12orchestrator8database28___mock_MockDatabase_Database12___update_jobNtB6_11Expectation8withf_stpEBc_
FNDA:0,_RNvXs7_NtNtNtCsf72If0ieCLb_12orchestrator8database28___mock_MockDatabase_Database12___update_jobNtB5_11ExpectationNtNtCsl82brYPINY5_4core7default7Default7default
FNDA:0,_RNvMs8_NtNtNtCsf72If0ieCLb_12orchestrator8database28___mock_MockDatabase_Database12___update_jobNtB5_12Expectations10checkpoint
FNDA:0,_RNvMs8_NtNtNtCsf72If0ieCLb_12orchestrator8database28___mock_MockDatabase_Database12___update_jobNtB5_12Expectations6expect
FNDA:0,_RNvMs8_NtNtNtCsf72If0ieCLb_12orchestrator8database28___mock_MockDatabase_Database12___update_jobNtB5_12Expectations3new
FNDA:0,_RNvXs_NtNtNtCsf72If0ieCLb_12orchestrator8database28___mock_MockDatabase_Database19___update_job_statusNtB4_5RfuncNtNtCsl82brYPINY5_4core7default7Default7default
FNDA:0,_RNvXs1_NtNtNtCsf72If0ieCLb_12orchestrator8database28___mock_MockDatabase_Database19___update_job_statusNtB5_7MatcherNtNtCsl82brYPINY5_4core7default7Default7default
FNDA:0,_RNvXs3_NtNtNtCsf72If0ieCLb_12orchestrator8database28___mock_MockDatabase_Database19___update_job_statusNtB5_6CommonNtNtCsl82brYPINY5_4core7default7Default7default
FNDA:0,_RNvMs4_NtNtNtCsf72If0ieCLb_12orchestrator8database28___mock_MockDatabase_Database19___update_job_statusNtB5_6Common11in_sequence
FNDA:0,_RNvMs4_NtNtNtCsf72If0ieCLb_12orchestrator8database28___mock_MockDatabase_Database19___update_job_statusNtB5_6Common5never
FNDA:0,_RINvMs4_NtNtNtCsf72If0ieCLb_12orchestrator8database28___mock_MockDatabase_Database19___update_job_statusNtB6_6Common5timespEBc_
FNDA:0,_RINvMs4_NtNtNtCsf72If0ieCLb_12orchestrator8database28___mock_MockDatabase_Database19___update_job_statusNtB6_6Common4withppEBc_
FNDA:0,_RINvMs4_NtNtNtCsf72If0ieCLb_12orchestrator8database28___mock_MockDatabase_Database19___update_job_statusNtB6_6Common5withfpEBc_
FNDA:0,_RINvMs4_NtNtNtCsf72If0ieCLb_12orchestrator8database28___mock_MockDatabase_Database19___update_job_statusNtB6_6Common8withf_stpEBc_
FNDA:0,_RINvMs6_NtNtNtCsf72If0ieCLb_12orchestrator8database28___mock_MockDatabase_Database19___update_job_statusNtB6_11Expectation12return_constpEBc_
FNDA:0,_RNCINvMs6_NtNtNtCsf72If0ieCLb_12orchestrator8database28___mock_MockDatabase_Database19___update_job_statusNtB8_11Expectation12return_constpE0Be_
FNDA:0,_RINvMs6_NtNtNtCsf72If0ieCLb_12orchestrator8database28___mock_MockDatabase_Database19___update_job_statusNtB6_11Expectation15return_const_stpEBc_
FNDA:0,_RNCINvMs6_NtNtNtCsf72If0ieCLb_12orchestrator8database28___mock_MockDatabase_Database19___update_job_statusNtB8_11Expectation15return_const_stpE0Be_
FNDA:0,_RINvMs6_NtNtNtCsf72If0ieCLb_12orchestrator8database28___mock_MockDatabase_Database19___update_job_statusNtB6_11Expectation11return_oncepEBc_
FNDA:0,_RINvMs6_NtNtNtCsf72If0ieCLb_12orchestrator8database28___mock_MockDatabase_Database19___update_job_statusNtB6_11Expectation14return_once_stpEBc_
FNDA:0,_RINvMs6_NtNtNtCsf72If0ieCLb_12orchestrator8database28___mock_MockDatabase_Database19___update_job_statusNtB6_11Expectation9returningpEBc_
FNDA:0,_RINvMs6_NtNtNtCsf72If0ieCLb_12orchestrator8database28___mock_MockDatabase_Database19___update_job_statusNtB6_11Expectation12returning_stpEBc_
FNDA:0,_RNvMs6_NtNtNtCsf72If0ieCLb_12orchestrator8database28___mock_MockDatabase_Database19___update_job_statusNtB5_11Expectation11in_sequence
FNDA:0,_RNvMs6_NtNtNtCsf72If0ieCLb_12orchestrator8database28___mock_MockDatabase_Database19___update_job_statusNtB5_11Expectation5never
FNDA:0,_RNvMs6_NtNtNtCsf72If0ieCLb_12orchestrator8database28___mock_MockDatabase_Database19___update_job_statusNtB5_11Expectation3new
FNDA:0,_RNvMs6_NtNtNtCsf72If0ieCLb_12orchestrator8database28___mock_MockDatabase_Database19___update_job_statusNtB5_11Expectation4once
FNDA:0,_RINvMs6_NtNtNtCsf72If0ieCLb_12orchestrator8database28___mock_MockDatabase_Database19___update_job_statusNtB6_11Expectation5timespEBc_
FNDA:0,_RINvMs6_NtNtNtCsf72If0ieCLb_12orchestrator8database28___mock_MockDatabase_Database19___update_job_statusNtB6_11Expectation4withppEBc_
FNDA:0,_RINvMs6_NtNtNtCsf72If0ieCLb_12orchestrator8database28___mock_MockDatabase_Database19___update_job_statusNtB6_11Expectation5withfpEBc_
FNDA:0,_RINvMs6_NtNtNtCsf72If0ieCLb_12orchestrator8database28___mock_MockDatabase_Database19___update_job_statusNtB6_11Expectation8withf_stpEBc_
FNDA:0,_RNvXs7_NtNtNtCsf72If0ieCLb_12orchestrator8database28___mock_MockDatabase_Database19___update_job_statusNtB5_11ExpectationNtNtCsl82brYPINY5_4core7default7Default7default
FNDA:0,_RNvMs8_NtNtNtCsf72If0ieCLb_12orchestrator8database28___mock_MockDatabase_Database19___update_job_statusNtB5_12Expectations10checkpoint
FNDA:0,_RNvMs8_NtNtNtCsf72If0ieCLb_12orchestrator8database28___mock_MockDatabase_Database19___update_job_statusNtB5_12Expectations6expect
FNDA:0,_RNvMs8_NtNtNtCsf72If0ieCLb_12orchestrator8database28___mock_MockDatabase_Database19___update_job_statusNtB5_12Expectations3new
FNDA:0,_RNvXs_NtNtNtCsf72If0ieCLb_12orchestrator8database28___mock_MockDatabase_Database17___update_metadataNtB4_5RfuncNtNtCsl82brYPINY5_4core7default7Default7default
FNDA:0,_RNvXs1_NtNtNtCsf72If0ieCLb_12orchestrator8database28___mock_MockDatabase_Database17___update_metadataNtB5_7MatcherNtNtCsl82brYPINY5_4core7default7Default7default
FNDA:0,_RNvXs3_NtNtNtCsf72If0ieCLb_12orchestrator8database28___mock_MockDatabase_Database17___update_metadataNtB5_6CommonNtNtCsl82brYPINY5_4core7default7Default7default
FNDA:0,_RNvMs4_NtNtNtCsf72If0ieCLb_12orchestrator8database28___mock_MockDatabase_Database17___update_metadataNtB5_6Common11in_sequence
FNDA:0,_RNvMs4_NtNtNtCsf72If0ieCLb_12orchestrator8database28___mock_MockDatabase_Database17___update_metadataNtB5_6Common5never
FNDA:0,_RINvMs4_NtNtNtCsf72If0ieCLb_12orchestrator8database28___mock_MockDatabase_Database17___update_metadataNtB6_6Common5timespEBc_
FNDA:0,_RINvMs4_NtNtNtCsf72If0ieCLb_12orchestrator8database28___mock_MockDatabase_Database17___update_metadataNtB6_6Common4withppEBc_
FNDA:0,_RINvMs4_NtNtNtCsf72If0ieCLb_12orchestrator8database28___mock_MockDatabase_Database17___update_metadataNtB6_6Common5withfpEBc_
FNDA:0,_RINvMs4_NtNtNtCsf72If0ieCLb_12orchestrator8database28___mock_MockDatabase_Database17___update_metadataNtB6_6Common8withf_stpEBc_
FNDA:0,_RINvMs6_NtNtNtCsf72If0ieCLb_12orchestrator8database28___mock_MockDatabase_Database17___update_metadataNtB6_11Expectation12return_constpEBc_
FNDA:0,_RNCINvMs6_NtNtNtCsf72If0ieCLb_12orchestrator8database28___mock_MockDatabase_Database17___update_metadataNtB8_11Expectation12return_constpE0Be_
FNDA:0,_RINvMs6_NtNtNtCsf72If0ieCLb_12orchestrator8database28___mock_MockDatabase_Database17___update_metadataNtB6_11Expectation15return_const_stpEBc_
FNDA:0,_RNCINvMs6_NtNtNtCsf72If0ieCLb_12orchestrator8database28___mock_MockDatabase_Database17___update_metadataNtB8_11Expectation15return_const_stpE0Be_
FNDA:0,_RINvMs6_NtNtNtCsf72If0ieCLb_12orchestrator8database28___mock_MockDatabase_Database17___update_metadataNtB6_11Expectation11return_oncepEBc_
FNDA:0,_RINvMs6_NtNtNtCsf72If0ieCLb_12orchestrator8database28___mock_MockDatabase_Database17___update_metadataNtB6_11Expectation14return_once_stpEBc_
FNDA:0,_RINvMs6_NtNtNtCsf72If0ieCLb_12orchestrator8database28___mock_MockDatabase_Database17___update_metadataNtB6_11Expectation9returningpEBc_
FNDA:0,_RINvMs6_NtNtNtCsf72If0ieCLb_12orchestrator8database28___mock_MockDatabase_Database17___update_metadataNtB6_11Expectation12returning_stpEBc_
FNDA:0,_RNvMs6_NtNtNtCsf72If0ieCLb_12orchestrator8database28___mock_MockDatabase_Database17___update_metadataNtB5_11Expectation11in_sequence
FNDA:0,_RNvMs6_NtNtNtCsf72If0ieCLb_12orchestrator8database28___mock_MockDatabase_Database17___update_metadataNtB5_11Expectation5never
FNDA:0,_RNvMs6_NtNtNtCsf72If0ieCLb_12orchestrator8database28___mock_MockDatabase_Database17___update_metadataNtB5_11Expectation3new
FNDA:0,_RNvMs6_NtNtNtCsf72If0ieCLb_12orchestrator8database28___mock_MockDatabase_Database17___update_metadataNtB5_11Expectation4once
FNDA:0,_RINvMs6_NtNtNtCsf72If0ieCLb_12orchestrator8database28___mock_MockDatabase_Database17___update_metadataNtB6_11Expectation5timespEBc_
FNDA:0,_RINvMs6_NtNtNtCsf72If0ieCLb_12orchestrator8database28___mock_MockDatabase_Database17___update_metadataNtB6_11Expectation4withppEBc_
FNDA:0,_RINvMs6_NtNtNtCsf72If0ieCLb_12orchestrator8database28___mock_MockDatabase_Database17___update_metadataNtB6_11Expectation5withfpEBc_
FNDA:0,_RINvMs6_NtNtNtCsf72If0ieCLb_12orchestrator8database28___mock_MockDatabase_Database17___update_metadataNtB6_11Expectation8withf_stpEBc_
FNDA:0,_RNvXs7_NtNtNtCsf72If0ieCLb_12orchestrator8database28___mock_MockDatabase_Database17___update_metadataNtB5_11ExpectationNtNtCsl82brYPINY5_4core7default7Default7default
FNDA:0,_RNvMs8_NtNtNtCsf72If0ieCLb_12orchestrator8database28___mock_MockDatabase_Database17___update_metadataNtB5_12Expectations10checkpoint
FNDA:0,_RNvMs8_NtNtNtCsf72If0ieCLb_12orchestrator8database28___mock_MockDatabase_Database17___update_metadataNtB5_12Expectations6expect
FNDA:0,_RNvMs8_NtNtNtCsf72If0ieCLb_12orchestrator8database28___mock_MockDatabase_Database17___update_metadataNtB5_12Expectations3new
FNDA:0,_RNvMs4_NtNtNtCsf72If0ieCLb_12orchestrator8database28___mock_MockDatabase_Database40___get_latest_job_by_type_and_internal_idNtB5_6Common11in_sequence
FNDA:0,_RNvMs4_NtNtNtCsf72If0ieCLb_12orchestrator8database28___mock_MockDatabase_Database40___get_latest_job_by_type_and_internal_idNtB5_6Common5never
FNDA:0,_RINvMs4_NtNtNtCsf72If0ieCLb_12orchestrator8database28___mock_MockDatabase_Database40___get_latest_job_by_type_and_internal_idNtB6_6Common5withfpEBc_
FNDA:0,_RINvMs4_NtNtNtCsf72If0ieCLb_12orchestrator8database28___mock_MockDatabase_Database40___get_latest_job_by_type_and_internal_idNtB6_6Common8withf_stpEBc_
FNDA:0,_RINvMs6_NtNtNtCsf72If0ieCLb_12orchestrator8database28___mock_MockDatabase_Database40___get_latest_job_by_type_and_internal_idNtB6_11Expectation12return_constpEBc_
FNDA:0,_RNCINvMs6_NtNtNtCsf72If0ieCLb_12orchestrator8database28___mock_MockDatabase_Database40___get_latest_job_by_type_and_internal_idNtB8_11Expectation12return_constpE0Be_
FNDA:0,_RINvMs6_NtNtNtCsf72If0ieCLb_12orchestrator8database28___mock_MockDatabase_Database40___get_latest_job_by_type_and_internal_idNtB6_11Expectation15return_const_stpEBc_
FNDA:0,_RNCINvMs6_NtNtNtCsf72If0ieCLb_12orchestrator8database28___mock_MockDatabase_Database40___get_latest_job_by_type_and_internal_idNtB8_11Expectation15return_const_stpE0Be_
FNDA:0,_RINvMs6_NtNtNtCsf72If0ieCLb_12orchestrator8database28___mock_MockDatabase_Database40___get_latest_job_by_type_and_internal_idNtB6_11Expectation11return_oncepEBc_
FNDA:0,_RINvMs6_NtNtNtCsf72If0ieCLb_12orchestrator8database28___mock_MockDatabase_Database40___get_latest_job_by_type_and_internal_idNtB6_11Expectation14return_once_stpEBc_
FNDA:0,_RINvMs6_NtNtNtCsf72If0ieCLb_12orchestrator8database28___mock_MockDatabase_Database40___get_latest_job_by_type_and_internal_idNtB6_11Expectation12returning_stpEBc_
FNDA:0,_RNvMs6_NtNtNtCsf72If0ieCLb_12orchestrator8database28___mock_MockDatabase_Database40___get_latest_job_by_type_and_internal_idNtB5_11Expectation11in_sequence
FNDA:0,_RNvMs6_NtNtNtCsf72If0ieCLb_12orchestrator8database28___mock_MockDatabase_Database40___get_latest_job_by_type_and_internal_idNtB5_11Expectation5never
FNDA:0,_RNvMs6_NtNtNtCsf72If0ieCLb_12orchestrator8database28___mock_MockDatabase_Database40___get_latest_job_by_type_and_internal_idNtB5_11Expectation3new
FNDA:0,_RNvMs6_NtNtNtCsf72If0ieCLb_12orchestrator8database28___mock_MockDatabase_Database40___get_latest_job_by_type_and_internal_idNtB5_11Expectation4once
FNDA:0,_RINvMs6_NtNtNtCsf72If0ieCLb_12orchestrator8database28___mock_MockDatabase_Database40___get_latest_job_by_type_and_internal_idNtB6_11Expectation5withfpEBc_
FNDA:0,_RINvMs6_NtNtNtCsf72If0ieCLb_12orchestrator8database28___mock_MockDatabase_Database40___get_latest_job_by_type_and_internal_idNtB6_11Expectation8withf_stpEBc_
FNDA:0,_RNvMs8_NtNtNtCsf72If0ieCLb_12orchestrator8database28___mock_MockDatabase_Database40___get_latest_job_by_type_and_internal_idNtB5_12Expectations10checkpoint
FNDA:0,_RNvMs8_NtNtNtCsf72If0ieCLb_12orchestrator8database28___mock_MockDatabase_Database40___get_latest_job_by_type_and_internal_idNtB5_12Expectations3new
FNDA:0,_RNvMs4_NtNtNtCsf72If0ieCLb_12orchestrator8database28___mock_MockDatabase_Database28___get_jobs_without_successorNtB5_6Common11in_sequence
FNDA:0,_RNvMs4_NtNtNtCsf72If0ieCLb_12orchestrator8database28___mock_MockDatabase_Database28___get_jobs_without_successorNtB5_6Common5never
FNDA:0,_RINvMs4_NtNtNtCsf72If0ieCLb_12orchestrator8database28___mock_MockDatabase_Database28___get_jobs_without_successorNtB6_6Common4withpppEBc_
FNDA:0,_RINvMs4_NtNtNtCsf72If0ieCLb_12orchestrator8database28___mock_MockDatabase_Database28___get_jobs_without_successorNtB6_6Common8withf_stpEBc_
FNDA:0,_RINvMs6_NtNtNtCsf72If0ieCLb_12orchestrator8database28___mock_MockDatabase_Database28___get_jobs_without_successorNtB6_11Expectation12return_constpEBc_
FNDA:0,_RNCINvMs6_NtNtNtCsf72If0ieCLb_12orchestrator8database28___mock_MockDatabase_Database28___get_jobs_without_successorNtB8_11Expectation12return_constpE0Be_
FNDA:0,_RINvMs6_NtNtNtCsf72If0ieCLb_12orchestrator8database28___mock_MockDatabase_Database28___get_jobs_without_successorNtB6_11Expectation15return_const_stpEBc_
FNDA:0,_RNCINvMs6_NtNtNtCsf72If0ieCLb_12orchestrator8database28___mock_MockDatabase_Database28___get_jobs_without_successorNtB8_11Expectation15return_const_stpE0Be_
FNDA:0,_RINvMs6_NtNtNtCsf72If0ieCLb_12orchestrator8database28___mock_MockDatabase_Database28___get_jobs_without_successorNtB6_11Expectation11return_oncepEBc_
FNDA:0,_RINvMs6_NtNtNtCsf72If0ieCLb_12orchestrator8database28___mock_MockDatabase_Database28___get_jobs_without_successorNtB6_11Expectation14return_once_stpEBc_
FNDA:0,_RINvMs6_NtNtNtCsf72If0ieCLb_12orchestrator8database28___mock_MockDatabase_Database28___get_jobs_without_successorNtB6_11Expectation12returning_stpEBc_
FNDA:0,_RNvMs6_NtNtNtCsf72If0ieCLb_12orchestrator8database28___mock_MockDatabase_Database28___get_jobs_without_successorNtB5_11Expectation11in_sequence
FNDA:0,_RNvMs6_NtNtNtCsf72If0ieCLb_12orchestrator8database28___mock_MockDatabase_Database28___get_jobs_without_successorNtB5_11Expectation5never
FNDA:0,_RNvMs6_NtNtNtCsf72If0ieCLb_12orchestrator8database28___mock_MockDatabase_Database28___get_jobs_without_successorNtB5_11Expectation3new
FNDA:0,_RNvMs6_NtNtNtCsf72If0ieCLb_12orchestrator8database28___mock_MockDatabase_Database28___get_jobs_without_successorNtB5_11Expectation4once
FNDA:0,_RINvMs6_NtNtNtCsf72If0ieCLb_12orchestrator8database28___mock_MockDatabase_Database28___get_jobs_without_successorNtB6_11Expectation4withpppEBc_
FNDA:0,_RINvMs6_NtNtNtCsf72If0ieCLb_12orchestrator8database28___mock_MockDatabase_Database28___get_jobs_without_successorNtB6_11Expectation8withf_stpEBc_
FNDA:0,_RNvMs8_NtNtNtCsf72If0ieCLb_12orchestrator8database28___mock_MockDatabase_Database28___get_jobs_without_successorNtB5_12Expectations10checkpoint
FNDA:0,_RNvMs8_NtNtNtCsf72If0ieCLb_12orchestrator8database28___mock_MockDatabase_Database28___get_jobs_without_successorNtB5_12Expectations3new
FNDA:0,_RNvMs4_NtNtNtCsf72If0ieCLb_12orchestrator8database28___mock_MockDatabase_Database33___get_last_successful_job_by_typeNtB5_6Common11in_sequence
FNDA:0,_RNvMs4_NtNtNtCsf72If0ieCLb_12orchestrator8database28___mock_MockDatabase_Database33___get_last_successful_job_by_typeNtB5_6Common5never
FNDA:0,_RINvMs4_NtNtNtCsf72If0ieCLb_12orchestrator8database28___mock_MockDatabase_Database33___get_last_successful_job_by_typeNtB6_6Common5withfpEBc_
FNDA:0,_RINvMs4_NtNtNtCsf72If0ieCLb_12orchestrator8database28___mock_MockDatabase_Database33___get_last_successful_job_by_typeNtB6_6Common8withf_stpEBc_
FNDA:0,_RINvMs6_NtNtNtCsf72If0ieCLb_12orchestrator8database28___mock_MockDatabase_Database33___get_last_successful_job_by_typeNtB6_11Expectation12return_constpEBc_
FNDA:0,_RNCINvMs6_NtNtNtCsf72If0ieCLb_12orchestrator8database28___mock_MockDatabase_Database33___get_last_successful_job_by_typeNtB8_11Expectation12return_constpE0Be_
FNDA:0,_RINvMs6_NtNtNtCsf72If0ieCLb_12orchestrator8database28___mock_MockDatabase_Database33___get_last_successful_job_by_typeNtB6_11Expectation15return_const_stpEBc_
FNDA:0,_RNCINvMs6_NtNtNtCsf72If0ieCLb_12orchestrator8database28___mock_MockDatabase_Database33___get_last_successful_job_by_typeNtB8_11Expectation15return_const_stpE0Be_
FNDA:0,_RINvMs6_NtNtNtCsf72If0ieCLb_12orchestrator8database28___mock_MockDatabase_Database33___get_last_successful_job_by_typeNtB6_11Expectation11return_oncepEBc_
FNDA:0,_RINvMs6_NtNtNtCsf72If0ieCLb_12orchestrator8database28___mock_MockDatabase_Database33___get_last_successful_job_by_typeNtB6_11Expectation14return_once_stpEBc_
FNDA:0,_RINvMs6_NtNtNtCsf72If0ieCLb_12orchestrator8database28___mock_MockDatabase_Database33___get_last_successful_job_by_typeNtB6_11Expectation12returning_stpEBc_
FNDA:0,_RNvMs6_NtNtNtCsf72If0ieCLb_12orchestrator8database28___mock_MockDatabase_Database33___get_last_successful_job_by_typeNtB5_11Expectation11in_sequence
FNDA:0,_RNvMs6_NtNtNtCsf72If0ieCLb_12orchestrator8database28___mock_MockDatabase_Database33___get_last_successful_job_by_typeNtB5_11Expectation5never
FNDA:0,_RNvMs6_NtNtNtCsf72If0ieCLb_12orchestrator8database28___mock_MockDatabase_Database33___get_last_successful_job_by_typeNtB5_11Expectation3new
FNDA:0,_RNvMs6_NtNtNtCsf72If0ieCLb_12orchestrator8database28___mock_MockDatabase_Database33___get_last_successful_job_by_typeNtB5_11Expectation4once
FNDA:0,_RINvMs6_NtNtNtCsf72If0ieCLb_12orchestrator8database28___mock_MockDatabase_Database33___get_last_successful_job_by_typeNtB6_11Expectation5withfpEBc_
FNDA:0,_RINvMs6_NtNtNtCsf72If0ieCLb_12orchestrator8database28___mock_MockDatabase_Database33___get_last_successful_job_by_typeNtB6_11Expectation8withf_stpEBc_
FNDA:0,_RNvMs8_NtNtNtCsf72If0ieCLb_12orchestrator8database28___mock_MockDatabase_Database33___get_last_successful_job_by_typeNtB5_12Expectations10checkpoint
FNDA:0,_RNvMs8_NtNtNtCsf72If0ieCLb_12orchestrator8database28___mock_MockDatabase_Database33___get_last_successful_job_by_typeNtB5_12Expectations3new
FNDA:0,_RNvMs4_NtNtNtCsf72If0ieCLb_12orchestrator8database28___mock_MockDatabase_Database40___get_jobs_after_internal_id_by_job_typeNtB5_6Common11in_sequence
FNDA:0,_RNvMs4_NtNtNtCsf72If0ieCLb_12orchestrator8database28___mock_MockDatabase_Database40___get_jobs_after_internal_id_by_job_typeNtB5_6Common5never
FNDA:0,_RINvMs4_NtNtNtCsf72If0ieCLb_12orchestrator8database28___mock_MockDatabase_Database40___get_jobs_after_internal_id_by_job_typeNtB6_6Common5timespEBc_
FNDA:0,_RINvMs4_NtNtNtCsf72If0ieCLb_12orchestrator8database28___mock_MockDatabase_Database40___get_jobs_after_internal_id_by_job_typeNtB6_6Common5withfpEBc_
FNDA:0,_RINvMs4_NtNtNtCsf72If0ieCLb_12orchestrator8database28___mock_MockDatabase_Database40___get_jobs_after_internal_id_by_job_typeNtB6_6Common8withf_stpEBc_
FNDA:0,_RINvMs6_NtNtNtCsf72If0ieCLb_12orchestrator8database28___mock_MockDatabase_Database40___get_jobs_after_internal_id_by_job_typeNtB6_11Expectation12return_constpEBc_
FNDA:0,_RNCINvMs6_NtNtNtCsf72If0ieCLb_12orchestrator8database28___mock_MockDatabase_Database40___get_jobs_after_internal_id_by_job_typeNtB8_11Expectation12return_constpE0Be_
FNDA:0,_RINvMs6_NtNtNtCsf72If0ieCLb_12orchestrator8database28___mock_MockDatabase_Database40___get_jobs_after_internal_id_by_job_typeNtB6_11Expectation15return_const_stpEBc_
FNDA:0,_RNCINvMs6_NtNtNtCsf72If0ieCLb_12orchestrator8database28___mock_MockDatabase_Database40___get_jobs_after_internal_id_by_job_typeNtB8_11Expectation15return_const_stpE0Be_
FNDA:0,_RINvMs6_NtNtNtCsf72If0ieCLb_12orchestrator8database28___mock_MockDatabase_Database40___get_jobs_after_internal_id_by_job_typeNtB6_11Expectation11return_oncepEBc_
FNDA:0,_RINvMs6_NtNtNtCsf72If0ieCLb_12orchestrator8database28___mock_MockDatabase_Database40___get_jobs_after_internal_id_by_job_typeNtB6_11Expectation14return_once_stpEBc_
FNDA:0,_RINvMs6_NtNtNtCsf72If0ieCLb_12orchestrator8database28___mock_MockDatabase_Database40___get_jobs_after_internal_id_by_job_typeNtB6_11Expectation12returning_stpEBc_
FNDA:0,_RNvMs6_NtNtNtCsf72If0ieCLb_12orchestrator8database28___mock_MockDatabase_Database40___get_jobs_after_internal_id_by_job_typeNtB5_11Expectation11in_sequence
FNDA:0,_RNvMs6_NtNtNtCsf72If0ieCLb_12orchestrator8database28___mock_MockDatabase_Database40___get_jobs_after_internal_id_by_job_typeNtB5_11Expectation5never
FNDA:0,_RNvMs6_NtNtNtCsf72If0ieCLb_12orchestrator8database28___mock_MockDatabase_Database40___get_jobs_after_internal_id_by_job_typeNtB5_11Expectation3new
FNDA:0,_RNvMs6_NtNtNtCsf72If0ieCLb_12orchestrator8database28___mock_MockDatabase_Database40___get_jobs_after_internal_id_by_job_typeNtB5_11Expectation4once
FNDA:0,_RINvMs6_NtNtNtCsf72If0ieCLb_12orchestrator8database28___mock_MockDatabase_Database40___get_jobs_after_internal_id_by_job_typeNtB6_11Expectation5timespEBc_
FNDA:0,_RINvMs6_NtNtNtCsf72If0ieCLb_12orchestrator8database28___mock_MockDatabase_Database40___get_jobs_after_internal_id_by_job_typeNtB6_11Expectation5withfpEBc_
FNDA:0,_RINvMs6_NtNtNtCsf72If0ieCLb_12orchestrator8database28___mock_MockDatabase_Database40___get_jobs_after_internal_id_by_job_typeNtB6_11Expectation8withf_stpEBc_
FNDA:0,_RNvMs8_NtNtNtCsf72If0ieCLb_12orchestrator8database28___mock_MockDatabase_Database40___get_jobs_after_internal_id_by_job_typeNtB5_12Expectations10checkpoint
FNDA:0,_RNvMs8_NtNtNtCsf72If0ieCLb_12orchestrator8database28___mock_MockDatabase_Database40___get_jobs_after_internal_id_by_job_typeNtB5_12Expectations3new
FNDA:0,_RNvMs1_NtCsf72If0ieCLb_12orchestrator8databaseNtB5_21MockDatabase_Database10checkpoint
FNDA:0,_RNvMs2_NtCsf72If0ieCLb_12orchestrator8databaseNtB5_12MockDatabase10checkpoint
FNDA:0,_RNvMs3_NtCsf72If0ieCLb_12orchestrator8databaseNtB5_12MockDatabase20expect_get_job_by_id
FNDA:0,_RNvMs3_NtCsf72If0ieCLb_12orchestrator8databaseNtB5_12MockDatabase17expect_update_job
FNDA:0,_RNvMs3_NtCsf72If0ieCLb_12orchestrator8databaseNtB5_12MockDatabase24expect_update_job_status
FNDA:0,_RNvMs3_NtCsf72If0ieCLb_12orchestrator8databaseNtB5_12MockDatabase22expect_update_metadata
FNDA:5,_RINvMs6_NtNtNtCsf72If0ieCLb_12orchestrator8database28___mock_MockDatabase_Database12___create_jobNtB6_11Expectation5withfNCNvNtNtNtBc_5tests7workers5utils46db_create_job_expectations_update_state_worker0EBc_
FNDA:9,_RINvMs6_NtNtNtCsf72If0ieCLb_12orchestrator8database28___mock_MockDatabase_Database12___create_jobNtB6_11Expectation5withfNCNvNtNtNtBc_5tests7workers5utils24db_checks_proving_workers_0EBc_
FNDA:0,_RNvMNtNtNtCsf72If0ieCLb_12orchestrator8database28___mock_MockDatabase_Database12___update_jobNtB2_5Rfunc8call_mut
FNDA:0,_RNvMs0_NtNtNtCsf72If0ieCLb_12orchestrator8database28___mock_MockDatabase_Database12___update_jobNtB5_7Matcher7matches
FNDA:0,_RNCNvMs0_NtNtNtCsf72If0ieCLb_12orchestrator8database28___mock_MockDatabase_Database12___update_jobNtB7_7Matcher7matches0Bd_
FNDA:0,_RNvXs2_NtNtNtCsf72If0ieCLb_12orchestrator8database28___mock_MockDatabase_Database12___update_jobNtB5_7MatcherNtNtCsl82brYPINY5_4core3fmt7Display3fmt
FNDA:0,_RNvMs4_NtNtNtCsf72If0ieCLb_12orchestrator8database28___mock_MockDatabase_Database12___update_jobNtB5_6Common4call
FNDA:0,_RNvMs4_NtNtNtCsf72If0ieCLb_12orchestrator8database28___mock_MockDatabase_Database12___update_jobNtB5_6Common7is_done
FNDA:0,_RNvMs4_NtNtNtCsf72If0ieCLb_12orchestrator8database28___mock_MockDatabase_Database12___update_jobNtB5_6Common7matches
FNDA:0,_RNvMs4_NtNtNtCsf72If0ieCLb_12orchestrator8database28___mock_MockDatabase_Database12___update_jobNtB5_6Common16satisfy_sequence
FNDA:0,_RNvMs4_NtNtNtCsf72If0ieCLb_12orchestrator8database28___mock_MockDatabase_Database12___update_jobNtB5_6Common15verify_sequence
FNDA:0,_RNvXs5_NtNtNtCsf72If0ieCLb_12orchestrator8database28___mock_MockDatabase_Database12___update_jobNtB5_6CommonNtNtNtCsl82brYPINY5_4core3ops4drop4Drop4drop
FNDA:0,_RNvMs6_NtNtNtCsf72If0ieCLb_12orchestrator8database28___mock_MockDatabase_Database12___update_jobNtB5_11Expectation4call
FNDA:0,_RNvMs6_NtNtNtCsf72If0ieCLb_12orchestrator8database28___mock_MockDatabase_Database12___update_jobNtB5_11Expectation7is_done
FNDA:0,_RNvMs6_NtNtNtCsf72If0ieCLb_12orchestrator8database28___mock_MockDatabase_Database12___update_jobNtB5_11Expectation7matches
FNDA:0,_RNvMsa_NtNtNtCsf72If0ieCLb_12orchestrator8database28___mock_MockDatabase_Database12___update_jobNtB5_12Expectations4call
FNDA:0,_RNCNvMsa_NtNtNtCsf72If0ieCLb_12orchestrator8database28___mock_MockDatabase_Database12___update_jobNtB7_12Expectations4calls_0Bd_
FNDA:0,_RNCNvMsa_NtNtNtCsf72If0ieCLb_12orchestrator8database28___mock_MockDatabase_Database12___update_jobNtB7_12Expectations4call0Bd_
FNDA:0,_RNvMNtNtNtCsf72If0ieCLb_12orchestrator8database28___mock_MockDatabase_Database17___update_metadataNtB2_5Rfunc8call_mut
FNDA:0,_RNvMs0_NtNtNtCsf72If0ieCLb_12orchestrator8database28___mock_MockDatabase_Database17___update_metadataNtB5_7Matcher7matches
FNDA:0,_RNCNvMs0_NtNtNtCsf72If0ieCLb_12orchestrator8database28___mock_MockDatabase_Database17___update_metadataNtB7_7Matcher7matches0Bd_
FNDA:0,_RNvXs2_NtNtNtCsf72If0ieCLb_12orchestrator8database28___mock_MockDatabase_Database17___update_metadataNtB5_7MatcherNtNtCsl82brYPINY5_4core3fmt7Display3fmt
FNDA:0,_RNvMs4_NtNtNtCsf72If0ieCLb_12orchestrator8database28___mock_MockDatabase_Database17___update_metadataNtB5_6Common4call
FNDA:0,_RNvMs4_NtNtNtCsf72If0ieCLb_12orchestrator8database28___mock_MockDatabase_Database17___update_metadataNtB5_6Common7is_done
FNDA:0,_RNvMs4_NtNtNtCsf72If0ieCLb_12orchestrator8database28___mock_MockDatabase_Database17___update_metadataNtB5_6Common7matches
FNDA:0,_RNvMs4_NtNtNtCsf72If0ieCLb_12orchestrator8database28___mock_MockDatabase_Database17___update_metadataNtB5_6Common16satisfy_sequence
FNDA:0,_RNvMs4_NtNtNtCsf72If0ieCLb_12orchestrator8database28___mock_MockDatabase_Database17___update_metadataNtB5_6Common15verify_sequence
FNDA:0,_RNvXs5_NtNtNtCsf72If0ieCLb_12orchestrator8database28___mock_MockDatabase_Database17___update_metadataNtB5_6CommonNtNtNtCsl82brYPINY5_4core3ops4drop4Drop4drop
FNDA:0,_RNvMs6_NtNtNtCsf72If0ieCLb_12orchestrator8database28___mock_MockDatabase_Database17___update_metadataNtB5_11Expectation4call
FNDA:0,_RNvMs6_NtNtNtCsf72If0ieCLb_12orchestrator8database28___mock_MockDatabase_Database17___update_metadataNtB5_11Expectation7is_done
FNDA:0,_RNvMs6_NtNtNtCsf72If0ieCLb_12orchestrator8database28___mock_MockDatabase_Database17___update_metadataNtB5_11Expectation7matches
FNDA:0,_RNvMsa_NtNtNtCsf72If0ieCLb_12orchestrator8database28___mock_MockDatabase_Database17___update_metadataNtB5_12Expectations4call
FNDA:0,_RNCNvMsa_NtNtNtCsf72If0ieCLb_12orchestrator8database28___mock_MockDatabase_Database17___update_metadataNtB7_12Expectations4calls_0Bd_
FNDA:0,_RNCNvMsa_NtNtNtCsf72If0ieCLb_12orchestrator8database28___mock_MockDatabase_Database17___update_metadataNtB7_12Expectations4call0Bd_
FNDA:2,_RNvMNtNtNtCsf72If0ieCLb_12orchestrator8database28___mock_MockDatabase_Database33___get_last_successful_job_by_typeNtB2_5Rfunc8call_mut
FNDA:2,_RNvMs0_NtNtNtCsf72If0ieCLb_12orchestrator8database28___mock_MockDatabase_Database33___get_last_successful_job_by_typeNtB5_7Matcher7matches
FNDA:2,_RNCNvMs0_NtNtNtCsf72If0ieCLb_12orchestrator8database28___mock_MockDatabase_Database33___get_last_successful_job_by_typeNtB7_7Matcher7matches0Bd_
FNDA:0,_RNvXs2_NtNtNtCsf72If0ieCLb_12orchestrator8database28___mock_MockDatabase_Database33___get_last_successful_job_by_typeNtB5_7MatcherNtNtCsl82brYPINY5_4core3fmt7Display3fmt
FNDA:2,_RNvMs4_NtNtNtCsf72If0ieCLb_12orchestrator8database28___mock_MockDatabase_Database33___get_last_successful_job_by_typeNtB5_6Common4call
FNDA:2,_RNvMs4_NtNtNtCsf72If0ieCLb_12orchestrator8database28___mock_MockDatabase_Database33___get_last_successful_job_by_typeNtB5_6Common7is_done
FNDA:2,_RNvMs4_NtNtNtCsf72If0ieCLb_12orchestrator8database28___mock_MockDatabase_Database33___get_last_successful_job_by_typeNtB5_6Common7matches
FNDA:2,_RNvMs4_NtNtNtCsf72If0ieCLb_12orchestrator8database28___mock_MockDatabase_Database33___get_last_successful_job_by_typeNtB5_6Common16satisfy_sequence
FNDA:2,_RINvMs4_NtNtNtCsf72If0ieCLb_12orchestrator8database28___mock_MockDatabase_Database33___get_last_successful_job_by_typeNtB6_6Common4withINtNtCshPsaE7IPXTr_10predicates3ord11EqPredicateNtNtNtBc_4jobs5types7JobTypeEEBc_
FNDA:2,_RNvMs4_NtNtNtCsf72If0ieCLb_12orchestrator8database28___mock_MockDatabase_Database33___get_last_successful_job_by_typeNtB5_6Common15verify_sequence
FNDA:0,_RNvXs5_NtNtNtCsf72If0ieCLb_12orchestrator8database28___mock_MockDatabase_Database33___get_last_successful_job_by_typeNtB5_6CommonNtNtNtCsl82brYPINY5_4core3ops4drop4Drop4drop
FNDA:2,_RNvMs6_NtNtNtCsf72If0ieCLb_12orchestrator8database28___mock_MockDatabase_Database33___get_last_successful_job_by_typeNtB5_11Expectation4call
FNDA:1,_RINvMs6_NtNtNtCsf72If0ieCLb_12orchestrator8database28___mock_MockDatabase_Database33___get_last_successful_job_by_typeNtB6_11Expectation9returningNCNCNvNtNtNtBc_5tests7workers12update_state24test_update_state_worker00EBc_
FNDA:1,_RINvMs6_NtNtNtCsf72If0ieCLb_12orchestrator8database28___mock_MockDatabase_Database33___get_last_successful_job_by_typeNtB6_11Expectation9returningNCNCNvNtNtNtBc_5tests7workers12update_state24test_update_state_worker0s_0EBc_
FNDA:2,_RNvMs6_NtNtNtCsf72If0ieCLb_12orchestrator8database28___mock_MockDatabase_Database33___get_last_successful_job_by_typeNtB5_11Expectation7is_done
FNDA:2,_RNvMs6_NtNtNtCsf72If0ieCLb_12orchestrator8database28___mock_MockDatabase_Database33___get_last_successful_job_by_typeNtB5_11Expectation7matches
FNDA:2,_RINvMs6_NtNtNtCsf72If0ieCLb_12orchestrator8database28___mock_MockDatabase_Database33___get_last_successful_job_by_typeNtB6_11Expectation5timesjEBc_
FNDA:2,_RINvMs4_NtNtNtCsf72If0ieCLb_12orchestrator8database28___mock_MockDatabase_Database33___get_last_successful_job_by_typeNtB6_6Common5timesjEBc_
FNDA:2,_RINvMs6_NtNtNtCsf72If0ieCLb_12orchestrator8database28___mock_MockDatabase_Database33___get_last_successful_job_by_typeNtB6_11Expectation4withINtNtCshPsaE7IPXTr_10predicates3ord11EqPredicateNtNtNtBc_4jobs5types7JobTypeEEBc_
FNDA:2,_RNvXs7_NtNtNtCsf72If0ieCLb_12orchestrator8database28___mock_MockDatabase_Database33___get_last_successful_job_by_typeNtB5_11ExpectationNtNtCsl82brYPINY5_4core7default7Default7default
FNDA:2,_RNvXs3_NtNtNtCsf72If0ieCLb_12orchestrator8database28___mock_MockDatabase_Database33___get_last_successful_job_by_typeNtB5_6CommonNtNtCsl82brYPINY5_4core7default7Default7default
FNDA:2,_RNvXs1_NtNtNtCsf72If0ieCLb_12orchestrator8database28___mock_MockDatabase_Database33___get_last_successful_job_by_typeNtB5_7MatcherNtNtCsl82brYPINY5_4core7default7Default7default
FNDA:2,_RNvXs_NtNtNtCsf72If0ieCLb_12orchestrator8database28___mock_MockDatabase_Database33___get_last_successful_job_by_typeNtB4_5RfuncNtNtCsl82brYPINY5_4core7default7Default7default
FNDA:2,_RNvMs8_NtNtNtCsf72If0ieCLb_12orchestrator8database28___mock_MockDatabase_Database33___get_last_successful_job_by_typeNtB5_12Expectations6expect
FNDA:2,_RNvMsa_NtNtNtCsf72If0ieCLb_12orchestrator8database28___mock_MockDatabase_Database33___get_last_successful_job_by_typeNtB5_12Expectations4call
FNDA:2,_RNCNvMsa_NtNtNtCsf72If0ieCLb_12orchestrator8database28___mock_MockDatabase_Database33___get_last_successful_job_by_typeNtB7_12Expectations4calls_0Bd_
FNDA:2,_RNCNvMsa_NtNtNtCsf72If0ieCLb_12orchestrator8database28___mock_MockDatabase_Database33___get_last_successful_job_by_typeNtB7_12Expectations4call0Bd_
FNDA:24,_RINvMs6_NtNtNtCsf72If0ieCLb_12orchestrator8database28___mock_MockDatabase_Database33___get_job_by_internal_id_and_typeNtB6_11Expectation4withINtNtCshPsaE7IPXTr_10predicates3ord11EqPredicateNtNtCshB4XevuvN1H_5alloc6string6StringEIB2g_NtNtNtBc_4jobs5types7JobTypeEEBc_
FNF:1
FNH:1
DA:23,569
BRF:0
BRH:0
LF:1
LH:1
end_of_record
SF:/Users/ocdbytes/Karnot/madara-orchestrator/crates/orchestrator/src/database/mongodb/config.rs
FN:10,_RNvXNtNtNtCsf72If0ieCLb_12orchestrator8database7mongodb6configNtB2_13MongoDbConfigNtB6_14DatabaseConfig12new_from_env
FNDA:0,_RNvXNtNtNtCsf72If0ieCLb_12orchestrator8database7mongodb6configNtB2_13MongoDbConfigNtB6_14DatabaseConfig12new_from_env
FNF:1
FNH:0
DA:10,0
DA:11,0
DA:12,0
BRF:0
BRH:0
LF:3
LH:0
end_of_record
SF:/Users/ocdbytes/Karnot/madara-orchestrator/crates/orchestrator/src/database/mongodb/mod.rs
FN:43,_RNvMNtNtCsf72If0ieCLb_12orchestrator8database7mongodbNtB2_7MongoDb18get_job_collection
FN:50,_RNvMNtNtCsf72If0ieCLb_12orchestrator8database7mongodbNtB2_7MongoDb25update_job_optimistically
FN:50,_RNCNvMNtNtCsf72If0ieCLb_12orchestrator8database7mongodbNtB4_7MongoDb25update_job_optimistically0B8_
FN:66,_RNvXs_NtNtCsf72If0ieCLb_12orchestrator8database7mongodbNtB4_7MongoDbNtB6_8Database10create_job
FN:66,_RNCNvXs_NtNtCsf72If0ieCLb_12orchestrator8database7mongodbNtB6_7MongoDbNtB8_8Database10create_job0Ba_
FN:71,_RNvXs_NtNtCsf72If0ieCLb_12orchestrator8database7mongodbNtB4_7MongoDbNtB6_8Database13get_job_by_id
FN:71,_RNCNvXs_NtNtCsf72If0ieCLb_12orchestrator8database7mongodbNtB6_7MongoDbNtB8_8Database13get_job_by_id0Ba_
FN:78,_RNvXs_NtNtCsf72If0ieCLb_12orchestrator8database7mongodbNtB4_7MongoDbNtB6_8Database31get_job_by_internal_id_and_type
FN:78,_RNCNvXs_NtNtCsf72If0ieCLb_12orchestrator8database7mongodbNtB6_7MongoDbNtB8_8Database31get_job_by_internal_id_and_type0Ba_
FN:86,_RNvXs_NtNtCsf72If0ieCLb_12orchestrator8database7mongodbNtB4_7MongoDbNtB6_8Database10update_job
FN:86,_RNCNvXs_NtNtCsf72If0ieCLb_12orchestrator8database7mongodbNtB6_7MongoDbNtB8_8Database10update_job0Ba_
FN:95,_RNvXs_NtNtCsf72If0ieCLb_12orchestrator8database7mongodbNtB4_7MongoDbNtB6_8Database17update_job_status
FN:95,_RNCNvXs_NtNtCsf72If0ieCLb_12orchestrator8database7mongodbNtB6_7MongoDbNtB8_8Database17update_job_status0Ba_
FN:105,_RNvXs_NtNtCsf72If0ieCLb_12orchestrator8database7mongodbNtB4_7MongoDbNtB6_8Database15update_metadata
FN:105,_RNCNvXs_NtNtCsf72If0ieCLb_12orchestrator8database7mongodbNtB6_7MongoDbNtB8_8Database15update_metadata0Ba_
FN:115,_RNvXs_NtNtCsf72If0ieCLb_12orchestrator8database7mongodbNtB4_7MongoDbNtB6_8Database38get_latest_job_by_type_and_internal_id
FN:115,_RNCNvXs_NtNtCsf72If0ieCLb_12orchestrator8database7mongodbNtB6_7MongoDbNtB8_8Database38get_latest_job_by_type_and_internal_id0Ba_
FN:153,_RNvXs_NtNtCsf72If0ieCLb_12orchestrator8database7mongodbNtB4_7MongoDbNtB6_8Database26get_jobs_without_successor
FN:153,_RNCNvXs_NtNtCsf72If0ieCLb_12orchestrator8database7mongodbNtB6_7MongoDbNtB8_8Database26get_jobs_without_successor0Ba_
FN:248,_RNvXs_NtNtCsf72If0ieCLb_12orchestrator8database7mongodbNtB4_7MongoDbNtB6_8Database31get_last_successful_job_by_type
FN:248,_RNCNvXs_NtNtCsf72If0ieCLb_12orchestrator8database7mongodbNtB6_7MongoDbNtB8_8Database31get_last_successful_job_by_type0Ba_
FN:267,_RNvXs_NtNtCsf72If0ieCLb_12orchestrator8database7mongodbNtB4_7MongoDbNtB6_8Database38get_jobs_after_internal_id_by_job_type
FN:267,_RNCNvXs_NtNtCsf72If0ieCLb_12orchestrator8database7mongodbNtB6_7MongoDbNtB8_8Database38get_jobs_after_internal_id_by_job_type0Ba_
FN:28,_RNvMNtNtCsf72If0ieCLb_12orchestrator8database7mongodbNtB2_7MongoDb3new
FN:28,_RNCNvMNtNtCsf72If0ieCLb_12orchestrator8database7mongodbNtB4_7MongoDb3new0B8_
FNDA:0,_RNvMNtNtCsf72If0ieCLb_12orchestrator8database7mongodbNtB2_7MongoDb18get_job_collection
FNDA:0,_RNvMNtNtCsf72If0ieCLb_12orchestrator8database7mongodbNtB2_7MongoDb25update_job_optimistically
FNDA:0,_RNCNvMNtNtCsf72If0ieCLb_12orchestrator8database7mongodbNtB4_7MongoDb25update_job_optimistically0B8_
FNDA:0,_RNvXs_NtNtCsf72If0ieCLb_12orchestrator8database7mongodbNtB4_7MongoDbNtB6_8Database10create_job
FNDA:0,_RNCNvXs_NtNtCsf72If0ieCLb_12orchestrator8database7mongodbNtB6_7MongoDbNtB8_8Database10create_job0Ba_
FNDA:0,_RNvXs_NtNtCsf72If0ieCLb_12orchestrator8database7mongodbNtB4_7MongoDbNtB6_8Database13get_job_by_id
FNDA:0,_RNCNvXs_NtNtCsf72If0ieCLb_12orchestrator8database7mongodbNtB6_7MongoDbNtB8_8Database13get_job_by_id0Ba_
FNDA:0,_RNvXs_NtNtCsf72If0ieCLb_12orchestrator8database7mongodbNtB4_7MongoDbNtB6_8Database31get_job_by_internal_id_and_type
FNDA:0,_RNCNvXs_NtNtCsf72If0ieCLb_12orchestrator8database7mongodbNtB6_7MongoDbNtB8_8Database31get_job_by_internal_id_and_type0Ba_
FNDA:0,_RNvXs_NtNtCsf72If0ieCLb_12orchestrator8database7mongodbNtB4_7MongoDbNtB6_8Database10update_job
FNDA:0,_RNCNvXs_NtNtCsf72If0ieCLb_12orchestrator8database7mongodbNtB6_7MongoDbNtB8_8Database10update_job0Ba_
FNDA:0,_RNvXs_NtNtCsf72If0ieCLb_12orchestrator8database7mongodbNtB4_7MongoDbNtB6_8Database17update_job_status
FNDA:0,_RNCNvXs_NtNtCsf72If0ieCLb_12orchestrator8database7mongodbNtB6_7MongoDbNtB8_8Database17update_job_status0Ba_
FNDA:0,_RNvXs_NtNtCsf72If0ieCLb_12orchestrator8database7mongodbNtB4_7MongoDbNtB6_8Database15update_metadata
FNDA:0,_RNCNvXs_NtNtCsf72If0ieCLb_12orchestrator8database7mongodbNtB6_7MongoDbNtB8_8Database15update_metadata0Ba_
FNDA:0,_RNvXs_NtNtCsf72If0ieCLb_12orchestrator8database7mongodbNtB4_7MongoDbNtB6_8Database38get_latest_job_by_type_and_internal_id
FNDA:0,_RNCNvXs_NtNtCsf72If0ieCLb_12orchestrator8database7mongodbNtB6_7MongoDbNtB8_8Database38get_latest_job_by_type_and_internal_id0Ba_
FNDA:0,_RNvXs_NtNtCsf72If0ieCLb_12orchestrator8database7mongodbNtB4_7MongoDbNtB6_8Database26get_jobs_without_successor
FNDA:0,_RNCNvXs_NtNtCsf72If0ieCLb_12orchestrator8database7mongodbNtB6_7MongoDbNtB8_8Database26get_jobs_without_successor0Ba_
FNDA:0,_RNvXs_NtNtCsf72If0ieCLb_12orchestrator8database7mongodbNtB4_7MongoDbNtB6_8Database31get_last_successful_job_by_type
FNDA:0,_RNCNvXs_NtNtCsf72If0ieCLb_12orchestrator8database7mongodbNtB6_7MongoDbNtB8_8Database31get_last_successful_job_by_type0Ba_
FNDA:0,_RNvXs_NtNtCsf72If0ieCLb_12orchestrator8database7mongodbNtB4_7MongoDbNtB6_8Database38get_jobs_after_internal_id_by_job_type
FNDA:0,_RNCNvXs_NtNtCsf72If0ieCLb_12orchestrator8database7mongodbNtB6_7MongoDbNtB8_8Database38get_jobs_after_internal_id_by_job_type0Ba_
FNDA:0,_RNvMNtNtCsf72If0ieCLb_12orchestrator8database7mongodbNtB2_7MongoDb3new
FNDA:0,_RNCNvMNtNtCsf72If0ieCLb_12orchestrator8database7mongodbNtB4_7MongoDb3new0B8_
FNF:15
FNH:0
DA:28,0
DA:29,0
DA:30,0
DA:31,0
DA:32,0
DA:33,0
DA:34,0
DA:35,0
DA:36,0
DA:37,0
DA:38,0
DA:39,0
DA:40,0
DA:41,0
DA:43,0
DA:44,0
DA:45,0
DA:50,0
DA:51,0
DA:52,0
DA:53,0
DA:54,0
DA:55,0
DA:56,0
DA:57,0
DA:58,0
DA:59,0
DA:60,0
DA:61,0
DA:66,0
DA:67,0
DA:68,0
DA:69,0
DA:71,0
DA:72,0
DA:73,0
DA:74,0
DA:75,0
DA:76,0
DA:78,0
DA:79,0
DA:80,0
DA:81,0
DA:82,0
DA:83,0
DA:84,0
DA:86,0
DA:87,0
DA:88,0
DA:89,0
DA:90,0
DA:91,0
DA:92,0
DA:93,0
DA:95,0
DA:96,0
DA:97,0
DA:98,0
DA:99,0
DA:100,0
DA:101,0
DA:102,0
DA:103,0
DA:105,0
DA:106,0
DA:107,0
DA:108,0
DA:109,0
DA:110,0
DA:111,0
DA:112,0
DA:113,0
DA:115,0
DA:116,0
DA:117,0
DA:118,0
DA:119,0
DA:120,0
DA:121,0
DA:122,0
DA:123,0
DA:124,0
DA:125,0
DA:153,0
DA:154,0
DA:155,0
DA:156,0
DA:157,0
DA:158,0
DA:159,0
DA:160,0
DA:161,0
DA:162,0
DA:163,0
DA:164,0
DA:165,0
DA:166,0
DA:167,0
DA:168,0
DA:169,0
DA:170,0
DA:171,0
DA:172,0
DA:173,0
DA:174,0
DA:175,0
DA:176,0
DA:177,0
DA:178,0
DA:179,0
DA:180,0
DA:181,0
DA:182,0
DA:183,0
DA:184,0
DA:185,0
DA:186,0
DA:187,0
DA:188,0
DA:189,0
DA:190,0
DA:191,0
DA:192,0
DA:193,0
DA:194,0
DA:195,0
DA:196,0
DA:197,0
DA:198,0
DA:199,0
DA:200,0
DA:201,0
DA:202,0
DA:203,0
DA:204,0
DA:205,0
DA:206,0
DA:207,0
DA:208,0
DA:209,0
DA:210,0
DA:211,0
DA:212,0
DA:213,0
DA:214,0
DA:215,0
DA:216,0
DA:217,0
DA:218,0
DA:219,0
DA:220,0
DA:221,0
DA:222,0
DA:223,0
DA:224,0
DA:225,0
DA:226,0
DA:227,0
DA:228,0
DA:229,0
DA:230,0
DA:231,0
DA:232,0
DA:233,0
DA:234,0
DA:235,0
DA:236,0
DA:237,0
DA:238,0
DA:239,0
DA:240,0
DA:241,0
DA:242,0
DA:243,0
DA:244,0
DA:245,0
DA:246,0
DA:248,0
DA:249,0
DA:250,0
DA:251,0
DA:252,0
DA:253,0
DA:254,0
DA:255,0
DA:256,0
DA:257,0
DA:258,0
DA:259,0
DA:260,0
DA:267,0
DA:268,0
DA:269,0
DA:270,0
DA:271,0
DA:272,0
DA:273,0
DA:274,0
DA:275,0
DA:276,0
DA:277,0
DA:278,0
DA:279,0
DA:280,0
DA:281,0
DA:282,0
DA:283,0
DA:284,0
DA:285,0
DA:286,0
DA:287,0
DA:288,0
DA:289,0
DA:290,0
DA:291,0
DA:292,0
BRF:0
BRH:0
LF:218
LH:0
end_of_record
SF:/Users/ocdbytes/Karnot/madara-orchestrator/crates/orchestrator/src/jobs/da_job/mod.rs
FN:430,_RINvXs_NvXNvNtNtNtCsf72If0ieCLb_12orchestrator4jobs6da_job5testss_1__NtBa_12NonceAddressNtNtCs6LpWrqowvw4_5serde2de11Deserialize11deserializeNtB5_7___FieldB1o_11deserializeINtNtCs7GeGMEtFxdc_10serde_json2de6MapKeyNtNtB2P_4read7StrReadEEBg_
FN:430,_RINvXs0_NvXNvNtNtNtCsf72If0ieCLb_12orchestrator4jobs6da_job5testss_1__NtBb_12NonceAddressNtNtCs6LpWrqowvw4_5serde2de11Deserialize11deserializeNtB6_9___VisitorNtB1r_7Visitor9visit_seqINtNtCs7GeGMEtFxdc_10serde_json2de9SeqAccessNtNtB2Z_4read7StrReadEEBh_
FN:430,_RINvXs0_NvXNvNtNtNtCsf72If0ieCLb_12orchestrator4jobs6da_job5testss_1__NtBb_12NonceAddressNtNtCs6LpWrqowvw4_5serde2de11Deserialize11deserializeNtB6_9___VisitorNtB1r_7Visitor9visit_mapINtNtCs7GeGMEtFxdc_10serde_json2de9MapAccessNtNtB2Z_4read7StrReadEEBh_
FN:129,_RNvNtNtCsf72If0ieCLb_12orchestrator4jobs6da_job18fft_transformation
FN:148,_RNvNtNtCsf72If0ieCLb_12orchestrator4jobs6da_job18convert_to_biguint
FN:167,_RNvNtNtCsf72If0ieCLb_12orchestrator4jobs6da_job13data_to_blobs
FN:179,_RNCNvNtNtCsf72If0ieCLb_12orchestrator4jobs6da_job13data_to_blobs0B7_
FN:199,_RNvNtNtCsf72If0ieCLb_12orchestrator4jobs6da_job25state_update_to_blob_data
FN:203,_RNCNvNtNtCsf72If0ieCLb_12orchestrator4jobs6da_job25state_update_to_blob_data0B7_
FN:228,_RNCNCNvNtNtCsf72If0ieCLb_12orchestrator4jobs6da_job25state_update_to_blob_data0s3_0B9_
FN:281,_RNvNtNtCsf72If0ieCLb_12orchestrator4jobs6da_job7da_word
FN:421,_RNvNtNtNtCsf72If0ieCLb_12orchestrator4jobs6da_job5tests27read_state_update_from_file
FN:436,_RNvNtNtNtCsf72If0ieCLb_12orchestrator4jobs6da_job5tests18get_nonce_attached
FN:460,_RNvNtNtNtCsf72If0ieCLb_12orchestrator4jobs6da_job5tests20vec_u8_to_hex_string
FN:51,_RNvXs6_NtNtCsf72If0ieCLb_12orchestrator4jobs6da_jobNtB5_5DaJobNtB7_3Job10create_job
FN:51,_RNCNvXs6_NtNtCsf72If0ieCLb_12orchestrator4jobs6da_jobNtB7_5DaJobNtB9_3Job10create_job0Bb_
FN:63,_RNvXs6_NtNtCsf72If0ieCLb_12orchestrator4jobs6da_jobNtB5_5DaJobNtB7_3Job11process_job
FN:63,_RNCNvXs6_NtNtCsf72If0ieCLb_12orchestrator4jobs6da_jobNtB7_5DaJobNtB9_3Job11process_job0Bb_
FN:112,_RNvXs6_NtNtCsf72If0ieCLb_12orchestrator4jobs6da_jobNtB5_5DaJobNtB7_3Job10verify_job
FN:112,_RNCNvXs6_NtNtCsf72If0ieCLb_12orchestrator4jobs6da_jobNtB7_5DaJobNtB9_3Job10verify_job0Bb_
FN:116,_RNvXs6_NtNtCsf72If0ieCLb_12orchestrator4jobs6da_jobNtB5_5DaJobNtB7_3Job20max_process_attempts
FN:120,_RNvXs6_NtNtCsf72If0ieCLb_12orchestrator4jobs6da_jobNtB5_5DaJobNtB7_3Job25max_verification_attempts
FN:124,_RNvXs6_NtNtCsf72If0ieCLb_12orchestrator4jobs6da_jobNtB5_5DaJobNtB7_3Job34verification_polling_delay_seconds
FN:334,_RNvNtNtNtCsf72If0ieCLb_12orchestrator4jobs6da_job5tests13da_word_works
FN:351,_RNCNvNtNtNtCsf72If0ieCLb_12orchestrator4jobs6da_job5tests30test_state_update_to_blob_data0B9_
FN:351,_RNvNtNtNtNtCsf72If0ieCLb_12orchestrator4jobs6da_job5tests30test_state_update_to_blob_datas_6case_1
FN:351,_RNvNtNtNtNtCsf72If0ieCLb_12orchestrator4jobs6da_job5tests30test_state_update_to_blob_datas_6case_2
FN:351,_RNvNtNtNtNtCsf72If0ieCLb_12orchestrator4jobs6da_job5tests30test_state_update_to_blob_datas_6case_3
FN:401,_RNvNtNtNtCsf72If0ieCLb_12orchestrator4jobs6da_job5tests23test_fft_transformation
FN:430,_RINvXNvXNvNtNtNtCsf72If0ieCLb_12orchestrator4jobs6da_job5testss_1__NtB8_12NonceAddressNtNtCs6LpWrqowvw4_5serde2de11Deserialize11deserializeNtB3_14___FieldVisitorNtB1o_7Visitor9visit_strNtNtCs7GeGMEtFxdc_10serde_json5error5ErrorEBe_
FN:430,_RNvXs0_NvXNvNtNtNtCsf72If0ieCLb_12orchestrator4jobs6da_job5testss_1__NtBa_12NonceAddressNtNtCs6LpWrqowvw4_5serde2de11Deserialize11deserializeNtB5_9___VisitorNtB1q_7Visitor9expecting
FN:334,_RNvNtNtNtNtCsf72If0ieCLb_12orchestrator4jobs6da_job5tests13da_word_workss_6case_1
FN:334,_RNvNtNtNtNtCsf72If0ieCLb_12orchestrator4jobs6da_job5tests13da_word_workss_6case_2
FN:334,_RNvNtNtNtNtCsf72If0ieCLb_12orchestrator4jobs6da_job5tests13da_word_workss_6case_3
FN:334,_RNvNtNtNtNtCsf72If0ieCLb_12orchestrator4jobs6da_job5tests13da_word_workss_6case_4
FN:453,_RNCNvNtNtNtCsf72If0ieCLb_12orchestrator4jobs6da_job5tests18get_nonce_attached0B9_
FN:131,_RNCNvNtNtCsf72If0ieCLb_12orchestrator4jobs6da_job18fft_transformation0B7_
FN:216,_RNCNCNvNtNtCsf72If0ieCLb_12orchestrator4jobs6da_job25state_update_to_blob_data00B9_
FN:218,_RNCNCNvNtNtCsf72If0ieCLb_12orchestrator4jobs6da_job25state_update_to_blob_data0s_0B9_
FN:220,_RNCNCNvNtNtCsf72If0ieCLb_12orchestrator4jobs6da_job25state_update_to_blob_data0s0_0B9_
FN:222,_RNCNCNvNtNtCsf72If0ieCLb_12orchestrator4jobs6da_job25state_update_to_blob_data0s1_0B9_
FN:224,_RNCNCNvNtNtCsf72If0ieCLb_12orchestrator4jobs6da_job25state_update_to_blob_data0s2_0B9_
FN:461,_RNCNvNtNtNtCsf72If0ieCLb_12orchestrator4jobs6da_job5tests20vec_u8_to_hex_string0B9_
FN:430,_RNvXNvXNvNtNtNtCsf72If0ieCLb_12orchestrator4jobs6da_job5testss_1__NtB7_12NonceAddressNtNtCs6LpWrqowvw4_5serde2de11Deserialize11deserializeNtB2_14___FieldVisitorNtB1n_7Visitor9expecting
FN:430,_RINvXNvXNvNtNtNtCsf72If0ieCLb_12orchestrator4jobs6da_job5testss_1__NtB8_12NonceAddressNtNtCs6LpWrqowvw4_5serde2de11Deserialize11deserializeNtB3_14___FieldVisitorNtB1o_7Visitor9visit_u64pEBe_
FN:430,_RINvXNvXNvNtNtNtCsf72If0ieCLb_12orchestrator4jobs6da_job5testss_1__NtB8_12NonceAddressNtNtCs6LpWrqowvw4_5serde2de11Deserialize11deserializeNtB3_14___FieldVisitorNtB1o_7Visitor11visit_bytespEBe_
FN:401,_RNvNtNtNtNtCsf72If0ieCLb_12orchestrator4jobs6da_job5tests23test_fft_transformations_6case_1
FN:401,_RNvNtNtNtNtCsf72If0ieCLb_12orchestrator4jobs6da_job5tests23test_fft_transformations_6case_2
FN:401,_RNvNtNtNtNtCsf72If0ieCLb_12orchestrator4jobs6da_job5tests23test_fft_transformations_6case_3
FN:401,_RNvNtNtNtNtCsf72If0ieCLb_12orchestrator4jobs6da_job5tests23test_fft_transformations_6case_4
FN:401,_RNvNtNtNtNtCsf72If0ieCLb_12orchestrator4jobs6da_job5tests23test_fft_transformations_6case_5
FN:401,_RNvNtNtNtNtCsf72If0ieCLb_12orchestrator4jobs6da_job5tests23test_fft_transformations_6case_6
FN:401,_RNvNtNtNtNtCsf72If0ieCLb_12orchestrator4jobs6da_job5tests23test_fft_transformations_6case_7
FNDA:556,_RINvXs_NvXNvNtNtNtCsf72If0ieCLb_12orchestrator4jobs6da_job5testss_1__NtBa_12NonceAddressNtNtCs6LpWrqowvw4_5serde2de11Deserialize11deserializeNtB5_7___FieldB1o_11deserializeINtNtCs7GeGMEtFxdc_10serde_json2de6MapKeyNtNtB2P_4read7StrReadEEBg_
FNDA:0,_RINvXs0_NvXNvNtNtNtCsf72If0ieCLb_12orchestrator4jobs6da_job5testss_1__NtBb_12NonceAddressNtNtCs6LpWrqowvw4_5serde2de11Deserialize11deserializeNtB6_9___VisitorNtB1r_7Visitor9visit_seqINtNtCs7GeGMEtFxdc_10serde_json2de9SeqAccessNtNtB2Z_4read7StrReadEEBh_
FNDA:278,_RINvXs0_NvXNvNtNtNtCsf72If0ieCLb_12orchestrator4jobs6da_job5testss_1__NtBb_12NonceAddressNtNtCs6LpWrqowvw4_5serde2de11Deserialize11deserializeNtB6_9___VisitorNtB1r_7Visitor9visit_mapINtNtCs7GeGMEtFxdc_10serde_json2de9MapAccessNtNtB2Z_4read7StrReadEEBh_
FNDA:8,_RNvNtNtCsf72If0ieCLb_12orchestrator4jobs6da_job18fft_transformation
FNDA:4,_RNvNtNtCsf72If0ieCLb_12orchestrator4jobs6da_job18convert_to_biguint
FNDA:1,_RNvNtNtCsf72If0ieCLb_12orchestrator4jobs6da_job13data_to_blobs
FNDA:4096,_RNCNvNtNtCsf72If0ieCLb_12orchestrator4jobs6da_job13data_to_blobs0B7_
FNDA:4,_RNvNtNtCsf72If0ieCLb_12orchestrator4jobs6da_job25state_update_to_blob_data
FNDA:4,_RNCNvNtNtCsf72If0ieCLb_12orchestrator4jobs6da_job25state_update_to_blob_data0B7_
FNDA:1053,_RNCNCNvNtNtCsf72If0ieCLb_12orchestrator4jobs6da_job25state_update_to_blob_data0s3_0B9_
FNDA:1077,_RNvNtNtCsf72If0ieCLb_12orchestrator4jobs6da_job7da_word
FNDA:3,_RNvNtNtNtCsf72If0ieCLb_12orchestrator4jobs6da_job5tests27read_state_update_from_file
FNDA:3,_RNvNtNtNtCsf72If0ieCLb_12orchestrator4jobs6da_job5tests18get_nonce_attached
FNDA:278,_RNvNtNtNtCsf72If0ieCLb_12orchestrator4jobs6da_job5tests20vec_u8_to_hex_string
FNDA:1,_RNvXs6_NtNtCsf72If0ieCLb_12orchestrator4jobs6da_jobNtB5_5DaJobNtB7_3Job10create_job
FNDA:1,_RNCNvXs6_NtNtCsf72If0ieCLb_12orchestrator4jobs6da_jobNtB7_5DaJobNtB9_3Job10create_job0Bb_
FNDA:1,_RNvXs6_NtNtCsf72If0ieCLb_12orchestrator4jobs6da_jobNtB5_5DaJobNtB7_3Job11process_job
FNDA:1,_RNCNvXs6_NtNtCsf72If0ieCLb_12orchestrator4jobs6da_jobNtB7_5DaJobNtB9_3Job11process_job0Bb_
FNDA:1,_RNvXs6_NtNtCsf72If0ieCLb_12orchestrator4jobs6da_jobNtB5_5DaJobNtB7_3Job10verify_job
FNDA:1,_RNCNvXs6_NtNtCsf72If0ieCLb_12orchestrator4jobs6da_jobNtB7_5DaJobNtB9_3Job10verify_job0Bb_
FNDA:0,_RNvXs6_NtNtCsf72If0ieCLb_12orchestrator4jobs6da_jobNtB5_5DaJobNtB7_3Job20max_process_attempts
FNDA:0,_RNvXs6_NtNtCsf72If0ieCLb_12orchestrator4jobs6da_jobNtB5_5DaJobNtB7_3Job25max_verification_attempts
FNDA:0,_RNvXs6_NtNtCsf72If0ieCLb_12orchestrator4jobs6da_jobNtB5_5DaJobNtB7_3Job34verification_polling_delay_seconds
FNDA:4,_RNvNtNtNtCsf72If0ieCLb_12orchestrator4jobs6da_job5tests13da_word_works
FNDA:3,_RNCNvNtNtNtCsf72If0ieCLb_12orchestrator4jobs6da_job5tests30test_state_update_to_blob_data0B9_
FNDA:1,_RNvNtNtNtNtCsf72If0ieCLb_12orchestrator4jobs6da_job5tests30test_state_update_to_blob_datas_6case_1
FNDA:1,_RNvNtNtNtNtCsf72If0ieCLb_12orchestrator4jobs6da_job5tests30test_state_update_to_blob_datas_6case_2
FNDA:1,_RNvNtNtNtNtCsf72If0ieCLb_12orchestrator4jobs6da_job5tests30test_state_update_to_blob_datas_6case_3
FNDA:7,_RNvNtNtNtCsf72If0ieCLb_12orchestrator4jobs6da_job5tests23test_fft_transformation
FNDA:556,_RINvXNvXNvNtNtNtCsf72If0ieCLb_12orchestrator4jobs6da_job5testss_1__NtB8_12NonceAddressNtNtCs6LpWrqowvw4_5serde2de11Deserialize11deserializeNtB3_14___FieldVisitorNtB1o_7Visitor9visit_strNtNtCs7GeGMEtFxdc_10serde_json5error5ErrorEBe_
FNDA:0,_RNvXs0_NvXNvNtNtNtCsf72If0ieCLb_12orchestrator4jobs6da_job5testss_1__NtBa_12NonceAddressNtNtCs6LpWrqowvw4_5serde2de11Deserialize11deserializeNtB5_9___VisitorNtB1q_7Visitor9expecting
FNDA:1,_RNvNtNtNtNtCsf72If0ieCLb_12orchestrator4jobs6da_job5tests13da_word_workss_6case_1
FNDA:1,_RNvNtNtNtNtCsf72If0ieCLb_12orchestrator4jobs6da_job5tests13da_word_workss_6case_2
FNDA:1,_RNvNtNtNtNtCsf72If0ieCLb_12orchestrator4jobs6da_job5tests13da_word_workss_6case_3
FNDA:1,_RNvNtNtNtNtCsf72If0ieCLb_12orchestrator4jobs6da_job5tests13da_word_workss_6case_4
FNDA:278,_RNCNvNtNtNtCsf72If0ieCLb_12orchestrator4jobs6da_job5tests18get_nonce_attached0B9_
FNDA:32768,_RNCNvNtNtCsf72If0ieCLb_12orchestrator4jobs6da_job18fft_transformation0B7_
FNDA:1073,_RNCNCNvNtNtCsf72If0ieCLb_12orchestrator4jobs6da_job25state_update_to_blob_data00B9_
FNDA:4,_RNCNCNvNtNtCsf72If0ieCLb_12orchestrator4jobs6da_job25state_update_to_blob_data0s_0B9_
FNDA:20,_RNCNCNvNtNtCsf72If0ieCLb_12orchestrator4jobs6da_job25state_update_to_blob_data0s0_0B9_
FNDA:2,_RNCNCNvNtNtCsf72If0ieCLb_12orchestrator4jobs6da_job25state_update_to_blob_data0s1_0B9_
FNDA:792,_RNCNCNvNtNtCsf72If0ieCLb_12orchestrator4jobs6da_job25state_update_to_blob_data0s2_0B9_
FNDA:8896,_RNCNvNtNtNtCsf72If0ieCLb_12orchestrator4jobs6da_job5tests20vec_u8_to_hex_string0B9_
FNDA:0,_RNvXNvXNvNtNtNtCsf72If0ieCLb_12orchestrator4jobs6da_job5testss_1__NtB7_12NonceAddressNtNtCs6LpWrqowvw4_5serde2de11Deserialize11deserializeNtB2_14___FieldVisitorNtB1n_7Visitor9expecting
FNDA:0,_RINvXNvXNvNtNtNtCsf72If0ieCLb_12orchestrator4jobs6da_job5testss_1__NtB8_12NonceAddressNtNtCs6LpWrqowvw4_5serde2de11Deserialize11deserializeNtB3_14___FieldVisitorNtB1o_7Visitor9visit_u64pEBe_
FNDA:0,_RINvXNvXNvNtNtNtCsf72If0ieCLb_12orchestrator4jobs6da_job5testss_1__NtB8_12NonceAddressNtNtCs6LpWrqowvw4_5serde2de11Deserialize11deserializeNtB3_14___FieldVisitorNtB1o_7Visitor11visit_bytespEBe_
FNDA:1,_RNvNtNtNtNtCsf72If0ieCLb_12orchestrator4jobs6da_job5tests23test_fft_transformations_6case_1
FNDA:1,_RNvNtNtNtNtCsf72If0ieCLb_12orchestrator4jobs6da_job5tests23test_fft_transformations_6case_2
FNDA:1,_RNvNtNtNtNtCsf72If0ieCLb_12orchestrator4jobs6da_job5tests23test_fft_transformations_6case_3
FNDA:1,_RNvNtNtNtNtCsf72If0ieCLb_12orchestrator4jobs6da_job5tests23test_fft_transformations_6case_4
FNDA:1,_RNvNtNtNtNtCsf72If0ieCLb_12orchestrator4jobs6da_job5tests23test_fft_transformations_6case_5
FNDA:1,_RNvNtNtNtNtCsf72If0ieCLb_12orchestrator4jobs6da_job5tests23test_fft_transformations_6case_6
FNDA:1,_RNvNtNtNtNtCsf72If0ieCLb_12orchestrator4jobs6da_job5tests23test_fft_transformations_6case_7
FNF:29
FNH:26
DA:51,1
DA:52,1
DA:53,1
DA:54,1
DA:55,1
DA:56,1
DA:57,1
DA:58,1
DA:59,1
DA:60,1
DA:61,1
DA:63,1
DA:64,1
DA:65,5
DA:66,1
DA:67,1
DA:68,1
DA:69,1
DA:70,1
DA:71,0
DA:72,0
DA:73,0
DA:74,0
DA:75,1
DA:76,1
DA:77,1
DA:78,1
DA:79,1
DA:80,1
DA:81,1
DA:82,1
DA:83,1
DA:84,1
DA:85,1
DA:86,1
DA:87,1
DA:88,1
DA:89,1
DA:90,1
DA:91,1
DA:92,1
DA:93,1
DA:94,1
DA:95,1
DA:96,1
DA:97,0
DA:98,0
DA:99,0
DA:100,0
DA:101,0
DA:102,0
DA:103,1
DA:104,1
DA:105,1
DA:106,1
DA:107,1
DA:108,1
DA:109,1
DA:110,1
DA:112,1
DA:113,1
DA:114,1
DA:116,0
DA:117,0
DA:118,0
DA:120,0
DA:121,0
DA:122,0
DA:124,0
DA:125,0
DA:126,0
DA:129,8
DA:130,8
DA:131,32768
DA:132,32768
DA:133,32768
DA:134,32768
DA:135,32768
DA:136,8
DA:137,8
DA:138,8
DA:140,32768
DA:141,134217728
DA:142,134217728
DA:143,134217728
DA:145,8
DA:146,8
DA:148,4
DA:149,4
DA:150,4
DA:153,10998
DA:154,10998
DA:155,10998
DA:156,10998
DA:157,10998
DA:158,10998
DA:159,10998
DA:160,10998
DA:161,10998
DA:162,10998
DA:164,4
DA:165,4
DA:167,1
DA:168,1
DA:169,1
DA:170,0
DA:171,0
DA:172,0
DA:173,0
DA:174,1
DA:175,1
DA:176,1
DA:177,1
DA:178,1
DA:179,4096
DA:182,1
DA:183,0
DA:184,0
DA:185,0
DA:188,1
DA:189,1
DA:190,1
DA:191,1
DA:192,1
DA:193,1
DA:194,1
DA:196,1
DA:197,1
DA:199,4
DA:200,4
DA:201,4
DA:202,4
DA:203,4
DA:204,4
DA:205,4
DA:206,4
DA:207,4
DA:208,4
DA:209,4
DA:210,4
DA:211,4
DA:212,4
DA:213,4
DA:214,4
DA:215,4
DA:216,1073
DA:217,4
DA:218,4
DA:219,4
DA:220,20
DA:221,4
DA:222,4
DA:223,4
DA:224,792
DA:227,1077
DA:228,1073
DA:229,1073
DA:230,1073
DA:231,1073
DA:232,1073
DA:233,1073
DA:234,1073
DA:235,1073
DA:236,290
DA:238,278
DA:239,278
DA:240,0
DA:241,0
DA:242,0
DA:245,795
DA:246,1073
DA:247,1073
DA:248,1073
DA:249,1073
DA:250,1073
DA:251,1073
DA:252,1073
DA:253,3
DA:254,1070
DA:255,1070
DA:256,1070
DA:258,1070
DA:259,22
DA:260,1048
DA:262,5472
DA:263,4402
DA:264,4402
DA:265,4402
DA:268,4
DA:270,8
DA:271,4
DA:272,4
DA:273,4
DA:275,4
DA:276,4
DA:281,1077
DA:282,1077
DA:283,1077
DA:284,1077
DA:285,1077
DA:286,1077
DA:287,23
DA:289,1054
DA:293,1077
DA:294,1073
DA:295,1073
DA:296,1073
DA:297,1073
DA:298,1073
DA:299,1073
DA:300,4
DA:301,4
DA:302,4
DA:304,1077
DA:305,1077
DA:306,1077
DA:307,1077
DA:308,1077
DA:309,1077
DA:310,1077
DA:311,1077
DA:312,1077
DA:313,1077
DA:314,1077
DA:334,4
DA:351,3
DA:401,7
DA:421,3
DA:423,3
DA:424,3
DA:425,3
DA:426,3
DA:427,3
DA:428,3
DA:430,834
DA:436,3
DA:437,3
DA:438,3
DA:439,3
DA:440,3
DA:441,3
DA:442,3
DA:445,281
DA:446,278
DA:447,278
DA:448,278
DA:449,278
DA:450,278
DA:451,278
DA:452,278
DA:453,278
DA:454,278
DA:455,278
DA:456,278
DA:457,278
DA:458,3
DA:460,278
DA:461,8896
DA:462,278
DA:463,278
DA:464,278
DA:465,278
DA:466,278
DA:467,278
DA:468,0
DA:470,278
DA:472,278
BRF:0
BRH:0
LF:280
LH:260
end_of_record
SF:/Users/ocdbytes/Karnot/madara-orchestrator/crates/orchestrator/src/jobs/mod.rs
FN:260,_RNvNtNtNtCsf72If0ieCLb_12orchestrator4jobs5tests26test_get_u64_from_metadatas_31key_exists_with_valid_u64_value
FN:268,_RNvNtNtNtCsf72If0ieCLb_12orchestrator4jobs5tests26test_get_u64_from_metadatas_29key_exists_with_invalid_value
FN:276,_RNvNtNtNtCsf72If0ieCLb_12orchestrator4jobs5tests26test_get_u64_from_metadatas_18key_does_not_exist
FN:176,_RNvNtCsf72If0ieCLb_12orchestrator4jobs15get_job_handler
FN:198,_RNvNtCsf72If0ieCLb_12orchestrator4jobs25increment_key_in_metadata
FN:209,_RNvNtCsf72If0ieCLb_12orchestrator4jobs21get_u64_from_metadata
FN:221,_RNvNtNtNtCsf72If0ieCLb_12orchestrator4jobs5tests32test_incremement_key_in_metadatas_18key_does_not_exist
FN:229,_RNvNtNtNtCsf72If0ieCLb_12orchestrator4jobs5tests32test_incremement_key_in_metadatas_29key_exists_with_numeric_value
FN:238,_RNvNtNtNtCsf72If0ieCLb_12orchestrator4jobs5tests32test_incremement_key_in_metadatas_33key_exists_with_non_numeric_value
FN:247,_RNvNtNtNtCsf72If0ieCLb_12orchestrator4jobs5tests32test_incremement_key_in_metadatas_29key_exists_with_max_u64_value
FN:76,_RNvNtCsf72If0ieCLb_12orchestrator4jobs11process_job
FN:76,_RNCNvNtCsf72If0ieCLb_12orchestrator4jobs11process_job0B5_
FN:116,_RNvNtCsf72If0ieCLb_12orchestrator4jobs10verify_job
FN:116,_RNCNvNtCsf72If0ieCLb_12orchestrator4jobs10verify_job0B5_
FN:186,_RNvNtCsf72If0ieCLb_12orchestrator4jobs7get_job
FN:186,_RNCNvNtCsf72If0ieCLb_12orchestrator4jobs7get_job0B5_
FN:54,_RNvNtCsf72If0ieCLb_12orchestrator4jobs10create_job
FN:54,_RNCNvNtCsf72If0ieCLb_12orchestrator4jobs10create_job0B5_
FNDA:1,_RNvNtNtNtCsf72If0ieCLb_12orchestrator4jobs5tests26test_get_u64_from_metadatas_31key_exists_with_valid_u64_value
FNDA:1,_RNvNtNtNtCsf72If0ieCLb_12orchestrator4jobs5tests26test_get_u64_from_metadatas_29key_exists_with_invalid_value
FNDA:1,_RNvNtNtNtCsf72If0ieCLb_12orchestrator4jobs5tests26test_get_u64_from_metadatas_18key_does_not_exist
FNDA:24,_RNvNtCsf72If0ieCLb_12orchestrator4jobs15get_job_handler
FNDA:4,_RNvNtCsf72If0ieCLb_12orchestrator4jobs25increment_key_in_metadata
FNDA:7,_RNvNtCsf72If0ieCLb_12orchestrator4jobs21get_u64_from_metadata
FNDA:1,_RNvNtNtNtCsf72If0ieCLb_12orchestrator4jobs5tests32test_incremement_key_in_metadatas_18key_does_not_exist
FNDA:1,_RNvNtNtNtCsf72If0ieCLb_12orchestrator4jobs5tests32test_incremement_key_in_metadatas_29key_exists_with_numeric_value
FNDA:1,_RNvNtNtNtCsf72If0ieCLb_12orchestrator4jobs5tests32test_incremement_key_in_metadatas_33key_exists_with_non_numeric_value
FNDA:1,_RNvNtNtNtCsf72If0ieCLb_12orchestrator4jobs5tests32test_incremement_key_in_metadatas_29key_exists_with_max_u64_value
FNDA:0,_RNvNtCsf72If0ieCLb_12orchestrator4jobs11process_job
FNDA:0,_RNCNvNtCsf72If0ieCLb_12orchestrator4jobs11process_job0B5_
FNDA:0,_RNvNtCsf72If0ieCLb_12orchestrator4jobs10verify_job
FNDA:0,_RNCNvNtCsf72If0ieCLb_12orchestrator4jobs10verify_job0B5_
FNDA:0,_RNvNtCsf72If0ieCLb_12orchestrator4jobs7get_job
FNDA:0,_RNCNvNtCsf72If0ieCLb_12orchestrator4jobs7get_job0B5_
FNDA:24,_RNvNtCsf72If0ieCLb_12orchestrator4jobs10create_job
FNDA:24,_RNCNvNtCsf72If0ieCLb_12orchestrator4jobs10create_job0B5_
FNF:18
FNH:12
DA:54,24
DA:55,24
DA:56,24
DA:57,24
DA:58,0
DA:59,0
DA:60,0
DA:61,0
DA:62,0
DA:63,0
DA:64,24
DA:65,24
DA:66,24
DA:67,24
DA:68,24
DA:70,24
DA:71,24
DA:72,24
DA:76,0
DA:77,0
DA:78,0
DA:80,0
DA:84,0
DA:87,0
DA:88,0
DA:94,0
DA:96,0
DA:97,0
DA:98,0
DA:100,0
DA:101,0
DA:102,0
DA:103,0
DA:104,0
DA:106,0
DA:107,0
DA:109,0
DA:110,0
DA:116,0
DA:117,0
DA:118,0
DA:120,0
DA:122,0
DA:125,0
DA:126,0
DA:130,0
DA:131,0
DA:133,0
DA:135,0
DA:137,0
DA:138,0
DA:141,0
DA:142,0
DA:143,0
DA:144,0
DA:145,0
DA:146,0
DA:148,0
DA:149,0
DA:150,0
DA:151,0
DA:152,0
DA:155,0
DA:156,0
DA:157,0
DA:159,0
DA:160,0
DA:161,0
DA:162,0
DA:163,0
DA:164,0
DA:165,0
DA:166,0
DA:167,0
DA:168,0
DA:169,0
DA:173,0
DA:174,0
DA:176,24
DA:177,24
DA:178,0
DA:179,10
DA:180,9
DA:181,5
DA:182,0
DA:184,24
DA:186,0
DA:187,0
DA:188,0
DA:189,0
DA:190,0
DA:192,0
DA:193,0
DA:196,0
DA:198,4
DA:199,4
DA:200,4
DA:201,3
DA:202,3
DA:203,1
DA:204,2
DA:205,2
DA:206,2
DA:207,4
DA:209,7
DA:210,7
DA:211,7
DA:221,1
DA:222,1
DA:223,1
DA:224,1
DA:225,1
DA:226,1
DA:229,1
DA:230,1
DA:231,1
DA:232,1
DA:233,1
DA:234,1
DA:235,1
DA:238,1
DA:239,1
DA:240,1
DA:241,1
DA:242,1
DA:243,1
DA:244,1
DA:247,1
DA:248,1
DA:249,1
DA:250,1
DA:251,1
DA:252,1
DA:253,1
DA:260,1
DA:261,1
DA:262,1
DA:263,1
DA:264,1
DA:265,1
DA:268,1
DA:269,1
DA:270,1
DA:271,1
DA:272,1
DA:273,1
DA:276,1
DA:277,1
DA:278,1
DA:279,1
DA:280,1
BRF:0
BRH:0
LF:155
LH:76
end_of_record
SF:/Users/ocdbytes/Karnot/madara-orchestrator/crates/orchestrator/src/jobs/proving_job/mod.rs
FN:28,_RNvXNtNtCsf72If0ieCLb_12orchestrator4jobs11proving_jobNtB2_10ProvingJobNtB4_3Job10create_job
FN:28,_RNCNvXNtNtCsf72If0ieCLb_12orchestrator4jobs11proving_jobNtB4_10ProvingJobNtB6_3Job10create_job0B8_
FN:43,_RNvXNtNtCsf72If0ieCLb_12orchestrator4jobs11proving_jobNtB2_10ProvingJobNtB4_3Job11process_job
FN:43,_RNCNvXNtNtCsf72If0ieCLb_12orchestrator4jobs11proving_jobNtB4_10ProvingJobNtB6_3Job11process_job0B8_
FN:48,_RNCNCNvXNtNtCsf72If0ieCLb_12orchestrator4jobs11proving_jobNtB6_10ProvingJobNtB8_3Job11process_job00Ba_
FN:49,_RNCNCNvXNtNtCsf72If0ieCLb_12orchestrator4jobs11proving_jobNtB6_10ProvingJobNtB8_3Job11process_job0s_0Ba_
FN:55,_RNvXNtNtCsf72If0ieCLb_12orchestrator4jobs11proving_jobNtB2_10ProvingJobNtB4_3Job10verify_job
FN:55,_RNCNvXNtNtCsf72If0ieCLb_12orchestrator4jobs11proving_jobNtB4_10ProvingJobNtB6_3Job10verify_job0B8_
FN:70,_RNvXNtNtCsf72If0ieCLb_12orchestrator4jobs11proving_jobNtB2_10ProvingJobNtB4_3Job20max_process_attempts
FN:74,_RNvXNtNtCsf72If0ieCLb_12orchestrator4jobs11proving_jobNtB2_10ProvingJobNtB4_3Job25max_verification_attempts
FN:78,_RNvXNtNtCsf72If0ieCLb_12orchestrator4jobs11proving_jobNtB2_10ProvingJobNtB4_3Job34verification_polling_delay_seconds
FNDA:10,_RNvXNtNtCsf72If0ieCLb_12orchestrator4jobs11proving_jobNtB2_10ProvingJobNtB4_3Job10create_job
FNDA:10,_RNCNvXNtNtCsf72If0ieCLb_12orchestrator4jobs11proving_jobNtB4_10ProvingJobNtB6_3Job10create_job0B8_
FNDA:1,_RNvXNtNtCsf72If0ieCLb_12orchestrator4jobs11proving_jobNtB2_10ProvingJobNtB4_3Job11process_job
FNDA:1,_RNCNvXNtNtCsf72If0ieCLb_12orchestrator4jobs11proving_jobNtB4_10ProvingJobNtB6_3Job11process_job0B8_
FNDA:1,_RNCNCNvXNtNtCsf72If0ieCLb_12orchestrator4jobs11proving_jobNtB6_10ProvingJobNtB8_3Job11process_job00Ba_
FNDA:0,_RNCNCNvXNtNtCsf72If0ieCLb_12orchestrator4jobs11proving_jobNtB6_10ProvingJobNtB8_3Job11process_job0s_0Ba_
FNDA:1,_RNvXNtNtCsf72If0ieCLb_12orchestrator4jobs11proving_jobNtB2_10ProvingJobNtB4_3Job10verify_job
FNDA:1,_RNCNvXNtNtCsf72If0ieCLb_12orchestrator4jobs11proving_jobNtB4_10ProvingJobNtB6_3Job10verify_job0B8_
FNDA:0,_RNvXNtNtCsf72If0ieCLb_12orchestrator4jobs11proving_jobNtB2_10ProvingJobNtB4_3Job20max_process_attempts
FNDA:0,_RNvXNtNtCsf72If0ieCLb_12orchestrator4jobs11proving_jobNtB2_10ProvingJobNtB4_3Job25max_verification_attempts
FNDA:0,_RNvXNtNtCsf72If0ieCLb_12orchestrator4jobs11proving_jobNtB2_10ProvingJobNtB4_3Job34verification_polling_delay_seconds
FNF:8
FNH:4
DA:28,10
DA:29,10
DA:30,10
DA:31,10
DA:32,10
DA:33,10
DA:34,10
DA:35,10
DA:36,10
DA:37,10
DA:38,10
DA:39,10
DA:40,10
DA:41,10
DA:43,1
DA:44,1
DA:45,1
DA:46,1
DA:47,1
DA:48,1
DA:49,1
DA:50,1
DA:51,1
DA:52,1
DA:53,1
DA:55,1
DA:56,1
DA:57,1
DA:58,1
DA:59,1
DA:60,1
DA:61,0
DA:62,1
DA:63,0
DA:64,0
DA:65,0
DA:66,1
DA:67,1
DA:68,1
DA:70,0
DA:71,0
DA:72,0
DA:74,0
DA:75,0
DA:76,0
DA:78,0
DA:79,0
DA:80,0
BRF:0
BRH:0
LF:50
LH:40
end_of_record
SF:/Users/ocdbytes/Karnot/madara-orchestrator/crates/orchestrator/src/jobs/register_proof_job/mod.rs
FN:20,_RNvXNtNtCsf72If0ieCLb_12orchestrator4jobs18register_proof_jobNtB2_16RegisterProofJobNtB4_3Job10create_job
FN:20,_RNCNvXNtNtCsf72If0ieCLb_12orchestrator4jobs18register_proof_jobNtB4_16RegisterProofJobNtB6_3Job10create_job0B8_
FN:34,_RNvXNtNtCsf72If0ieCLb_12orchestrator4jobs18register_proof_jobNtB2_16RegisterProofJobNtB4_3Job11process_job
FN:34,_RNCNvXNtNtCsf72If0ieCLb_12orchestrator4jobs18register_proof_jobNtB4_16RegisterProofJobNtB6_3Job11process_job0B8_
FN:41,_RNvXNtNtCsf72If0ieCLb_12orchestrator4jobs18register_proof_jobNtB2_16RegisterProofJobNtB4_3Job10verify_job
FN:41,_RNCNvXNtNtCsf72If0ieCLb_12orchestrator4jobs18register_proof_jobNtB4_16RegisterProofJobNtB6_3Job10verify_job0B8_
FN:46,_RNvXNtNtCsf72If0ieCLb_12orchestrator4jobs18register_proof_jobNtB2_16RegisterProofJobNtB4_3Job20max_process_attempts
FN:50,_RNvXNtNtCsf72If0ieCLb_12orchestrator4jobs18register_proof_jobNtB2_16RegisterProofJobNtB4_3Job25max_verification_attempts
FN:54,_RNvXNtNtCsf72If0ieCLb_12orchestrator4jobs18register_proof_jobNtB2_16RegisterProofJobNtB4_3Job34verification_polling_delay_seconds
FNDA:0,_RNvXNtNtCsf72If0ieCLb_12orchestrator4jobs18register_proof_jobNtB2_16RegisterProofJobNtB4_3Job10create_job
FNDA:0,_RNCNvXNtNtCsf72If0ieCLb_12orchestrator4jobs18register_proof_jobNtB4_16RegisterProofJobNtB6_3Job10create_job0B8_
FNDA:0,_RNvXNtNtCsf72If0ieCLb_12orchestrator4jobs18register_proof_jobNtB2_16RegisterProofJobNtB4_3Job11process_job
FNDA:0,_RNCNvXNtNtCsf72If0ieCLb_12orchestrator4jobs18register_proof_jobNtB4_16RegisterProofJobNtB6_3Job11process_job0B8_
FNDA:0,_RNvXNtNtCsf72If0ieCLb_12orchestrator4jobs18register_proof_jobNtB2_16RegisterProofJobNtB4_3Job10verify_job
FNDA:0,_RNCNvXNtNtCsf72If0ieCLb_12orchestrator4jobs18register_proof_jobNtB4_16RegisterProofJobNtB6_3Job10verify_job0B8_
FNDA:0,_RNvXNtNtCsf72If0ieCLb_12orchestrator4jobs18register_proof_jobNtB2_16RegisterProofJobNtB4_3Job20max_process_attempts
FNDA:0,_RNvXNtNtCsf72If0ieCLb_12orchestrator4jobs18register_proof_jobNtB2_16RegisterProofJobNtB4_3Job25max_verification_attempts
FNDA:0,_RNvXNtNtCsf72If0ieCLb_12orchestrator4jobs18register_proof_jobNtB2_16RegisterProofJobNtB4_3Job34verification_polling_delay_seconds
FNF:6
FNH:0
DA:20,0
DA:21,0
DA:22,0
DA:23,0
DA:24,0
DA:25,0
DA:26,0
DA:27,0
DA:28,0
DA:29,0
DA:30,0
DA:31,0
DA:32,0
DA:34,0
DA:35,0
DA:36,0
DA:37,0
DA:38,0
DA:39,0
DA:41,0
DA:42,0
DA:43,0
DA:44,0
DA:46,0
DA:47,0
DA:50,0
DA:51,0
DA:54,0
DA:55,0
BRF:0
BRH:0
LF:29
LH:0
end_of_record
SF:/Users/ocdbytes/Karnot/madara-orchestrator/crates/orchestrator/src/jobs/snos_job/mod.rs
FN:20,_RNvXNtNtCsf72If0ieCLb_12orchestrator4jobs8snos_jobNtB2_7SnosJobNtB4_3Job10create_job
FN:20,_RNCNvXNtNtCsf72If0ieCLb_12orchestrator4jobs8snos_jobNtB4_7SnosJobNtB6_3Job10create_job0B8_
FN:32,_RNvXNtNtCsf72If0ieCLb_12orchestrator4jobs8snos_jobNtB2_7SnosJobNtB4_3Job11process_job
FN:32,_RNCNvXNtNtCsf72If0ieCLb_12orchestrator4jobs8snos_jobNtB4_7SnosJobNtB6_3Job11process_job0B8_
FN:39,_RNvXNtNtCsf72If0ieCLb_12orchestrator4jobs8snos_jobNtB2_7SnosJobNtB4_3Job10verify_job
FN:39,_RNCNvXNtNtCsf72If0ieCLb_12orchestrator4jobs8snos_jobNtB4_7SnosJobNtB6_3Job10verify_job0B8_
FN:45,_RNvXNtNtCsf72If0ieCLb_12orchestrator4jobs8snos_jobNtB2_7SnosJobNtB4_3Job20max_process_attempts
FN:49,_RNvXNtNtCsf72If0ieCLb_12orchestrator4jobs8snos_jobNtB2_7SnosJobNtB4_3Job25max_verification_attempts
FN:53,_RNvXNtNtCsf72If0ieCLb_12orchestrator4jobs8snos_jobNtB2_7SnosJobNtB4_3Job34verification_polling_delay_seconds
FNDA:10,_RNvXNtNtCsf72If0ieCLb_12orchestrator4jobs8snos_jobNtB2_7SnosJobNtB4_3Job10create_job
FNDA:10,_RNCNvXNtNtCsf72If0ieCLb_12orchestrator4jobs8snos_jobNtB4_7SnosJobNtB6_3Job10create_job0B8_
FNDA:0,_RNvXNtNtCsf72If0ieCLb_12orchestrator4jobs8snos_jobNtB2_7SnosJobNtB4_3Job11process_job
FNDA:0,_RNCNvXNtNtCsf72If0ieCLb_12orchestrator4jobs8snos_jobNtB4_7SnosJobNtB6_3Job11process_job0B8_
FNDA:0,_RNvXNtNtCsf72If0ieCLb_12orchestrator4jobs8snos_jobNtB2_7SnosJobNtB4_3Job10verify_job
FNDA:0,_RNCNvXNtNtCsf72If0ieCLb_12orchestrator4jobs8snos_jobNtB4_7SnosJobNtB6_3Job10verify_job0B8_
FNDA:0,_RNvXNtNtCsf72If0ieCLb_12orchestrator4jobs8snos_jobNtB2_7SnosJobNtB4_3Job20max_process_attempts
FNDA:0,_RNvXNtNtCsf72If0ieCLb_12orchestrator4jobs8snos_jobNtB2_7SnosJobNtB4_3Job25max_verification_attempts
FNDA:0,_RNvXNtNtCsf72If0ieCLb_12orchestrator4jobs8snos_jobNtB2_7SnosJobNtB4_3Job34verification_polling_delay_seconds
FNF:6
FNH:1
DA:20,10
DA:21,10
DA:22,10
DA:23,10
DA:24,10
DA:25,10
DA:26,10
DA:27,10
DA:28,10
DA:29,10
DA:30,10
DA:32,0
DA:33,0
DA:34,0
DA:35,0
DA:36,0
DA:37,0
DA:39,0
DA:40,0
DA:41,0
DA:42,0
DA:43,0
DA:45,0
DA:46,0
DA:49,0
DA:50,0
DA:53,0
DA:54,0
BRF:0
BRH:0
LF:28
LH:11
end_of_record
SF:/Users/ocdbytes/Karnot/madara-orchestrator/crates/orchestrator/src/jobs/state_update_job/mod.rs
FN:168,_RNvMNtNtCsf72If0ieCLb_12orchestrator4jobs16state_update_jobNtB2_14StateUpdateJob31get_block_numbers_from_metadata
FN:169,_RNCNvMNtNtCsf72If0ieCLb_12orchestrator4jobs16state_update_jobNtB4_14StateUpdateJob31get_block_numbers_from_metadata0B8_
FN:176,_RNvMNtNtCsf72If0ieCLb_12orchestrator4jobs16state_update_jobNtB2_14StateUpdateJob19parse_block_numbers
FN:182,_RNCNvMNtNtCsf72If0ieCLb_12orchestrator4jobs16state_update_jobNtB4_14StateUpdateJob19parse_block_numberss_0B8_
FN:187,_RNvMNtNtCsf72If0ieCLb_12orchestrator4jobs16state_update_jobNtB2_14StateUpdateJob22validate_block_numbers
FN:187,_RNCNvMNtNtCsf72If0ieCLb_12orchestrator4jobs16state_update_jobNtB4_14StateUpdateJob22validate_block_numbers0B8_
FN:206,_RNvMNtNtCsf72If0ieCLb_12orchestrator4jobs16state_update_jobNtB2_14StateUpdateJob22update_state_for_block
FN:212,_RNCNvMNtNtCsf72If0ieCLb_12orchestrator4jobs16state_update_jobNtB4_14StateUpdateJob22update_state_for_block0B8_
FN:241,_RNvMNtNtCsf72If0ieCLb_12orchestrator4jobs16state_update_jobNtB2_14StateUpdateJob20fetch_snos_for_block
FN:241,_RNCNvMNtNtCsf72If0ieCLb_12orchestrator4jobs16state_update_jobNtB4_14StateUpdateJob20fetch_snos_for_block0B8_
FN:256,_RNvMNtNtCsf72If0ieCLb_12orchestrator4jobs16state_update_jobNtB2_14StateUpdateJob25fetch_kzg_proof_for_block
FN:256,_RNCNvMNtNtCsf72If0ieCLb_12orchestrator4jobs16state_update_jobNtB4_14StateUpdateJob25fetch_kzg_proof_for_block0B8_
FN:271,_RNvMNtNtCsf72If0ieCLb_12orchestrator4jobs16state_update_jobNtB2_14StateUpdateJob29insert_attempts_into_metadata
FN:42,_RNvXs1_NtNtCsf72If0ieCLb_12orchestrator4jobs16state_update_jobNtB5_14StateUpdateJobNtB7_3Job10create_job
FN:42,_RNCNvXs1_NtNtCsf72If0ieCLb_12orchestrator4jobs16state_update_jobNtB7_14StateUpdateJobNtB9_3Job10create_job0Bb_
FN:56,_RNvXs1_NtNtCsf72If0ieCLb_12orchestrator4jobs16state_update_jobNtB5_14StateUpdateJobNtB7_3Job11process_job
FN:56,_RNCNvXs1_NtNtCsf72If0ieCLb_12orchestrator4jobs16state_update_jobNtB7_14StateUpdateJobNtB9_3Job11process_job0Bb_
FN:63,_RNCNCNvXs1_NtNtCsf72If0ieCLb_12orchestrator4jobs16state_update_jobNtB9_14StateUpdateJobNtBb_3Job11process_job00Bd_
FN:81,_RNCNCNvXs1_NtNtCsf72If0ieCLb_12orchestrator4jobs16state_update_jobNtB9_14StateUpdateJobNtBb_3Job11process_job0s0_0Bd_
FN:99,_RNvXs1_NtNtCsf72If0ieCLb_12orchestrator4jobs16state_update_jobNtB5_14StateUpdateJobNtB7_3Job10verify_job
FN:99,_RNCNvXs1_NtNtCsf72If0ieCLb_12orchestrator4jobs16state_update_jobNtB7_14StateUpdateJobNtB9_3Job10verify_job0Bb_
FN:153,_RNvXs1_NtNtCsf72If0ieCLb_12orchestrator4jobs16state_update_jobNtB5_14StateUpdateJobNtB7_3Job20max_process_attempts
FN:157,_RNvXs1_NtNtCsf72If0ieCLb_12orchestrator4jobs16state_update_jobNtB5_14StateUpdateJobNtB7_3Job25max_verification_attempts
FN:161,_RNvXs1_NtNtCsf72If0ieCLb_12orchestrator4jobs16state_update_jobNtB5_14StateUpdateJobNtB7_3Job34verification_polling_delay_seconds
FN:180,_RNCNvMNtNtCsf72If0ieCLb_12orchestrator4jobs16state_update_jobNtB4_14StateUpdateJob19parse_block_numbers0B8_
FN:74,_RNCNCNvXs1_NtNtCsf72If0ieCLb_12orchestrator4jobs16state_update_jobNtB9_14StateUpdateJobNtBb_3Job11process_job0s_0Bd_
FNDA:7,_RNvMNtNtCsf72If0ieCLb_12orchestrator4jobs16state_update_jobNtB2_14StateUpdateJob31get_block_numbers_from_metadata
FNDA:0,_RNCNvMNtNtCsf72If0ieCLb_12orchestrator4jobs16state_update_jobNtB4_14StateUpdateJob31get_block_numbers_from_metadata0B8_
FNDA:7,_RNvMNtNtCsf72If0ieCLb_12orchestrator4jobs16state_update_jobNtB2_14StateUpdateJob19parse_block_numbers
FNDA:2,_RNCNvMNtNtCsf72If0ieCLb_12orchestrator4jobs16state_update_jobNtB4_14StateUpdateJob19parse_block_numberss_0B8_
FNDA:5,_RNvMNtNtCsf72If0ieCLb_12orchestrator4jobs16state_update_jobNtB2_14StateUpdateJob22validate_block_numbers
FNDA:5,_RNCNvMNtNtCsf72If0ieCLb_12orchestrator4jobs16state_update_jobNtB4_14StateUpdateJob22validate_block_numbers0B8_
FNDA:4,_RNvMNtNtCsf72If0ieCLb_12orchestrator4jobs16state_update_jobNtB2_14StateUpdateJob22update_state_for_block
FNDA:4,_RNCNvMNtNtCsf72If0ieCLb_12orchestrator4jobs16state_update_jobNtB4_14StateUpdateJob22update_state_for_block0B8_
FNDA:4,_RNvMNtNtCsf72If0ieCLb_12orchestrator4jobs16state_update_jobNtB2_14StateUpdateJob20fetch_snos_for_block
FNDA:4,_RNCNvMNtNtCsf72If0ieCLb_12orchestrator4jobs16state_update_jobNtB4_14StateUpdateJob20fetch_snos_for_block0B8_
FNDA:4,_RNvMNtNtCsf72If0ieCLb_12orchestrator4jobs16state_update_jobNtB2_14StateUpdateJob25fetch_kzg_proof_for_block
FNDA:4,_RNCNvMNtNtCsf72If0ieCLb_12orchestrator4jobs16state_update_jobNtB4_14StateUpdateJob25fetch_kzg_proof_for_block0B8_
FNDA:1,_RNvMNtNtCsf72If0ieCLb_12orchestrator4jobs16state_update_jobNtB2_14StateUpdateJob29insert_attempts_into_metadata
FNDA:13,_RNvXs1_NtNtCsf72If0ieCLb_12orchestrator4jobs16state_update_jobNtB5_14StateUpdateJobNtB7_3Job10create_job
FNDA:13,_RNCNvXs1_NtNtCsf72If0ieCLb_12orchestrator4jobs16state_update_jobNtB7_14StateUpdateJobNtB9_3Job10create_job0Bb_
FNDA:7,_RNvXs1_NtNtCsf72If0ieCLb_12orchestrator4jobs16state_update_jobNtB5_14StateUpdateJobNtB7_3Job11process_job
FNDA:7,_RNCNvXs1_NtNtCsf72If0ieCLb_12orchestrator4jobs16state_update_jobNtB7_14StateUpdateJobNtB9_3Job11process_job0Bb_
FNDA:1,_RNCNCNvXs1_NtNtCsf72If0ieCLb_12orchestrator4jobs16state_update_jobNtB9_14StateUpdateJobNtBb_3Job11process_job00Bd_
FNDA:0,_RNCNCNvXs1_NtNtCsf72If0ieCLb_12orchestrator4jobs16state_update_jobNtB9_14StateUpdateJobNtBb_3Job11process_job0s0_0Bd_
FNDA:0,_RNvXs1_NtNtCsf72If0ieCLb_12orchestrator4jobs16state_update_jobNtB5_14StateUpdateJobNtB7_3Job10verify_job
FNDA:0,_RNCNvXs1_NtNtCsf72If0ieCLb_12orchestrator4jobs16state_update_jobNtB7_14StateUpdateJobNtB9_3Job10verify_job0Bb_
FNDA:0,_RNvXs1_NtNtCsf72If0ieCLb_12orchestrator4jobs16state_update_jobNtB5_14StateUpdateJobNtB7_3Job20max_process_attempts
FNDA:0,_RNvXs1_NtNtCsf72If0ieCLb_12orchestrator4jobs16state_update_jobNtB5_14StateUpdateJobNtB7_3Job25max_verification_attempts
FNDA:0,_RNvXs1_NtNtCsf72If0ieCLb_12orchestrator4jobs16state_update_jobNtB5_14StateUpdateJobNtB7_3Job34verification_polling_delay_seconds
FNDA:21,_RNCNvMNtNtCsf72If0ieCLb_12orchestrator4jobs16state_update_jobNtB4_14StateUpdateJob19parse_block_numbers0B8_
FNDA:0,_RNCNCNvXs1_NtNtCsf72If0ieCLb_12orchestrator4jobs16state_update_jobNtB9_14StateUpdateJobNtBb_3Job11process_job0s_0Bd_
FNF:23
FNH:16
DA:42,13
DA:43,13
DA:44,13
DA:45,13
DA:46,13
DA:47,13
DA:48,13
DA:49,13
DA:50,13
DA:51,13
DA:52,13
DA:53,13
DA:54,13
DA:56,7
DA:57,7
DA:58,7
DA:59,7
DA:60,7
DA:61,7
DA:62,7
DA:63,7
DA:64,7
DA:65,7
DA:66,7
DA:67,7
DA:68,7
DA:69,7
DA:70,7
DA:71,7
DA:72,0
DA:73,0
DA:74,0
DA:75,1
DA:76,7
DA:77,7
DA:78,7
DA:79,7
DA:80,7
DA:81,7
DA:82,0
DA:83,0
DA:84,0
DA:85,4
DA:86,7
DA:87,7
DA:88,7
DA:89,7
DA:90,1
DA:91,1
DA:92,1
DA:93,7
DA:99,0
DA:100,0
DA:101,0
DA:102,0
DA:103,0
DA:104,0
DA:105,0
DA:106,0
DA:107,0
DA:108,0
DA:109,0
DA:110,0
DA:111,0
DA:112,0
DA:113,0
DA:114,0
DA:115,0
DA:116,0
DA:117,0
DA:118,0
DA:119,0
DA:120,0
DA:121,0
DA:122,0
DA:123,0
DA:124,0
DA:125,0
DA:126,0
DA:127,0
DA:128,0
DA:129,0
DA:130,0
DA:131,0
DA:132,0
DA:133,0
DA:134,0
DA:135,0
DA:136,0
DA:137,0
DA:138,0
DA:139,0
DA:140,0
DA:141,0
DA:142,0
DA:143,0
DA:144,0
DA:145,0
DA:146,0
DA:147,0
DA:148,0
DA:149,0
DA:150,0
DA:151,0
DA:153,0
DA:154,0
DA:155,0
DA:157,0
DA:158,0
DA:159,0
DA:161,0
DA:162,0
DA:163,0
DA:168,7
DA:169,7
DA:170,0
DA:171,7
DA:172,7
DA:173,7
DA:176,7
DA:177,7
DA:178,7
DA:179,7
DA:180,21
DA:181,7
DA:182,7
DA:183,5
DA:184,7
DA:187,5
DA:188,5
DA:189,0
DA:190,5
DA:191,5
DA:192,2
DA:193,3
DA:194,3
DA:195,1
DA:196,2
DA:198,2
DA:199,2
DA:200,1
DA:201,1
DA:202,1
DA:203,5
DA:206,4
DA:207,4
DA:208,4
DA:209,4
DA:210,4
DA:211,4
DA:212,4
DA:213,4
DA:214,4
DA:215,4
DA:216,0
DA:217,0
DA:219,0
DA:221,0
DA:222,0
DA:223,0
DA:224,0
DA:225,0
DA:226,0
DA:227,0
DA:228,4
DA:230,4
DA:231,4
DA:232,4
DA:234,0
DA:236,4
DA:237,4
DA:241,4
DA:242,4
DA:243,4
DA:245,4
DA:246,4
DA:247,4
DA:248,4
DA:250,0
DA:252,4
DA:256,4
DA:257,4
DA:258,4
DA:260,4
DA:261,4
DA:262,4
DA:264,0
DA:266,4
DA:267,4
DA:271,1
DA:272,1
DA:273,1
DA:274,1
BRF:0
BRH:0
LF:208
LH:123
end_of_record
SF:/Users/ocdbytes/Karnot/madara-orchestrator/crates/orchestrator/src/jobs/types.rs
FN:72,_RINvXs_NvXNvNtNtCsf72If0ieCLb_12orchestrator4jobs5typess1_1__NtBa_7JobTypeNtNtCs6LpWrqowvw4_5serde2de11Deserialize11deserializeNtB5_7___FieldB1a_11deserializeNtNtNtCs84bRhzOpns3_4bson2de3raw23DocumentKeyDeserializerEBe_
FN:86,_RINvXs_NvXNvNtNtCsf72If0ieCLb_12orchestrator4jobs5typess3_1__NtBa_9JobStatusNtNtCs6LpWrqowvw4_5serde2de11Deserialize11deserializeNtB5_7___FieldB1c_11deserializeNtNtNtCs84bRhzOpns3_4bson2de3raw23DocumentKeyDeserializerEBe_
FN:104,_RINvXs_NvXNvNtNtCsf72If0ieCLb_12orchestrator4jobs5typess5_1__NtBa_7JobItemNtNtCs6LpWrqowvw4_5serde2de11Deserialize11deserializeNtB5_7___FieldB1a_11deserializeNtNtNtCs84bRhzOpns3_4bson2de3raw17FieldDeserializerEBe_
FN:104,_RINvXs_NvXNvNtNtCsf72If0ieCLb_12orchestrator4jobs5typess5_1__NtBa_7JobItemNtNtCs6LpWrqowvw4_5serde2de11Deserialize11deserializeNtB5_7___FieldB1a_11deserializeNtNtNtCs84bRhzOpns3_4bson2de3raw23DocumentKeyDeserializerEBe_
FN:104,_RINvXs0_NvXNvNtNtCsf72If0ieCLb_12orchestrator4jobs5typess5_1__NtBb_7JobItemNtNtCs6LpWrqowvw4_5serde2de11Deserialize11deserializeNtB6_9___VisitorNtB1d_7Visitor9visit_seqNtNtNtCs84bRhzOpns3_4bson2de3raw14DocumentAccessEBf_
FN:104,_RNCINvXs0_NvXNvNtNtCsf72If0ieCLb_12orchestrator4jobs5typess5_1__NtBd_7JobItemNtNtCs6LpWrqowvw4_5serde2de11Deserialize11deserializeNtB8_9___VisitorNtB1f_7Visitor9visit_seqNtNtNtCs84bRhzOpns3_4bson2de3raw14DocumentAccessE0Bh_
FN:104,_RINvXs0_NvXNvNtNtCsf72If0ieCLb_12orchestrator4jobs5typess5_1__NtBb_7JobItemNtNtCs6LpWrqowvw4_5serde2de11Deserialize11deserializeNtB6_9___VisitorNtB1d_7Visitor9visit_mapNtNtNtCs84bRhzOpns3_4bson2de3raw11RegexAccessEBf_
FN:104,_RINvXs0_NvXNvNtNtCsf72If0ieCLb_12orchestrator4jobs5typess5_1__NtBb_7JobItemNtNtCs6LpWrqowvw4_5serde2de11Deserialize11deserializeNtB6_9___VisitorNtB1d_7Visitor9visit_mapNtNtNtCs84bRhzOpns3_4bson2de3raw12BinaryAccessEBf_
FN:104,_RINvXs0_NvXNvNtNtCsf72If0ieCLb_12orchestrator4jobs5typess5_1__NtBb_7JobItemNtNtCs6LpWrqowvw4_5serde2de11Deserialize11deserializeNtB6_9___VisitorNtB1d_7Visitor9visit_mapNtNtNtCs84bRhzOpns3_4bson2de3raw13RawBsonAccessEBf_
FN:104,_RINvXs0_NvXNvNtNtCsf72If0ieCLb_12orchestrator4jobs5typess5_1__NtBb_7JobItemNtNtCs6LpWrqowvw4_5serde2de11Deserialize11deserializeNtB6_9___VisitorNtB1d_7Visitor9visit_mapNtNtNtCs84bRhzOpns3_4bson2de3raw14DateTimeAccessEBf_
FN:104,_RINvXs0_NvXNvNtNtCsf72If0ieCLb_12orchestrator4jobs5typess5_1__NtBb_7JobItemNtNtCs6LpWrqowvw4_5serde2de11Deserialize11deserializeNtB6_9___VisitorNtB1d_7Visitor9visit_mapNtNtNtCs84bRhzOpns3_4bson2de3raw14DocumentAccessEBf_
FN:104,_RINvXs0_NvXNvNtNtCsf72If0ieCLb_12orchestrator4jobs5typess5_1__NtBb_7JobItemNtNtCs6LpWrqowvw4_5serde2de11Deserialize11deserializeNtB6_9___VisitorNtB1d_7Visitor9visit_mapNtNtNtCs84bRhzOpns3_4bson2de3raw14ObjectIdAccessEBf_
FN:104,_RINvXs0_NvXNvNtNtCsf72If0ieCLb_12orchestrator4jobs5typess5_1__NtBb_7JobItemNtNtCs6LpWrqowvw4_5serde2de11Deserialize11deserializeNtB6_9___VisitorNtB1d_7Visitor9visit_mapNtNtNtCs84bRhzOpns3_4bson2de3raw15DbPointerAccessEBf_
FN:104,_RINvXs0_NvXNvNtNtCsf72If0ieCLb_12orchestrator4jobs5typess5_1__NtBb_7JobItemNtNtCs6LpWrqowvw4_5serde2de11Deserialize11deserializeNtB6_9___VisitorNtB1d_7Visitor9visit_mapNtNtNtCs84bRhzOpns3_4bson2de3raw15TimestampAccessEBf_
FN:104,_RINvXs0_NvXNvNtNtCsf72If0ieCLb_12orchestrator4jobs5typess5_1__NtBb_7JobItemNtNtCs6LpWrqowvw4_5serde2de11Deserialize11deserializeNtB6_9___VisitorNtB1d_7Visitor9visit_mapNtNtNtCs84bRhzOpns3_4bson2de3raw17RawDocumentAccessEBf_
FN:104,_RINvXs0_NvXNvNtNtCsf72If0ieCLb_12orchestrator4jobs5typess5_1__NtBb_7JobItemNtNtCs6LpWrqowvw4_5serde2de11Deserialize11deserializeNtB6_9___VisitorNtB1d_7Visitor9visit_mapNtNtNtCs84bRhzOpns3_4bson2de3raw19CodeWithScopeAccessEBf_
FN:68,_RNvNtNtCsf72If0ieCLb_12orchestrator4jobs5types25unwrap_external_id_failed
FN:72,_RNvXNvXNvNtNtCsf72If0ieCLb_12orchestrator4jobs5typess1_1__NtB7_7JobTypeNtNtCs6LpWrqowvw4_5serde2de11Deserialize11deserializeNtB2_14___FieldVisitorNtB19_7Visitor9expecting
FN:72,_RINvXNvXNvNtNtCsf72If0ieCLb_12orchestrator4jobs5typess1_1__NtB8_7JobTypeNtNtCs6LpWrqowvw4_5serde2de11Deserialize11deserializeNtB3_14___FieldVisitorNtB1a_7Visitor9visit_strNtNtCs7GeGMEtFxdc_10serde_json5error5ErrorEBc_
FN:72,_RINvXNvXNvNtNtCsf72If0ieCLb_12orchestrator4jobs5typess1_1__NtB8_7JobTypeNtNtCs6LpWrqowvw4_5serde2de11Deserialize11deserializeNtB3_14___FieldVisitorNtB1a_7Visitor9visit_strNtNtNtCs84bRhzOpns3_4bson2de5error5ErrorEBc_
FN:72,_RINvXNvXNvNtNtCsf72If0ieCLb_12orchestrator4jobs5typess1_1__NtB8_7JobTypeNtNtCs6LpWrqowvw4_5serde2de11Deserialize11deserializeNtB3_14___FieldVisitorNtB1a_7Visitor11visit_bytesNtNtNtCs84bRhzOpns3_4bson2de5error5ErrorEBc_
FN:72,_RINvXs_NvXNvNtNtCsf72If0ieCLb_12orchestrator4jobs5typess1_1__NtBa_7JobTypeNtNtCs6LpWrqowvw4_5serde2de11Deserialize11deserializeNtB5_7___FieldB1a_11deserializeNtNtNtCs84bRhzOpns3_4bson2de5serde12DeserializerEBe_
FN:72,_RNvXs0_NvXNvNtNtCsf72If0ieCLb_12orchestrator4jobs5typess1_1__NtBa_7JobTypeNtNtCs6LpWrqowvw4_5serde2de11Deserialize11deserializeNtB5_9___VisitorNtB1c_7Visitor9expecting
FN:72,_RINvXs0_NvXNvNtNtCsf72If0ieCLb_12orchestrator4jobs5typess1_1__NtBb_7JobTypeNtNtCs6LpWrqowvw4_5serde2de11Deserialize11deserializeNtB6_9___VisitorNtB1d_7Visitor10visit_enumINtNtB1d_5value18CowStrDeserializerNtNtNtCs84bRhzOpns3_4bson2de5error5ErrorEEBf_
FN:72,_RINvXs0_NvXNvNtNtCsf72If0ieCLb_12orchestrator4jobs5typess1_1__NtBb_7JobTypeNtNtCs6LpWrqowvw4_5serde2de11Deserialize11deserializeNtB6_9___VisitorNtB1d_7Visitor10visit_enumINtNtCs6VgYWKnnD2x_19serde_path_to_error4wrap4WrapINtNtCs7GeGMEtFxdc_10serde_json2de13VariantAccessNtNtB3B_4read9SliceReadEEEBf_
FN:72,_RINvXs0_NvXNvNtNtCsf72If0ieCLb_12orchestrator4jobs5typess1_1__NtBb_7JobTypeNtNtCs6LpWrqowvw4_5serde2de11Deserialize11deserializeNtB6_9___VisitorNtB1d_7Visitor10visit_enumINtNtCs6VgYWKnnD2x_19serde_path_to_error4wrap4WrapINtNtCs7GeGMEtFxdc_10serde_json2de17UnitVariantAccessNtNtB3B_4read9SliceReadEEEBf_
FN:72,_RINvXs0_NvXNvNtNtCsf72If0ieCLb_12orchestrator4jobs5typess1_1__NtBb_7JobTypeNtNtCs6LpWrqowvw4_5serde2de11Deserialize11deserializeNtB6_9___VisitorNtB1d_7Visitor10visit_enumNtNtNtCs84bRhzOpns3_4bson2de3raw14DocumentAccessEBf_
FN:72,_RINvXs0_NvXNvNtNtCsf72If0ieCLb_12orchestrator4jobs5typess1_1__NtBb_7JobTypeNtNtCs6LpWrqowvw4_5serde2de11Deserialize11deserializeNtB6_9___VisitorNtB1d_7Visitor10visit_enumNtNtNtCs84bRhzOpns3_4bson2de5serde16EnumDeserializerEBf_
FN:86,_RNvXNvXNvNtNtCsf72If0ieCLb_12orchestrator4jobs5typess3_1__NtB7_9JobStatusNtNtCs6LpWrqowvw4_5serde2de11Deserialize11deserializeNtB2_14___FieldVisitorNtB1b_7Visitor9expecting
FN:86,_RINvXNvXNvNtNtCsf72If0ieCLb_12orchestrator4jobs5typess3_1__NtB8_9JobStatusNtNtCs6LpWrqowvw4_5serde2de11Deserialize11deserializeNtB3_14___FieldVisitorNtB1c_7Visitor9visit_strNtNtNtCs84bRhzOpns3_4bson2de5error5ErrorEBc_
FN:86,_RINvXNvXNvNtNtCsf72If0ieCLb_12orchestrator4jobs5typess3_1__NtB8_9JobStatusNtNtCs6LpWrqowvw4_5serde2de11Deserialize11deserializeNtB3_14___FieldVisitorNtB1c_7Visitor11visit_bytesNtNtNtCs84bRhzOpns3_4bson2de5error5ErrorEBc_
FN:86,_RINvXs_NvXNvNtNtCsf72If0ieCLb_12orchestrator4jobs5typess3_1__NtBa_9JobStatusNtNtCs6LpWrqowvw4_5serde2de11Deserialize11deserializeNtB5_7___FieldB1c_11deserializeNtNtNtCs84bRhzOpns3_4bson2de5serde12DeserializerEBe_
FN:86,_RNvXs0_NvXNvNtNtCsf72If0ieCLb_12orchestrator4jobs5typess3_1__NtBa_9JobStatusNtNtCs6LpWrqowvw4_5serde2de11Deserialize11deserializeNtB5_9___VisitorNtB1e_7Visitor9expecting
FN:86,_RINvXs0_NvXNvNtNtCsf72If0ieCLb_12orchestrator4jobs5typess3_1__NtBb_9JobStatusNtNtCs6LpWrqowvw4_5serde2de11Deserialize11deserializeNtB6_9___VisitorNtB1f_7Visitor10visit_enumINtNtB1f_5value18CowStrDeserializerNtNtNtCs84bRhzOpns3_4bson2de5error5ErrorEEBf_
FN:86,_RINvXs0_NvXNvNtNtCsf72If0ieCLb_12orchestrator4jobs5typess3_1__NtBb_9JobStatusNtNtCs6LpWrqowvw4_5serde2de11Deserialize11deserializeNtB6_9___VisitorNtB1f_7Visitor10visit_enumNtNtNtCs84bRhzOpns3_4bson2de3raw14DocumentAccessEBf_
FN:86,_RINvXs0_NvXNvNtNtCsf72If0ieCLb_12orchestrator4jobs5typess3_1__NtBb_9JobStatusNtNtCs6LpWrqowvw4_5serde2de11Deserialize11deserializeNtB6_9___VisitorNtB1f_7Visitor10visit_enumNtNtNtCs84bRhzOpns3_4bson2de5serde16EnumDeserializerEBf_
FN:104,_RINvXNvXNvNtNtCsf72If0ieCLb_12orchestrator4jobs5typess4_1__NtB8_7JobItemNtNtCs6LpWrqowvw4_5serde3ser9Serialize9serializeNtB3_15___SerializeWithB18_9serializeNtNtNtCs84bRhzOpns3_4bson3ser5serde10SerializerEBc_
FN:104,_RINvXNvXNvNtNtCsf72If0ieCLb_12orchestrator4jobs5typess4_1__NtB8_7JobItemNtNtCs6LpWrqowvw4_5serde3ser9Serialize9serializeNtB3_15___SerializeWithB18_9serializeQNtNtNtCs84bRhzOpns3_4bson3ser3raw10SerializerEBc_
FN:104,_RINvXNvXNvNtNtCsf72If0ieCLb_12orchestrator4jobs5typess4_1__NtB8_7JobItemNtNtCs6LpWrqowvw4_5serde3ser9Serialize9serializeNtB3_15___SerializeWithB18_9serializeQNtNtNtNtCs84bRhzOpns3_4bson3ser3raw16value_serializer15ValueSerializerEBc_
FN:104,_RNvXNvXNvNtNtCsf72If0ieCLb_12orchestrator4jobs5typess5_1__NtB7_7JobItemNtNtCs6LpWrqowvw4_5serde2de11Deserialize11deserializeNtB2_14___FieldVisitorNtB19_7Visitor9expecting
FN:104,_RINvXNvXNvNtNtCsf72If0ieCLb_12orchestrator4jobs5typess5_1__NtB8_7JobItemNtNtCs6LpWrqowvw4_5serde2de11Deserialize11deserializeNtB3_14___FieldVisitorNtB1a_7Visitor9visit_strNtNtNtCs84bRhzOpns3_4bson2de5error5ErrorEBc_
FN:104,_RINvXNvXNvNtNtCsf72If0ieCLb_12orchestrator4jobs5typess5_1__NtB8_7JobItemNtNtCs6LpWrqowvw4_5serde2de11Deserialize11deserializeNtB3_14___FieldVisitorNtB1a_7Visitor11visit_bytesNtNtNtCs84bRhzOpns3_4bson2de5error5ErrorEBc_
FN:104,_RINvXs_NvXNvNtNtCsf72If0ieCLb_12orchestrator4jobs5typess5_1__NtBa_7JobItemNtNtCs6LpWrqowvw4_5serde2de11Deserialize11deserializeNtB5_7___FieldB1a_11deserializeNtNtNtCs84bRhzOpns3_4bson2de5serde12DeserializerEBe_
FN:104,_RNvXs0_NvXNvNtNtCsf72If0ieCLb_12orchestrator4jobs5typess5_1__NtBa_7JobItemNtNtCs6LpWrqowvw4_5serde2de11Deserialize11deserializeNtB5_9___VisitorNtB1c_7Visitor9expecting
FN:104,_RINvXs0_NvXNvNtNtCsf72If0ieCLb_12orchestrator4jobs5typess5_1__NtBb_7JobItemNtNtCs6LpWrqowvw4_5serde2de11Deserialize11deserializeNtB6_9___VisitorNtB1d_7Visitor9visit_seqNtNtNtCs84bRhzOpns3_4bson2de5serde15SeqDeserializerEBf_
FN:104,_RNCINvXs0_NvXNvNtNtCsf72If0ieCLb_12orchestrator4jobs5typess5_1__NtBd_7JobItemNtNtCs6LpWrqowvw4_5serde2de11Deserialize11deserializeNtB8_9___VisitorNtB1f_7Visitor9visit_seqNtNtNtCs84bRhzOpns3_4bson2de5serde15SeqDeserializerE0Bh_
FN:104,_RINvXNvXs0_NvXNvNtNtCsf72If0ieCLb_12orchestrator4jobs5typess5_1__NtBe_7JobItemNtNtCs6LpWrqowvw4_5serde2de11Deserialize11deserializeNtB9_9___VisitorNtB1g_7Visitor9visit_seqNtB3_17___DeserializeWithB1e_11deserializeNtNtNtCs84bRhzOpns3_4bson2de5serde12DeserializerEBi_
FN:104,_RINvXNvXs0_NvXNvNtNtCsf72If0ieCLb_12orchestrator4jobs5typess5_1__NtBe_7JobItemNtNtCs6LpWrqowvw4_5serde2de11Deserialize11deserializeNtB9_9___VisitorNtB1g_7Visitor9visit_seqNtB3_17___DeserializeWithB1e_11deserializeQNtNtNtCs84bRhzOpns3_4bson2de3raw12DeserializerEBi_
FN:104,_RINvXNvXs0_NvXNvNtNtCsf72If0ieCLb_12orchestrator4jobs5typess5_1__NtBe_7JobItemNtNtCs6LpWrqowvw4_5serde2de11Deserialize11deserializeNtB9_9___VisitorNtB1g_7Visitor9visit_mapNtB3_17___DeserializeWithB1e_11deserializeNtNtNtCs84bRhzOpns3_4bson2de3raw19RawBsonDeserializerEBi_
FN:104,_RINvXNvXs0_NvXNvNtNtCsf72If0ieCLb_12orchestrator4jobs5typess5_1__NtBe_7JobItemNtNtCs6LpWrqowvw4_5serde2de11Deserialize11deserializeNtB9_9___VisitorNtB1g_7Visitor9visit_mapNtB3_17___DeserializeWithB1e_11deserializeNtNtNtCs84bRhzOpns3_4bson2de3raw20ObjectIdDeserializerEBi_
FN:104,_RINvXNvXs0_NvXNvNtNtCsf72If0ieCLb_12orchestrator4jobs5typess5_1__NtBe_7JobItemNtNtCs6LpWrqowvw4_5serde2de11Deserialize11deserializeNtB9_9___VisitorNtB1g_7Visitor9visit_mapNtB3_17___DeserializeWithB1e_11deserializeNtNtNtCs84bRhzOpns3_4bson2de3raw22Decimal128DeserializerEBi_
FN:104,_RINvXNvXs0_NvXNvNtNtCsf72If0ieCLb_12orchestrator4jobs5typess5_1__NtBe_7JobItemNtNtCs6LpWrqowvw4_5serde2de11Deserialize11deserializeNtB9_9___VisitorNtB1g_7Visitor9visit_mapNtB3_17___DeserializeWithB1e_11deserializeNtNtNtCs84bRhzOpns3_4bson2de3raw23RawDocumentDeserializerEBi_
FN:104,_RINvXNvXs0_NvXNvNtNtCsf72If0ieCLb_12orchestrator4jobs5typess5_1__NtBe_7JobItemNtNtCs6LpWrqowvw4_5serde2de11Deserialize11deserializeNtB9_9___VisitorNtB1g_7Visitor9visit_mapNtB3_17___DeserializeWithB1e_11deserializeNtNtNtCs84bRhzOpns3_4bson2de5serde12DeserializerEBi_
FN:104,_RINvXNvXs0_NvXNvNtNtCsf72If0ieCLb_12orchestrator4jobs5typess5_1__NtBe_7JobItemNtNtCs6LpWrqowvw4_5serde2de11Deserialize11deserializeNtB9_9___VisitorNtB1g_7Visitor9visit_mapNtB3_17___DeserializeWithB1e_11deserializeQNtNtNtCs84bRhzOpns3_4bson2de3raw12DeserializerEBi_
